MACRO ASSEMBLER BLHELI                                      01/01/16 17:30:07 PAGE     1


DOS MACRO ASSEMBLER MA51 V06.16.13.326
OBJECT MODULE PLACED IN OUTPUT\XROTOR_40A_REV14_3.OBJ
ASSEMBLER INVOKED BY: PRINT SET(BESCNO=189) OBJECT(OUTPUT\XROTOR_40A_REV14_3.OBJ) DEBUG EP QUIET PIN(C:\SILABS\MCU\INC;C:\RAISONANCE\RIDE\INC;C:\RAISONANCE\RIDE\INC\51) 

LOC     OBJ           LINE    SOURCE
                         1     $NOMOD51
                         2     ;**** **** **** **** ****
                         3     ;
                         4     ; BLHeli program for controlling brushless motors in helicopters and multirotors
                         5     ;
                         6     ; Copyright 2011, 2012 Steffen Skaug
                         7     ; This program is distributed under the terms of the GNU General Public License
                         8     ;
                         9     ; This file is part of BLHeli.
                        10     ;
                        11     ; BLHeli is free software: you can redistribute it and/or modify
                        12     ; it under the terms of the GNU General Public License as published by
                        13     ; the Free Software Foundation, either version 3 of the License, or
                        14     ; (at your option) any later version.
                        15     ;
                        16     ; BLHeli is distributed in the hope that it will be useful,
                        17     ; but WITHOUT ANY WARRANTY; without even the implied warranty of
                        18     ; MERCHANTABILITY or FITNESS FOR A PARTICULAR PURPOSE.  See the
                        19     ; GNU General Public License for more details.
                        20     ;
                        21     ; You should have received a copy of the GNU General Public License
                        22     ; along with BLHeli.  If not, see <http://www.gnu.org/licenses/>.
                        23     ;
                        24     ;**** **** **** **** ****
                        25     ;
                        26     ; The software was initially designed for use with Eflite mCP X, but is now adapted to copters/planes in general
                        27     ;
                        28     ; The software was inspired by and started from from Bernard Konze's BLMC: http://home.versanet.de/~bkonze/blc_6a/blc_6a.htm
                        29     ; And also Simon Kirby's TGY: https://github.com/sim-/tgy
                        30     ;
                        31     ; This file is best viewed with tab width set to 5
                        32     ;
                        33     ; The input signal can be positive 1kHz, 2kHz, 4kHz, 8kHz or 12kHz PWM (e.g. taken from the "resistor tap" on mCPx)
                        34     ; And the input signal can be PPM (1-2ms) or OneShot125 (125-250us) at rates up to several hundred Hz.
                        35     ; The code autodetects the various input modes/frequencies
                        36     ; The code can also be programmed to accept inverted input signal.
                        37     ;
                        38     ; The first lines of the software must be modified according to the chosen environment:
                        39     ; Uncomment the selected ESC and main/tail/multi mode
                        40     ; BESCNO EQU "ESC"_"mode" 						
                        41     ; 
                        42     ;**** **** **** **** ****
                        43     ; Revision history:
                        44     ; - Rev1.0: Initial revision based upon BLHeli for AVR controllers
                        45     ; - Rev2.0: Changed "Eeprom" initialization, layout and defaults
                        46     ;           Various changes and improvements to comparator reading. Now using timer1 for time from pwm on/off
                        47     ;           Beeps are made louder
                        48     ;           Added programmable low voltage limit
                        49     ;           Added programmable damped tail mode (only for 1S ESCs)
                        50     ;           Added programmable motor rotation direction
                        51     ; - Rev2.1: (minor changes by 4712)
                        52     ;		  Added Disable TX Programming by PC Setup Application 
                        53     ;		  therfore changed EEPROM_LAYOUT_REVISION = 8					
                        54     ;		  Added Vdd Monitor as reset source when writing to "EEProm"
                        55     ;		  Changed for use of batch file to assemble, link and make hex files	
                        56     ; - Rev2.2: (minor changes by 4712)
                        57     ;           Added Disable Throttle Re-Arming every motor start by PC Setup Application 
                        58     ; - Rev2.3: (minor changes by 4712)
                        59     ;           Added bugfixed (2x CLR C before j(n)c operations)thx Steffen!			
                        60     ; - Rev2.4: Revisions 2.1 to 2.3 integrated
                        61     ; - Rev3.0: Added PPM (1050us-1866us) as accepted input signal
                        62     ;           Added startup rpm as a programming parameter
                        63     ;           Added startup acceleration as a programming parameter
                        64     ;           Added option for using voltage measurements to compensate motor power
                        65     ;           Added governor target by setup as a governor mode option
                        66     ;           Governor is kept active regardless of rpm
                        67     ;           Smooth governor spoolup/down in arm and setup modes
                        68     ;           Increased governor P and I gain programming ranges
                        69     ;           Increased and changed low voltage limit programming range
                        70     ;           Disabled tx programming entry for all but the first arming sequence after power on
                        71     ;           Made it possible to skip parameters in tx programming by setting throttle midstick
                        72     ;           Made it default not to rearm for every restart
                        73     ; - Rev3.1: Fixed bug that prevented chosen parameter to be set in tx programming
                        74     ; - Rev3.2: ...also updated the EEPROM revision parameter
                        75     ; - Rev3.3: Fixed negative number bug in voltage compensation
                        76     ;           Fixed bug in startup power calculation for non-default power
                        77     ;           Prevented possibility for voltage compensation fighting low voltage limiting
                        78     ;           Applied overall spoolup control to ensure soft spoolup in any mode
                        79     ;           Added a delay of 3 seconds from initiation of main motor stop until new startup is allowed
                        80     ;           Reduced beep power to reduce power consumption for very strong motors/ESCs
                        81     ; - Rev3.4: Fixed bug that prevented full power in governor arm and setup modes
                        82     ;           Increased NFETON_DELAY for XP_7A and XP_12A to allow for more powerful fets
                        83     ;           Increased initial spoolup power, and linked to startup power
                        84     ; - Rev4.0: Fixed bug that made tail tx program beeps very weak
                        85     ;           Added thermal protection feature
                        86     ;           Governor P and I gain ranges are extended up to 8.0x gain
                        87     ;           Startup sequence is aborted upon zero throttle
                        88     ;           Avoided voltage compensation function induced latency for tail when voltage compensation is not enabled
                        89     ;           Improved input signal frequency detection robustness
                        90     ; - Rev4.1: Increased thermal protection temperature limits
                        91     ; - Rev5.0: Added multi(copter) operating mode. TAIL define changed to MODE with three modes: MAIN, TAIL and MULTI
                        92     ;           Added programmable commutation timing
                        93     ;           Added a damped light mode that has less damping, but that can be used with all escs
                        94     ;           Added programmable damping force
                        95     ;           Added thermal protection for startup too
                        96     ;           Added wait beeps when waiting more than 30 sec for throttle above zero (after having been armed)
                        97     ;           Modified tail idling to provide option for very low speeds
                        98     ;           Changed PPM range to 1150-1830us
                        99     ;           Arming sequence is dropped for PPM input, unless it is governor arm mode
                       100     ;           Loss of input signal will immediately stop the motor for PPM input
                       101     ;           Bug corrected in Turnigy Plush 6A voltage measurement setup
                       102     ;           FET switching delays are set for original fets. Stronger/doubled/tripled etc fets may require faster pfet off switching
                       103     ;           Miscellaneous other changes
                       104     ; - Rev6.0: Reverted comparator reading routine to rev5.0 equivalent, in order to avoid tail motor stops
                       105     ;           Added governor range programmability
                       106     ;           Implemented startup retry sequence with varying startup power for multi mode
                       107     ;           In damped light mode, damping is now applied to the active nfet phase for fully damped capable ESCs
                       108     ; - Rev6.1: Added input signal qualification criteria for PPM, to avoid triggering on noise spikes (fix for plush hardware)
                       109     ;           Changed main and multi mode stop criteria. Will now be in run mode, even if RC pulse input is zero
                       110     ;           Fixed bug in commutation that caused rough running in damped light mode
                       111     ;           Miscellaneous other changes
                       112     ; - Rev7.0  Added direct startup mode programmability
                       113     ;           Added throttle calibration. Min>=1000us and Max<=2000us. Difference must be >520us, otherwise max is shifted so that difference=520us
                       114     ;           Added programmable throttle change rate
                       115     ;           Added programmable beep strength, beacon strength and beacon delay
                       116     ;           Reduced power step to full power significantly
                       117     ;           Miscellaneous other changes
                       118     ; - Rev8.0  Added a 2 second delay after power up, to wait for receiver initialization
                       119     ;           Added a programming option for disabling low voltage limit, and made it default for MULTI
                       120     ;           Added programable demag compensation, using the concept of SimonK
                       121     ;           Improved robustness against noisy input signal
                       122     ;           Refined direct startup
                       123     ;           Removed voltage compensation
                       124     ;           Miscellaneous other changes
                       125     ; - Rev9.0  Increased programming range for startup power, and made its default ESC dependent
                       126     ;           Made default startup method ESC dependent
                       127     ;           Even more smooth and gentle spoolup for MAIN, to suit larger helis
                       128     ;           Improved transition from stepped startup to run
                       129     ;           Refined direct startup
                       130     ; - Rev9.1  Fixed bug that changed FW revision after throttle calibration or TX programming
                       131     ; - Rev9.2  Altered timing of throttle calibration in order to work with MultiWii calibration firmware
                       132     ;           Reduced main spoolup time to around 5 seconds
                       133     ;           Changed default beacon delay to 3 minutes
                       134     ; - Rev9.3  Fixed bug in Plush 60/80A temperature reading, that caused failure in operation above 4S
                       135     ;           Corrected temperature limit for HiModel cool 22/33/41A, RCTimer 6A, Skywalker 20/40A, Turnigy AE45A, Plush 40/60/80A. Limit was previously set too high
                       136     ; - Rev9.4  Improved timing for increased maximum rpm limit
                       137     ; - Rev10.0 Added closed loop mode for multi
                       138     ;           Added high/low BEC voltage option (for the ESCs where HW supports it)
                       139     ;           Added method of resetting all programmed parameter values to defaults by TX programming
                       140     ;           Added Turnigy K-force 40A and Turnigy K-force 120A HV ESCs
                       141     ;           Enabled fully damped mode for several ESCs
                       142     ;           Extended startup power range downwards to enable very smooth start for large heli main motors
                       143     ;           Extended damping force with a highest setting
                       144     ;           Corrected temperature limits for F310 chips (Plush 40A and AE 45A)
                       145     ;           Implemented temperature reading average in order to avoid problems with ADC noise on Skywalkers
                       146     ;           Increased switching delays for XP 7A fast, in order to avoid cross conduction of N and P fets
                       147     ;           Miscellaneous other changes
                       148     ; - Rev10.1 Relaxed RC signal jitter requirement during frequency measurement
                       149     ;           Corrected bug that prevented using governor low
                       150     ;           Enabled vdd monitor always, in order to reduce likelihood of accidental overwriting of adjustments
                       151     ;           Fixed bug that caused stop for PPM input above 2048us, and moved upper accepted limit to 2160us
                       152     ; - Rev10.2 Corrected temperature limit for AE20-30/XP7-25, where limit was too high
                       153     ;           Corrected temperature limit for 120HV, where limit was too low
                       154     ;           Fixed bug that caused AE20/25/30A not to run in reverse
                       155     ; - Rev10.3 Removed vdd monitor for 1S capable ESCs, in order to avoid brownouts/resets
                       156     ;           Made auto bailout spoolup for main more smooth
                       157     ; - Rev10.4 Ensured that main spoolup and governor activation will always be smooth, regardless of throttle input
                       158     ;           Added capability to operate on 12kHz input signal too
                       159     ; - Rev11.0 Fixed bug of programming default values for governor in MULTI mode
                       160     ;           Disabled interrupts explicitly some places, to avoid possibilities for unintentional fet switching
                       161     ;           Changed interrupt disable strategy, to always allow pwm interrupts, to avoid noise when running at low rpms
                       162     ;           Added governor middle range for MAIN mode
                       163     ;           Added bidirectional mode for TAIL and MULTI mode with PPM input
                       164     ;           Changed and improved demag compensation
                       165     ;           Miscellaneous other changes
                       166     ; - Rev11.1 Fixed bug of slow acceleration response for MAIN mode running without governor
                       167     ;           Fixed bug with PWM input, where throttle remains high even when zeroing throttle (seen on V922 tail)
                       168     ;           Fixed bug in bidirectional operation, where direction change could cause reset
                       169     ;           Improved autorotation bailout for MAIN
                       170     ;           Reduced min speed back to 1220 erpm
                       171     ;           Misc code cleanups
                       172     ; - Rev11.2 Fixed throttle calibration bug
                       173     ;           Added high side driver precharge for all-nfet ESCs
                       174     ;           Optimized timing in general and for demag compensation in particular
                       175     ;           Auto bailout functionality modified
                       176     ;           Governor is deactivated for throttle inputs below 10%
                       177     ;           Increased beacon delay times
                       178     ; - Rev12.0 Added programmable main spoolup time
                       179     ;           Added programmable temperature protection enable
                       180     ;           Bidirectional mode stop/start improved. Motor is now stopped before starting
                       181     ;           Power is limited for very low rpms (when BEMF is low), in order to avoid sync loss 
                       182     ;           Damped light mode is made more smooth and quiet, particularly at low and high rpms
                       183     ;           Comparator signal qualification scheme is changed
                       184     ;           Demag compensation scheme is significantly changed
                       185     ;           Increased jitter tolerance for PPM frequency measurement
                       186     ;           Fully damped mode removed, and damped light only supported on damped capable ESCs
                       187     ;           Default tail mode changed to damped light
                       188     ;           Miscellaneous other changes
                       189     ; - Rev12.1 Fixed bug in tail code
                       190     ;           Improved startup for Atmel
                       191     ;           Added support for multiple high BEC voltages
                       192     ;           Added support for RPM output
                       193     ; - Rev12.2 Improved running smoothness, particularly for damped light
                       194     ;           Avoiding lockup at full throttle when input signal is noisy
                       195     ;           Avoiding detection of 1-wire programming signal as valid throttle signal
                       196     ; - Rev13.0 Removed stepped start
                       197     ;           Removed throttle change rate and damping force parameters
                       198     ;           Added support for OneShot125
                       199     ;           Improved commutation timing accuracy
                       200     ; - Rev13.1 Removed startup ramp for MULTI
                       201     ;           Improved startup for some odd ESCs
                       202     ; - Rev13.2 Still tweaking startup to make it more reliable and faster for all ESC/motor combos
                       203     ;           Increased deadband for bidirectional operation
                       204     ;           Relaxed signal detection criteria
                       205     ;           Added support for running 48MHz capable SiLabs MCUs at 48MHz
                       206     ;           Added bootlader to SiLabs code
                       207     ;           Miscellaneous other changes
                       208     ; - Rev14.0 Improved running at high timing
                       209     ;           Improved running at high RPMs and increased max RPM limit
                       210     ;           Avoid being locked in bootloader (implemented in Suite 13202)
                       211     ;           Improved reliability of 3D (bidirectional) mode and startup
                       212     ;           Smoother running and greatly reduced step to full power in damped light mode
                       213     ;           Removed low voltage limiting for MULTI
                       214     ;           Added pwm dither parameter
                       215     ;           Added setting for enable/disable of low RPM power protection
                       216     ;           Added setting for enable/disable of PWM input
                       217     ;           Better AFW and damping for some ESCs (that have a slow high side driver)
                       218     ;           Miscellaneous other changes
                       219     ; - Rev14.1 Fixed max throttle calibration bug (for non-oneshot)
                       220     ;           Fixed some closed loop mode bugs
                       221     ;           Relaxed signal jitter requirement for looptimes below 1000
                       222     ;           Added skipping of damping fet switching near max power, for improved high end throttle linearity, using the concept of SimonK
                       223     ;           Improved sync hold at high rpms
                       224     ; - Rev14.2 Added stalled motor shutoff after about 10 seconds (for tail and multi code with PPM input)
                       225     ;           Greatly increased maximum rpm limit, and added rpm limiting at 250k erpm (48MHz MCUs at 400k erpm)
                       226     ;           Improved bidirectional operation
                       227     ; - Rev14.3 Moved reset vector to be just before the settings segment, in order to better recover from partially failed flashing operation
                       228     ;           Added 100ms intialization delay for the Graupner Ultra 20A ESC
                       229     ;           Shortened stall detect time to about 5sec, and prevented going into tx programming after a stall
                       230     ;           Optimizations of software timing and running reliability
                       231     ;
                       232     ;           
                       233     ;
                       234     ;**** **** **** **** ****
                       235     ; Up to 8K Bytes of In-System Self-Programmable Flash
                       236     ; 768 Bytes Internal SRAM
                       237     ;
                       238     ;**** **** **** **** ****
                       239     ; Master clock is internal 24MHz oscillator
                       240     ; Timer 0 (167/500ns counts) always counts up and is used for
                       241     ; - PWM generation
                       242     ; Timer 1 (167/500ns counts) always counts up and is used for
                       243     ; - Time from pwm on/off event
                       244     ; Timer 2 (500ns counts) always counts up and is used for
                       245     ; - RC pulse timeout/skip counts and commutation times
                       246     ; Timer 3 (500ns counts) always counts up and is used for
                       247     ; - Commutation timeouts
                       248     ; PCA0 (500ns counts) always counts up and is used for
                       249     ; - RC pulse measurement
                       250     ;
                       251     ;**** **** **** **** ****
                       252     ; Interrupt handling
                       253     ; The F330 does not disable interrupts when entering an interrupt routine.
                       254     ; Also some interrupt flags need to be cleared by software
                       255     ; The code disables interrupts in interrupt routines, in order to avoid too nested interrupts
                       256     ; - Interrupts are disabled during beeps, to avoid audible interference from interrupts
                       257     ; - RC pulse interrupts are periodically disabled in order to reduce interference with pwm interrupts.
                       258     ;
                       259     ;**** **** **** **** ****
                       260     ; Motor control:
                       261     ; - Brushless motor control with 6 states for each electrical 360 degrees
                       262     ; - An advance timing of 0deg has zero cross 30deg after one commutation and 30deg before the next
                       263     ; - Timing advance in this implementation is set to 15deg nominally
                       264     ; - "Damped" commutation schemes are available, where more than one pfet is on when pwm is off. This will absorb energy from bemf and make step settling more damped.
                       265     ; Motor sequence starting from zero crossing:
                       266     ; - Timer wait: Wt_Comm			15deg	; Time to wait from zero cross to actual commutation
                       267     ; - Timer wait: Wt_Advance		15deg	; Time to wait for timing advance. Nominal commutation point is after this
                       268     ; - Timer wait: Wt_Zc_Scan		7.5deg	; Time to wait before looking for zero cross
                       269     ; - Scan for zero cross			22.5deg	, Nominal, with some motor variations
                       270     ;
                       271     ; Motor startup:
                       272     ; Startup is the only phase, before normal bemf commutation run begins.
                       273     ;
                       274     ;**** **** **** **** ****
                       275     ; List of enumerated supported ESCs and modes  (main, tail or multi)
  0001                 276     XP_3A_MAIN 					EQU 1
  0002                 277     XP_3A_TAIL 					EQU 2
  0003                 278     XP_3A_MULTI 					EQU 3
  0004                 279     XP_7A_MAIN 					EQU 4
  0005                 280     XP_7A_TAIL 					EQU 5
  0006                 281     XP_7A_MULTI 					EQU 6
  0007                 282     XP_7A_FAST_MAIN 				EQU 7
  0008                 283     XP_7A_FAST_TAIL 				EQU 8
  0009                 284     XP_7A_FAST_MULTI 				EQU 9
  000A                 285     XP_12A_MAIN 					EQU 10
  000B                 286     XP_12A_TAIL 					EQU 11
  000C                 287     XP_12A_MULTI 					EQU 12
  000D                 288     XP_18A_MAIN 					EQU 13
  000E                 289     XP_18A_TAIL 					EQU 14
  000F                 290     XP_18A_MULTI 					EQU 15
  0010                 291     XP_25A_MAIN 					EQU 16
  0011                 292     XP_25A_TAIL 					EQU 17
  0012                 293     XP_25A_MULTI 					EQU 18
  0013                 294     XP_35A_SW_MAIN 				EQU 19
  0014                 295     XP_35A_SW_TAIL 				EQU 20
  0015                 296     XP_35A_SW_MULTI 				EQU 21
  0016                 297     DP_3A_MAIN 					EQU 22
  0017                 298     DP_3A_TAIL  					EQU 23
  0018                 299     DP_3A_MULTI  					EQU 24
  0019                 300     SUPERMICRO_3P5A_MAIN 			EQU 25
  001A                 301     SUPERMICRO_3P5A_TAIL 			EQU 26   
  001B                 302     SUPERMICRO_3P5A_MULTI 			EQU 27   
  001C                 303     TURNIGY_PLUSH_6A_MAIN 			EQU 28
  001D                 304     TURNIGY_PLUSH_6A_TAIL 			EQU 29   
  001E                 305     TURNIGY_PLUSH_6A_MULTI 			EQU 30   
  001F                 306     TURNIGY_PLUSH_10A_MAIN 			EQU 31
  0020                 307     TURNIGY_PLUSH_10A_TAIL 			EQU 32   
  0021                 308     TURNIGY_PLUSH_10A_MULTI 			EQU 33   
  0022                 309     TURNIGY_PLUSH_12A_MAIN 			EQU 34
  0023                 310     TURNIGY_PLUSH_12A_TAIL 			EQU 35   
  0024                 311     TURNIGY_PLUSH_12A_MULTI 			EQU 36   
  0025                 312     TURNIGY_PLUSH_18A_MAIN 			EQU 37
  0026                 313     TURNIGY_PLUSH_18A_TAIL 			EQU 38   
  0027                 314     TURNIGY_PLUSH_18A_MULTI 			EQU 39   
  0028                 315     TURNIGY_PLUSH_25A_MAIN 			EQU 40
  0029                 316     TURNIGY_PLUSH_25A_TAIL 			EQU 41   
  002A                 317     TURNIGY_PLUSH_25A_MULTI 			EQU 42   
  002B                 318     TURNIGY_PLUSH_30A_MAIN 			EQU 43
  002C                 319     TURNIGY_PLUSH_30A_TAIL 			EQU 44   
  002D                 320     TURNIGY_PLUSH_30A_MULTI 			EQU 45   
  002E                 321     TURNIGY_PLUSH_40A_MAIN 			EQU 46
  002F                 322     TURNIGY_PLUSH_40A_TAIL 			EQU 47   
  0030                 323     TURNIGY_PLUSH_40A_MULTI 			EQU 48   
  0031                 324     TURNIGY_PLUSH_60A_MAIN 			EQU 49
  0032                 325     TURNIGY_PLUSH_60A_TAIL 			EQU 50   
  0033                 326     TURNIGY_PLUSH_60A_MULTI 			EQU 51   
  0034                 327     TURNIGY_PLUSH_80A_MAIN 			EQU 52
  0035                 328     TURNIGY_PLUSH_80A_TAIL 			EQU 53   
  0036                 329     TURNIGY_PLUSH_80A_MULTI 			EQU 54   
  0037                 330     TURNIGY_PLUSH_NFET_18A_MAIN 		EQU 55
  0038                 331     TURNIGY_PLUSH_NFET_18A_TAIL 		EQU 56   
  0039                 332     TURNIGY_PLUSH_NFET_18A_MULTI 		EQU 57   
  003A                 333     TURNIGY_PLUSH_NFET_25A_MAIN 		EQU 58
  003B                 334     TURNIGY_PLUSH_NFET_25A_TAIL 		EQU 59   
  003C                 335     TURNIGY_PLUSH_NFET_25A_MULTI 		EQU 60   
  003D                 336     TURNIGY_PLUSH_NFET_30A_MAIN 		EQU 61
  003E                 337     TURNIGY_PLUSH_NFET_30A_TAIL 		EQU 62   
  003F                 338     TURNIGY_PLUSH_NFET_30A_MULTI 		EQU 63   
  0040                 339     TURNIGY_AE_20A_MAIN 			EQU 64
  0041                 340     TURNIGY_AE_20A_TAIL 			EQU 65   
  0042                 341     TURNIGY_AE_20A_MULTI 			EQU 66   
  0043                 342     TURNIGY_AE_25A_MAIN 			EQU 67
  0044                 343     TURNIGY_AE_25A_TAIL 			EQU 68   
  0045                 344     TURNIGY_AE_25A_MULTI 			EQU 69   
  0046                 345     TURNIGY_AE_30A_MAIN 			EQU 70
  0047                 346     TURNIGY_AE_30A_TAIL 			EQU 71   
  0048                 347     TURNIGY_AE_30A_MULTI 			EQU 72   
  0049                 348     TURNIGY_AE_45A_MAIN 			EQU 73
  004A                 349     TURNIGY_AE_45A_TAIL 			EQU 74   
  004B                 350     TURNIGY_AE_45A_MULTI 			EQU 75   
  004C                 351     TURNIGY_KFORCE_40A_MAIN 			EQU 76   
  004D                 352     TURNIGY_KFORCE_40A_TAIL 			EQU 77   
  004E                 353     TURNIGY_KFORCE_40A_MULTI 		EQU 78   
  004F                 354     TURNIGY_KFORCE_70A_HV_MAIN 		EQU 79   
  0050                 355     TURNIGY_KFORCE_70A_HV_TAIL 		EQU 80   
  0051                 356     TURNIGY_KFORCE_70A_HV_MULTI 		EQU 81   
  0052                 357     TURNIGY_KFORCE_120A_HV_MAIN 		EQU 82   
  0053                 358     TURNIGY_KFORCE_120A_HV_TAIL 		EQU 83   
  0054                 359     TURNIGY_KFORCE_120A_HV_MULTI 		EQU 84   
  0055                 360     TURNIGY_KFORCE_120A_HV_V2_MAIN	EQU 85   
  0056                 361     TURNIGY_KFORCE_120A_HV_V2_TAIL 	EQU 86   
  0057                 362     TURNIGY_KFORCE_120A_HV_V2_MULTI 	EQU 87   
  0058                 363     SKYWALKER_20A_MAIN 				EQU 88
  0059                 364     SKYWALKER_20A_TAIL 				EQU 89   
  005A                 365     SKYWALKER_20A_MULTI 			EQU 90   
  005B                 366     SKYWALKER_40A_MAIN 				EQU 91
  005C                 367     SKYWALKER_40A_TAIL 				EQU 92   
  005D                 368     SKYWALKER_40A_MULTI 			EQU 93   
  005E                 369     HIMODEL_COOL_22A_MAIN 			EQU 94
  005F                 370     HIMODEL_COOL_22A_TAIL 			EQU 95   
  0060                 371     HIMODEL_COOL_22A_MULTI 			EQU 96   
  0061                 372     HIMODEL_COOL_33A_MAIN 			EQU 97
  0062                 373     HIMODEL_COOL_33A_TAIL 			EQU 98   
  0063                 374     HIMODEL_COOL_33A_MULTI 			EQU 99  
  0064                 375     HIMODEL_COOL_41A_MAIN 			EQU 100
  0065                 376     HIMODEL_COOL_41A_TAIL 			EQU 101  
  0066                 377     HIMODEL_COOL_41A_MULTI 			EQU 102  
  0067                 378     RCTIMER_6A_MAIN 				EQU 103   
  0068                 379     RCTIMER_6A_TAIL 				EQU 104  
  0069                 380     RCTIMER_6A_MULTI 				EQU 105  
  006A                 381     ALIGN_RCE_BL15X_MAIN			EQU 106   
  006B                 382     ALIGN_RCE_BL15X_TAIL 			EQU 107  
  006C                 383     ALIGN_RCE_BL15X_MULTI 			EQU 108  
  006D                 384     ALIGN_RCE_BL15P_MAIN			EQU 109  
  006E                 385     ALIGN_RCE_BL15P_TAIL 			EQU 110  
  006F                 386     ALIGN_RCE_BL15P_MULTI 			EQU 111  
  0070                 387     ALIGN_RCE_BL35X_MAIN			EQU 112  
  0071                 388     ALIGN_RCE_BL35X_TAIL 			EQU 113  
  0072                 389     ALIGN_RCE_BL35X_MULTI 			EQU 114  
  0073                 390     ALIGN_RCE_BL35P_MAIN			EQU 115   
  0074                 391     ALIGN_RCE_BL35P_TAIL 			EQU 116  
  0075                 392     ALIGN_RCE_BL35P_MULTI 			EQU 117  
  0076                 393     GAUI_GE_183_18A_MAIN			EQU 118   
  0077                 394     GAUI_GE_183_18A_TAIL 			EQU 119  
  0078                 395     GAUI_GE_183_18A_MULTI 			EQU 120  
  0079                 396     H_KING_10A_MAIN				EQU 121   
  007A                 397     H_KING_10A_TAIL 				EQU 122  
  007B                 398     H_KING_10A_MULTI 				EQU 123  
  007C                 399     H_KING_20A_MAIN				EQU 124   
  007D                 400     H_KING_20A_TAIL 				EQU 125  
  007E                 401     H_KING_20A_MULTI 				EQU 126  
  007F                 402     H_KING_35A_MAIN				EQU 127   
  0080                 403     H_KING_35A_TAIL 				EQU 128 
  0081                 404     H_KING_35A_MULTI 				EQU 129  
  0082                 405     H_KING_50A_MAIN				EQU 130   
  0083                 406     H_KING_50A_TAIL 				EQU 131  
  0084                 407     H_KING_50A_MULTI 				EQU 132  
  0085                 408     POLARIS_THUNDER_12A_MAIN			EQU 133   
  0086                 409     POLARIS_THUNDER_12A_TAIL 		EQU 134  
  0087                 410     POLARIS_THUNDER_12A_MULTI 		EQU 135  
  0088                 411     POLARIS_THUNDER_20A_MAIN			EQU 136   
  0089                 412     POLARIS_THUNDER_20A_TAIL 		EQU 137  
  008A                 413     POLARIS_THUNDER_20A_MULTI 		EQU 138  
  008B                 414     POLARIS_THUNDER_30A_MAIN			EQU 139   
  008C                 415     POLARIS_THUNDER_30A_TAIL 		EQU 140  
  008D                 416     POLARIS_THUNDER_30A_MULTI 		EQU 141  
  008E                 417     POLARIS_THUNDER_40A_MAIN			EQU 142   
  008F                 418     POLARIS_THUNDER_40A_TAIL 		EQU 143  
  0090                 419     POLARIS_THUNDER_40A_MULTI 		EQU 144  
  0091                 420     POLARIS_THUNDER_60A_MAIN			EQU 145   
  0092                 421     POLARIS_THUNDER_60A_TAIL 		EQU 146  
  0093                 422     POLARIS_THUNDER_60A_MULTI 		EQU 147  
  0094                 423     POLARIS_THUNDER_80A_MAIN			EQU 148   
  0095                 424     POLARIS_THUNDER_80A_TAIL 		EQU 149  
  0096                 425     POLARIS_THUNDER_80A_MULTI 		EQU 150  
  0097                 426     POLARIS_THUNDER_100A_MAIN		EQU 151   
  0098                 427     POLARIS_THUNDER_100A_TAIL 		EQU 152  
  0099                 428     POLARIS_THUNDER_100A_MULTI 		EQU 153  
  009A                 429     PLATINUM_PRO_30A_MAIN			EQU 154   
  009B                 430     PLATINUM_PRO_30A_TAIL 			EQU 155  
  009C                 431     PLATINUM_PRO_30A_MULTI 			EQU 156  
  009D                 432     PLATINUM_PRO_150A_MAIN			EQU 157   
  009E                 433     PLATINUM_PRO_150A_TAIL 			EQU 158  
  009F                 434     PLATINUM_PRO_150A_MULTI 			EQU 159  
  00A0                 435     PLATINUM_50AV3_MAIN				EQU 160   
  00A1                 436     PLATINUM_50AV3_TAIL 			EQU 161  
  00A2                 437     PLATINUM_50AV3_MULTI 			EQU 162  
  00A3                 438     EAZY_3AV2_MAIN					EQU 163   
  00A4                 439     EAZY_3AV2_TAIL 				EQU 164  
  00A5                 440     EAZY_3AV2_MULTI 				EQU 165  
  00A6                 441     TAROT_30A_MAIN					EQU 166   
  00A7                 442     TAROT_30A_TAIL 				EQU 167  
  00A8                 443     TAROT_30A_MULTI 				EQU 168  
  00A9                 444     SKYIII_30A_MAIN				EQU 169   
  00AA                 445     SKYIII_30A_TAIL 				EQU 170  
  00AB                 446     SKYIII_30A_MULTI 				EQU 171  
  00AC                 447     EMAX_20A_MAIN					EQU 172   
  00AD                 448     EMAX_20A_TAIL 					EQU 173  
  00AE                 449     EMAX_20A_MULTI 				EQU 174  
  00AF                 450     EMAX_40A_MAIN					EQU 175   
  00B0                 451     EMAX_40A_TAIL 					EQU 176  
  00B1                 452     EMAX_40A_MULTI 				EQU 177  
  00B2                 453     EMAX_NANO_20A_MAIN				EQU 178   
  00B3                 454     EMAX_NANO_20A_TAIL 				EQU 179  
  00B4                 455     EMAX_NANO_20A_MULTI 			EQU 180  
  00B5                 456     XROTOR_10A_MAIN				EQU 181   
  00B6                 457     XROTOR_10A_TAIL 				EQU 182  
  00B7                 458     XROTOR_10A_MULTI 				EQU 183  
  00B8                 459     XROTOR_20A_MAIN				EQU 184   
  00B9                 460     XROTOR_20A_TAIL 				EQU 185  
  00BA                 461     XROTOR_20A_MULTI 				EQU 186  
  00BB                 462     XROTOR_40A_MAIN				EQU 187   
  00BC                 463     XROTOR_40A_TAIL 				EQU 188  
  00BD                 464     XROTOR_40A_MULTI 				EQU 189  
  00BE                 465     MDRX62H_MAIN					EQU 190   
  00BF                 466     MDRX62H_TAIL 					EQU 191  
  00C0                 467     MDRX62H_MULTI 					EQU 192  
  00C1                 468     ROTORGEEKS_20A_MAIN				EQU 193   
  00C2                 469     ROTORGEEKS_20A_TAIL 			EQU 194  
  00C3                 470     ROTORGEEKS_20A_MULTI 			EQU 195  
  00C4                 471     FLYCOLOR_FAIRY_6A_MAIN			EQU 196   
  00C5                 472     FLYCOLOR_FAIRY_6A_TAIL 			EQU 197  
  00C6                 473     FLYCOLOR_FAIRY_6A_MULTI 			EQU 198  
  00C7                 474     FLYCOLOR_FAIRY_30A_MAIN			EQU 199   
  00C8                 475     FLYCOLOR_FAIRY_30A_TAIL 			EQU 200  
  00C9                 476     FLYCOLOR_FAIRY_30A_MULTI 		EQU 201  
  00CA                 477     FVT_LITTLEBEE_20A_MAIN			EQU 202  
  00CB                 478     FVT_LITTLEBEE_20A_TAIL			EQU 203  
  00CC                 479     FVT_LITTLEBEE_20A_MULTI			EQU 204  
  00CD                 480     FVT_LITTLEBEE_30A_MAIN			EQU 205  
  00CE                 481     FVT_LITTLEBEE_30A_TAIL			EQU 206  
  00CF                 482     FVT_LITTLEBEE_30A_MULTI			EQU 207  
  00D0                 483     GRAUPNER_ULTRA_20A_MAIN			EQU 208  
  00D1                 484     GRAUPNER_ULTRA_20A_TAIL			EQU 209  
  00D2                 485     GRAUPNER_ULTRA_20A_MULTI			EQU 210  
  00D3                 486     F85_3A_MAIN					EQU 211  
  00D4                 487     F85_3A_TAIL					EQU 212  
  00D5                 488     F85_3A_MULTI					EQU 213  
  00D6                 489     ZTW_SPIDER_PRO_20A_MAIN			EQU 214  
  00D7                 490     ZTW_SPIDER_PRO_20A_TAIL			EQU 215  
  00D8                 491     ZTW_SPIDER_PRO_20A_MULTI			EQU 216  
                       492     
                       493     
                       494     ;**** **** **** **** ****
                       495     ; Select the ESC and mode to use (or unselect all for use with external batch compile file)
                       496     ;BESCNO EQU XP_3A_Main 
                       497     ;BESCNO EQU XP_3A_Tail
                       498     ;BESCNO EQU XP_3A_Multi
                       499     ;BESCNO EQU XP_7A_Main
                       500     ;BESCNO EQU XP_7A_Tail
                       501     ;BESCNO EQU XP_7A_Multi
                       502     ;BESCNO EQU XP_7A_Fast_Main
                       503     ;BESCNO EQU XP_7A_Fast_Tail
                       504     ;BESCNO EQU XP_7A_Fast_Multi
                       505     ;BESCNO EQU XP_12A_Main
                       506     ;BESCNO EQU XP_12A_Tail 
                       507     ;BESCNO EQU XP_12A_Multi
                       508     ;BESCNO EQU XP_18A_Main 
                       509     ;BESCNO EQU XP_18A_Tail 
                       510     ;BESCNO EQU XP_18A_Multi
                       511     ;BESCNO EQU XP_25A_Main 
                       512     ;BESCNO EQU XP_25A_Tail 
                       513     ;BESCNO EQU XP_25A_Multi
                       514     ;BESCNO EQU XP_35A_SW_Main
                       515     ;BESCNO EQU XP_35A_SW_Tail 
                       516     ;BESCNO EQU XP_35A_SW_Multi
                       517     ;BESCNO EQU DP_3A_Main 						
                       518     ;BESCNO EQU DP_3A_Tail 
                       519     ;BESCNO EQU DP_3A_Multi 
                       520     ;BESCNO EQU Supermicro_3p5A_Main
                       521     ;BESCNO EQU Supermicro_3p5A_Tail 
                       522     ;BESCNO EQU Supermicro_3p5A_Multi
                       523     ;BESCNO EQU Turnigy_Plush_6A_Main 
                       524     ;BESCNO EQU Turnigy_Plush_6A_Tail 
                       525     ;BESCNO EQU Turnigy_Plush_6A_Multi
                       526     ;BESCNO EQU Turnigy_Plush_10A_Main 
                       527     ;BESCNO EQU Turnigy_Plush_10A_Tail 
                       528     ;BESCNO EQU Turnigy_Plush_10A_Multi
                       529     ;BESCNO EQU Turnigy_Plush_12A_Main 
                       530     ;BESCNO EQU Turnigy_Plush_12A_Tail 
                       531     ;BESCNO EQU Turnigy_Plush_12A_Multi 
                       532     ;BESCNO EQU Turnigy_Plush_18A_Main 
                       533     ;BESCNO EQU Turnigy_Plush_18A_Tail 
                       534     ;BESCNO EQU Turnigy_Plush_18A_Multi
                       535     ;BESCNO EQU Turnigy_Plush_25A_Main 
                       536     ;BESCNO EQU Turnigy_Plush_25A_Tail
                       537     ;BESCNO EQU Turnigy_Plush_25A_Multi
                       538     ;BESCNO EQU Turnigy_Plush_30A_Main 
                       539     ;BESCNO EQU Turnigy_Plush_30A_Tail 
                       540     ;BESCNO EQU Turnigy_Plush_30A_Multi
                       541     ;BESCNO EQU Turnigy_Plush_40A_Main 
                       542     ;BESCNO EQU Turnigy_Plush_40A_Tail 
                       543     ;BESCNO EQU Turnigy_Plush_40A_Multi 
                       544     ;BESCNO EQU Turnigy_Plush_60A_Main
                       545     ;BESCNO EQU Turnigy_Plush_60A_Tail 
                       546     ;BESCNO EQU Turnigy_Plush_60A_Multi
                       547     ;BESCNO EQU Turnigy_Plush_80A_Main
                       548     ;BESCNO EQU Turnigy_Plush_80A_Tail 
                       549     ;BESCNO EQU Turnigy_Plush_80A_Multi
                       550     ;BESCNO EQU Turnigy_Plush_Nfet_18A_Main
                       551     ;BESCNO EQU Turnigy_Plush_Nfet_18A_Tail 
                       552     ;BESCNO EQU Turnigy_Plush_Nfet_18A_Multi 
                       553     ;BESCNO EQU Turnigy_Plush_Nfet_25A_Main 
                       554     ;BESCNO EQU Turnigy_Plush_Nfet_25A_Tail
                       555     ;BESCNO EQU Turnigy_Plush_Nfet_25A_Multi
                       556     ;BESCNO EQU Turnigy_Plush_Nfet_30A_Main  
                       557     ;BESCNO EQU Turnigy_Plush_Nfet_30A_Tail 
                       558     ;BESCNO EQU Turnigy_Plush_Nfet_30A_Multi
                       559     ;BESCNO EQU Turnigy_AE_20A_Main 
                       560     ;BESCNO EQU Turnigy_AE_20A_Tail 
                       561     ;BESCNO EQU Turnigy_AE_20A_Multi
                       562     ;BESCNO EQU Turnigy_AE_25A_Main 
                       563     ;BESCNO EQU Turnigy_AE_25A_Tail 
                       564     ;BESCNO EQU Turnigy_AE_25A_Multi
                       565     ;BESCNO EQU Turnigy_AE_30A_Main 
                       566     ;BESCNO EQU Turnigy_AE_30A_Tail 
                       567     ;BESCNO EQU Turnigy_AE_30A_Multi
                       568     ;BESCNO EQU Turnigy_AE_45A_Main
                       569     ;BESCNO EQU Turnigy_AE_45A_Tail 
                       570     ;BESCNO EQU Turnigy_AE_45A_Multi
                       571     ;BESCNO EQU Turnigy_KForce_40A_Main
                       572     ;BESCNO EQU Turnigy_KForce_40A_Tail 
                       573     ;BESCNO EQU Turnigy_KForce_40A_Multi 
                       574     ;BESCNO EQU Turnigy_KForce_70A_HV_Main
                       575     ;BESCNO EQU Turnigy_KForce_70A_HV_Tail 
                       576     ;BESCNO EQU Turnigy_KForce_70A_HV_Multi
                       577     ;BESCNO EQU Turnigy_KForce_120A_HV_Main
                       578     ;BESCNO EQU Turnigy_KForce_120A_HV_Tail 
                       579     ;BESCNO EQU Turnigy_KForce_120A_HV_Multi
                       580     ;BESCNO EQU Turnigy_KForce_120A_HV_v2_Main
                       581     ;BESCNO EQU Turnigy_KForce_120A_HV_v2_Tail 
                       582     ;BESCNO EQU Turnigy_KForce_120A_HV_v2_Multi
                       583     ;BESCNO EQU Skywalker_20A_Main
                       584     ;BESCNO EQU Skywalker_20A_Tail
                       585     ;BESCNO EQU Skywalker_20A_Multi 
                       586     ;BESCNO EQU Skywalker_40A_Main 
                       587     ;BESCNO EQU Skywalker_40A_Tail 
                       588     ;BESCNO EQU Skywalker_40A_Multi
                       589     ;BESCNO EQU HiModel_Cool_22A_Main
                       590     ;BESCNO EQU HiModel_Cool_22A_Tail
                       591     ;BESCNO EQU HiModel_Cool_22A_Multi
                       592     ;BESCNO EQU HiModel_Cool_33A_Main
                       593     ;BESCNO EQU HiModel_Cool_33A_Tail
                       594     ;BESCNO EQU HiModel_Cool_33A_Multi
                       595     ;BESCNO EQU HiModel_Cool_41A_Main
                       596     ;BESCNO EQU HiModel_Cool_41A_Tail
                       597     ;BESCNO EQU HiModel_Cool_41A_Multi
                       598     ;BESCNO EQU RCTimer_6A_Main
                       599     ;BESCNO EQU RCTimer_6A_Tail
                       600     ;BESCNO EQU RCTimer_6A_Multi
                       601     ;BESCNO EQU Align_RCE_BL15X_Main
                       602     ;BESCNO EQU Align_RCE_BL15X_Tail
                       603     ;BESCNO EQU Align_RCE_BL15X_Multi
                       604     ;BESCNO EQU Align_RCE_BL15P_Main
                       605     ;BESCNO EQU Align_RCE_BL15P_Tail
                       606     ;BESCNO EQU Align_RCE_BL15P_Multi 
                       607     ;BESCNO EQU Align_RCE_BL35X_Main 
                       608     ;BESCNO EQU Align_RCE_BL35X_Tail
                       609     ;BESCNO EQU Align_RCE_BL35X_Multi
                       610     ;BESCNO EQU Align_RCE_BL35P_Main
                       611     ;BESCNO EQU Align_RCE_BL35P_Tail
                       612     ;BESCNO EQU Align_RCE_BL35P_Multi
                       613     ;BESCNO EQU Gaui_GE_183_18A_Main
                       614     ;BESCNO EQU Gaui_GE_183_18A_Tail
                       615     ;BESCNO EQU Gaui_GE_183_18A_Multi
                       616     ;BESCNO EQU H_King_10A_Main 
                       617     ;BESCNO EQU H_King_10A_Tail 
                       618     ;BESCNO EQU H_King_10A_Multi
                       619     ;BESCNO EQU H_King_20A_Main
                       620     ;BESCNO EQU H_King_20A_Tail
                       621     ;BESCNO EQU H_King_20A_Multi
                       622     ;BESCNO EQU H_King_35A_Main
                       623     ;BESCNO EQU H_King_35A_Tail
                       624     ;BESCNO EQU H_King_35A_Multi
                       625     ;BESCNO EQU H_King_50A_Main
                       626     ;BESCNO EQU H_King_50A_Tail
                       627     ;BESCNO EQU H_King_50A_Multi
                       628     ;BESCNO EQU Polaris_Thunder_12A_Main
                       629     ;BESCNO EQU Polaris_Thunder_12A_Tail
                       630     ;BESCNO EQU Polaris_Thunder_12A_Multi
                       631     ;BESCNO EQU Polaris_Thunder_20A_Main
                       632     ;BESCNO EQU Polaris_Thunder_20A_Tail
                       633     ;BESCNO EQU Polaris_Thunder_20A_Multi
                       634     ;BESCNO EQU Polaris_Thunder_30A_Main
                       635     ;BESCNO EQU Polaris_Thunder_30A_Tail
                       636     ;BESCNO EQU Polaris_Thunder_30A_Multi
                       637     ;BESCNO EQU Polaris_Thunder_40A_Main
                       638     ;BESCNO EQU Polaris_Thunder_40A_Tail
                       639     ;BESCNO EQU Polaris_Thunder_40A_Multi
                       640     ;BESCNO EQU Polaris_Thunder_60A_Main
                       641     ;BESCNO EQU Polaris_Thunder_60A_Tail
                       642     ;BESCNO EQU Polaris_Thunder_60A_Multi
                       643     ;BESCNO EQU Polaris_Thunder_80A_Main
                       644     ;BESCNO EQU Polaris_Thunder_80A_Tail
                       645     ;BESCNO EQU Polaris_Thunder_80A_Multi
                       646     ;BESCNO EQU Polaris_Thunder_100A_Main
                       647     ;BESCNO EQU Polaris_Thunder_100A_Tail
                       648     ;BESCNO EQU Polaris_Thunder_100A_Multi
                       649     ;BESCNO EQU Platinum_Pro_30A_Main
                       650     ;BESCNO EQU Platinum_Pro_30A_Tail
                       651     ;BESCNO EQU Platinum_Pro_30A_Multi 
                       652     ;BESCNO EQU Platinum_Pro_150A_Main
                       653     ;BESCNO EQU Platinum_Pro_150A_Tail
                       654     ;BESCNO EQU Platinum_Pro_150A_Multi
                       655     ;BESCNO EQU Platinum_50Av3_Main
                       656     ;BESCNO EQU Platinum_50Av3_Tail
                       657     ;BESCNO EQU Platinum_50Av3_Multi 
                       658     ;BESCNO EQU EAZY_3Av2_Main
                       659     ;BESCNO EQU EAZY_3Av2_Tail
                       660     ;BESCNO EQU EAZY_3Av2_Multi
                       661     ;BESCNO EQU Tarot_30A_Main
                       662     ;BESCNO EQU Tarot_30A_Tail
                       663     ;BESCNO EQU Tarot_30A_Multi
                       664     ;BESCNO EQU SkyIII_30A_Main
                       665     ;BESCNO EQU SkyIII_30A_Tail
                       666     ;BESCNO EQU SkyIII_30A_Multi
                       667     ;BESCNO EQU EMAX_20A_Main
                       668     ;BESCNO EQU EMAX_20A_Tail
                       669     ;BESCNO EQU EMAX_20A_Multi 
                       670     ;BESCNO EQU EMAX_40A_Main
                       671     ;BESCNO EQU EMAX_40A_Tail
                       672     ;BESCNO EQU EMAX_40A_Multi 
                       673     ;BESCNO EQU EMAX_Nano_20A_Main
                       674     ;BESCNO EQU EMAX_Nano_20A_Tail
                       675     ;BESCNO EQU EMAX_Nano_20A_Multi 
                       676     ;BESCNO EQU XRotor_10A_Main 
                       677     ;BESCNO EQU XRotor_10A_Tail
                       678     ;BESCNO EQU XRotor_10A_Multi 
                       679     ;BESCNO EQU XRotor_20A_Main
                       680     ;BESCNO EQU XRotor_20A_Tail
                       681     ;BESCNO EQU XRotor_20A_Multi 
                       682     ;BESCNO EQU XRotor_40A_Main
                       683     ;BESCNO EQU XRotor_40A_Tail
                       684     ;BESCNO EQU XRotor_40A_Multi 
                       685     ;BESCNO EQU MDRX62H_Main
                       686     ;BESCNO EQU MDRX62H_Tail
                       687     ;BESCNO EQU MDRX62H_Multi 
                       688     ;BESCNO EQU RotorGeeks_20A_Main
                       689     ;BESCNO EQU RotorGeeks_20A_Tail
                       690     ;BESCNO EQU RotorGeeks_20A_Multi
                       691     ;BESCNO EQU Flycolor_Fairy_6A_Main
                       692     ;BESCNO EQU Flycolor_Fairy_6A_Tail
                       693     ;BESCNO EQU Flycolor_Fairy_6A_Multi
                       694     ;BESCNO EQU Flycolor_Fairy_30A_Main
                       695     ;BESCNO EQU Flycolor_Fairy_30A_Tail
                       696     ;BESCNO EQU Flycolor_Fairy_30A_Multi
                       697     ;BESCNO EQU FVT_Littlebee_20A_Main
                       698     ;BESCNO EQU FVT_Littlebee_20A_Tail
                       699     ;BESCNO EQU FVT_Littlebee_20A_Multi 
                       700     ;BESCNO EQU FVT_Littlebee_30A_Main
                       701     ;BESCNO EQU FVT_Littlebee_30A_Tail
                       702     ;BESCNO EQU FVT_Littlebee_30A_Multi 
                       703     ;BESCNO EQU Graupner_Ultra_20A_Main
                       704     ;BESCNO EQU Graupner_Ultra_20A_Tail
                       705     ;BESCNO EQU Graupner_Ultra_20A_Multi 
                       706     ;BESCNO EQU F85_3A_Main
                       707     ;BESCNO EQU F85_3A_Tail
                       708     ;BESCNO EQU F85_3A_Multi
                       709     ;BESCNO EQU ZTW_Spider_Pro_20A_Main
                       710     ;BESCNO EQU ZTW_Spider_Pro_20A_Tail
                       711     ;BESCNO EQU ZTW_Spider_Pro_20A_Multi
                       712     
                       713     
                       714     ;**** **** **** **** ****
                       715     ; ESC selection statements
                       716     IF BESCNO == XP_3A_MAIN
                               MODE 	EQU 	0				; Choose mode. Set to 0 for main motor
                               $INCLUDE (XP_3A.INC)			; Select XP 3A pinout
                               ENDIF
                       720     
                       721     IF BESCNO == XP_3A_TAIL
                               MODE 	EQU 	1				; Choose mode. Set to 1 for tail motor
                               $INCLUDE (XP_3A.INC)			; Select XP 3A pinout
                               ENDIF
                       725     
                       726     IF BESCNO == XP_3A_MULTI
                               MODE 	EQU 	2				; Choose mode. Set to 2 for multirotor
                               $INCLUDE (XP_3A.INC)			; Select XP 3A pinout
                               ENDIF
                       730     
                       731     IF BESCNO == XP_7A_MAIN
                               MODE 	EQU 	0				; Choose mode. Set to 0 for main motor
                               $INCLUDE (XP_7A.INC)			; Select XP 7A pinout
                               ENDIF
                       735     
                       736     IF BESCNO == XP_7A_TAIL
                               MODE 	EQU 	1				; Choose mode. Set to 1 for tail motor
                               $INCLUDE (XP_7A.INC)			; Select XP 7A pinout
                               ENDIF
                       740     
                       741     IF BESCNO == XP_7A_MULTI
                               MODE 	EQU 	2				; Choose mode. Set to 2 for multirotor
                               $INCLUDE (XP_7A.INC)			; Select XP 7A pinout
                               ENDIF
                       745     
                       746     IF BESCNO == XP_7A_FAST_MAIN
                               MODE 	EQU 	0				; Choose mode. Set to 0 for main motor
                               $INCLUDE (XP_7A_FAST.INC)		; Select XP 7A Fast pinout
                               ENDIF
                       750     
                       751     IF BESCNO == XP_7A_FAST_TAIL
                               MODE 	EQU 	1				; Choose mode. Set to 1 for tail motor
                               $INCLUDE (XP_7A_FAST.INC)		; Select XP 7A Fast pinout
                               ENDIF
                       755     
                       756     IF BESCNO == XP_7A_FAST_MULTI
                               MODE 	EQU 	2				; Choose mode. Set to 2 for multirotor
                               $INCLUDE (XP_7A_FAST.INC)		; Select XP 7A Fast pinout
                               ENDIF
                       760     
                       761     IF BESCNO == XP_12A_MAIN
                               MODE 	EQU 	0				; Choose mode. Set to 0 for main motor
                               $INCLUDE (XP_12A.INC)			; Select XP 12A pinout
                               ENDIF
                       765     
                       766     IF BESCNO == XP_12A_TAIL
                               MODE 	EQU 	1				; Choose mode. Set to 1 for tail motor
                               $INCLUDE (XP_12A.INC)			; Select XP 12A pinout
                               ENDIF
                       770     
                       771     IF BESCNO == XP_12A_MULTI
                               MODE 	EQU 	2				; Choose mode. Set to 2 for multirotor
                               $INCLUDE (XP_12A.INC)			; Select XP 12A pinout
                               ENDIF
                       775     
                       776     IF BESCNO == XP_18A_MAIN
                               MODE 	EQU 	0				; Choose mode. Set to 0 for main motor
                               $INCLUDE (XP_18A.INC)			; Select XP 18A pinout
                               ENDIF
                       780     
                       781     IF BESCNO == XP_18A_TAIL
                               MODE 	EQU 	1				; Choose mode. Set to 1 for tail motor
                               $INCLUDE (XP_18A.INC)			; Select XP 18A pinout
                               ENDIF
                       785     
                       786     IF BESCNO == XP_18A_MULTI
                               MODE 	EQU 	2				; Choose mode. Set to 2 for multirotor
                               $INCLUDE (XP_18A.INC)			; Select XP 18A pinout
                               ENDIF
                       790     
                       791     IF BESCNO == XP_25A_MAIN
                               MODE 	EQU 	0				; Choose mode. Set to 0 for main motor
                               $INCLUDE (XP_25A.INC)			; Select XP 25A pinout
                               ENDIF
                       795     
                       796     IF BESCNO == XP_25A_TAIL
                               MODE 	EQU 	1				; Choose mode. Set to 1 for tail motor
                               $INCLUDE (XP_25A.INC)			; Select XP 25A pinout
                               ENDIF
                       800     
                       801     IF BESCNO == XP_25A_MULTI
                               MODE 	EQU 	2				; Choose mode. Set to 2 for multirotor
                               $INCLUDE (XP_25A.INC)			; Select XP 25A pinout
                               ENDIF
                       805     
                       806     IF BESCNO == XP_35A_SW_MAIN
                               MODE 	EQU 	0				; Choose mode. Set to 0 for main motor
                               $INCLUDE (XP_35A_SW.INC)			; Select XP 35A SW pinout
                               ENDIF
                       810     
                       811     IF BESCNO == XP_35A_SW_TAIL
                               MODE 	EQU 	1				; Choose mode. Set to 1 for tail motor
                               $INCLUDE (XP_35A_SW.INC)			; Select XP 35A SW pinout
                               ENDIF
                       815     
                       816     IF BESCNO == XP_35A_SW_MULTI
                               MODE 	EQU 	2				; Choose mode. Set to 2 for multirotor
                               $INCLUDE (XP_35A_SW.INC)			; Select XP 35A SW pinout
                               ENDIF
                       820     
                       821     IF BESCNO == DP_3A_MAIN
                               MODE 	EQU 	0				; Choose mode. Set to 0 for main motor
                               $INCLUDE (DP_3A.INC)			; Select DP 3A pinout
                               ENDIF
                       825     
                       826     IF BESCNO == DP_3A_TAIL
                               MODE 	EQU 	1				; Choose mode. Set to 1 for tail motor
                               $INCLUDE (DP_3A.INC)			; Select DP 3A pinout
                               ENDIF
                       830     
                       831     IF BESCNO == DP_3A_MULTI
                               MODE 	EQU 	2				; Choose mode. Set to 2 for multirotor
                               $INCLUDE (DP_3A.INC)			; Select DP 3A pinout
                               ENDIF
                       835     
                       836     IF BESCNO == SUPERMICRO_3P5A_MAIN
                               MODE 	EQU 	0				; Choose mode. Set to 0 for main motor
                               $INCLUDE (SUPERMICRO_3P5A.INC)	; Select Supermicro 3.5A pinout
                               ENDIF
                       840     
                       841     IF BESCNO == SUPERMICRO_3P5A_TAIL
                               MODE 	EQU 	1				; Choose mode. Set to 1 for tail motor
                               $INCLUDE (SUPERMICRO_3P5A.INC)	; Select Supermicro 3.5A pinout
                               ENDIF
                       845     
                       846     IF BESCNO == SUPERMICRO_3P5A_MULTI
                               MODE 	EQU 	2				; Choose mode. Set to 2 for multirotor
                               $INCLUDE (SUPERMICRO_3P5A.INC)	; Select Supermicro 3.5A pinout
                               ENDIF
                       850     
                       851     IF BESCNO == TURNIGY_PLUSH_6A_MAIN
                               MODE 	EQU 	0				; Choose mode. Set to 0 for main motor
                               $INCLUDE (TURNIGY_PLUSH_6A.INC)	; Select Turnigy Plush 6A pinout
                               ENDIF
                       855     
                       856     IF BESCNO == TURNIGY_PLUSH_6A_TAIL
                               MODE 	EQU 	1				; Choose mode. Set to 1 for tail motor
                               $INCLUDE (TURNIGY_PLUSH_6A.INC)	; Select Turnigy Plush 6A pinout
                               ENDIF
                       860     
                       861     IF BESCNO == TURNIGY_PLUSH_6A_MULTI
                               MODE 	EQU 	2				; Choose mode. Set to 2 for multirotor
                               $INCLUDE (TURNIGY_PLUSH_6A.INC)	; Select Turnigy Plush 6A pinout
                               ENDIF
                       865     
                       866     IF BESCNO == TURNIGY_PLUSH_10A_MAIN
                               MODE 	EQU 	0				; Choose mode. Set to 0 for main motor
                               $INCLUDE (TURNIGY_PLUSH_10A.INC)	; Select Turnigy Plush 10A pinout
                               ENDIF
                       870     
                       871     IF BESCNO == TURNIGY_PLUSH_10A_TAIL
                               MODE 	EQU 	1				; Choose mode. Set to 1 for tail motor
                               $INCLUDE (TURNIGY_PLUSH_10A.INC)	; Select Turnigy Plush 10A pinout
                               ENDIF
                       875     
                       876     IF BESCNO == TURNIGY_PLUSH_10A_MULTI
                               MODE 	EQU 	2				; Choose mode. Set to 2 for multirotor
                               $INCLUDE (TURNIGY_PLUSH_10A.INC)	; Select Turnigy Plush 10A pinout
                               ENDIF
                       880     
                       881     IF BESCNO == TURNIGY_PLUSH_12A_MAIN
                               MODE 	EQU 	0				; Choose mode. Set to 0 for main motor
                               $INCLUDE (TURNIGY_PLUSH_12A.INC)	; Select Turnigy Plush 12A pinout
                               ENDIF
                       885     
                       886     IF BESCNO == TURNIGY_PLUSH_12A_TAIL
                               MODE 	EQU 	1				; Choose mode. Set to 1 for tail motor
                               $INCLUDE (TURNIGY_PLUSH_12A.INC)	; Select Turnigy Plush 12A pinout
                               ENDIF
                       890     
                       891     IF BESCNO == TURNIGY_PLUSH_12A_MULTI
                               MODE 	EQU 	2				; Choose mode. Set to 2 for multirotor
                               $INCLUDE (TURNIGY_PLUSH_12A.INC)	; Select Turnigy Plush 12A pinout
                               ENDIF
                       895     
                       896     IF BESCNO == TURNIGY_PLUSH_18A_MAIN
                               MODE 	EQU 	0				; Choose mode. Set to 0 for main motor
                               $INCLUDE (TURNIGY_PLUSH_18A.INC)	; Select Turnigy Plush 18A pinout
                               ENDIF
                       900     
                       901     IF BESCNO == TURNIGY_PLUSH_18A_TAIL
                               MODE 	EQU 	1				; Choose mode. Set to 1 for tail motor
                               $INCLUDE (TURNIGY_PLUSH_18A.INC)	; Select Turnigy Plush 18A pinout
                               ENDIF
                       905     
                       906     IF BESCNO == TURNIGY_PLUSH_18A_MULTI
                               MODE 	EQU 	2				; Choose mode. Set to 2 for multirotor
                               $INCLUDE (TURNIGY_PLUSH_18A.INC)	; Select Turnigy Plush 18A pinout
                               ENDIF
                       910     
                       911     IF BESCNO == TURNIGY_PLUSH_25A_MAIN
                               MODE 	EQU 	0				; Choose mode. Set to 0 for main motor
                               $INCLUDE (TURNIGY_PLUSH_25A.INC)	; Select Turnigy Plush 25A pinout
                               ENDIF
                       915     
                       916     IF BESCNO == TURNIGY_PLUSH_25A_TAIL
                               MODE 	EQU 	1				; Choose mode. Set to 1 for tail motor
                               $INCLUDE (TURNIGY_PLUSH_25A.INC)	; Select Turnigy Plush 25A pinout
                               ENDIF
                       920     
                       921     IF BESCNO == TURNIGY_PLUSH_25A_MULTI
                               MODE 	EQU 	2				; Choose mode. Set to 2 for multirotor
                               $INCLUDE (TURNIGY_PLUSH_25A.INC)	; Select Turnigy Plush 25A pinout
                               ENDIF
                       925     
                       926     IF BESCNO == TURNIGY_PLUSH_30A_MAIN
                               MODE 	EQU 	0				; Choose mode. Set to 0 for main motor
                               $INCLUDE (TURNIGY_PLUSH_30A.INC)	; Select Turnigy Plush 30A pinout
                               ENDIF
                       930     
                       931     IF BESCNO == TURNIGY_PLUSH_30A_TAIL
                               MODE 	EQU 	1				; Choose mode. Set to 1 for tail motor
                               $INCLUDE (TURNIGY_PLUSH_30A.INC)	; Select Turnigy Plush 30A pinout
                               ENDIF
                       935     
                       936     IF BESCNO == TURNIGY_PLUSH_30A_MULTI
                               MODE 	EQU 	2				; Choose mode. Set to 2 for multirotor
                               $INCLUDE (TURNIGY_PLUSH_30A.INC)	; Select Turnigy Plush 30A pinout
                               ENDIF
                       940     
                       941     IF BESCNO == TURNIGY_PLUSH_40A_MAIN
                               MODE 	EQU 	0				; Choose mode. Set to 0 for main motor
                               $INCLUDE (TURNIGY_PLUSH_40A.INC)	; Select Turnigy Plush 40A pinout
                               ENDIF
                       945     
                       946     IF BESCNO == TURNIGY_PLUSH_40A_TAIL
                               MODE 	EQU 	1				; Choose mode. Set to 1 for tail motor
                               $INCLUDE (TURNIGY_PLUSH_40A.INC)	; Select Turnigy Plush 40A pinout
                               ENDIF
                       950     
                       951     IF BESCNO == TURNIGY_PLUSH_40A_MULTI
                               MODE 	EQU 	2				; Choose mode. Set to 2 for multirotor
                               $INCLUDE (TURNIGY_PLUSH_40A.INC)	; Select Turnigy Plush 40A pinout
                               ENDIF
                       955     
                       956     IF BESCNO == TURNIGY_PLUSH_60A_MAIN
                               MODE 	EQU 	0				; Choose mode. Set to 0 for main motor
                               $INCLUDE (TURNIGY_PLUSH_60A.INC)	; Select Turnigy Plush 60A pinout
                               ENDIF
                       960     
                       961     IF BESCNO == TURNIGY_PLUSH_60A_TAIL
                               MODE 	EQU 	1				; Choose mode. Set to 1 for tail motor
                               $INCLUDE (TURNIGY_PLUSH_60A.INC)	; Select Turnigy Plush 60A pinout
                               ENDIF
                       965     
                       966     IF BESCNO == TURNIGY_PLUSH_60A_MULTI
                               MODE 	EQU 	2				; Choose mode. Set to 2 for multirotor
                               $INCLUDE (TURNIGY_PLUSH_60A.INC)	; Select Turnigy Plush 60A pinout
                               ENDIF
                       970     
                       971     IF BESCNO == TURNIGY_PLUSH_80A_MAIN
                               MODE 	EQU 	0				; Choose mode. Set to 0 for main motor
                               $INCLUDE (TURNIGY_PLUSH_80A.INC)	; Select Turnigy Plush 80A pinout
                               ENDIF
                       975     
                       976     IF BESCNO == TURNIGY_PLUSH_80A_TAIL
                               MODE 	EQU 	1				; Choose mode. Set to 1 for tail motor
                               $INCLUDE (TURNIGY_PLUSH_80A.INC)	; Select Turnigy Plush 80A pinout
                               ENDIF
                       980     
                       981     IF BESCNO == TURNIGY_PLUSH_80A_MULTI
                               MODE 	EQU 	2				; Choose mode. Set to 2 for multirotor
                               $INCLUDE (TURNIGY_PLUSH_80A.INC)	; Select Turnigy Plush 80A pinout
                               ENDIF
                       985     
                       986     IF BESCNO == TURNIGY_PLUSH_NFET_18A_MAIN
                               MODE 	EQU 	0				; Choose mode. Set to 0 for main motor
                               $INCLUDE (TURNIGY_PLUSH_NFET_18A.INC)	; Select Turnigy Plush Nfet 18A pinout
                               ENDIF
                       990     
                       991     IF BESCNO == TURNIGY_PLUSH_NFET_18A_TAIL
                               MODE 	EQU 	1				; Choose mode. Set to 1 for tail motor
                               $INCLUDE (TURNIGY_PLUSH_NFET_18A.INC)	; Select Turnigy Plush Nfet 18A pinout
                               ENDIF
                       995     
                       996     IF BESCNO == TURNIGY_PLUSH_NFET_18A_MULTI
                               MODE 	EQU 	2				; Choose mode. Set to 2 for multirotor
                               $INCLUDE (TURNIGY_PLUSH_NFET_18A.INC)	; Select Turnigy Plush Nfet 18A pinout
                               ENDIF
                      1000     
                      1001     IF BESCNO == TURNIGY_PLUSH_NFET_25A_MAIN
                               MODE 	EQU 	0				; Choose mode. Set to 0 for main motor
                               $INCLUDE (TURNIGY_PLUSH_NFET_25A.INC)	; Select Turnigy Plush Nfet 25A pinout
                               ENDIF
                      1005     
                      1006     IF BESCNO == TURNIGY_PLUSH_NFET_25A_TAIL
                               MODE 	EQU 	1				; Choose mode. Set to 1 for tail motor
                               $INCLUDE (TURNIGY_PLUSH_NFET_25A.INC)	; Select Turnigy Plush Nfet 25A pinout
                               ENDIF
                      1010     
                      1011     IF BESCNO == TURNIGY_PLUSH_NFET_25A_MULTI
                               MODE 	EQU 	2				; Choose mode. Set to 2 for multirotor
                               $INCLUDE (TURNIGY_PLUSH_NFET_25A.INC)	; Select Turnigy Plush Nfet 25A pinout
                               ENDIF
                      1015     
                      1016     IF BESCNO == TURNIGY_PLUSH_NFET_30A_MAIN
                               MODE 	EQU 	0				; Choose mode. Set to 0 for main motor
                               $INCLUDE (TURNIGY_PLUSH_NFET_30A.INC)	; Select Turnigy Plush Nfet 30A pinout
                               ENDIF
                      1020     
                      1021     IF BESCNO == TURNIGY_PLUSH_NFET_30A_TAIL
                               MODE 	EQU 	1				; Choose mode. Set to 1 for tail motor
                               $INCLUDE (TURNIGY_PLUSH_NFET_30A.INC)	; Select Turnigy Plush Nfet 30A pinout
                               ENDIF
                      1025     
                      1026     IF BESCNO == TURNIGY_PLUSH_NFET_30A_MULTI
                               MODE 	EQU 	2				; Choose mode. Set to 2 for multirotor
                               $INCLUDE (TURNIGY_PLUSH_NFET_30A.INC)	; Select Turnigy Plush Nfet 30A pinout
                               ENDIF
                      1030     
                      1031     IF BESCNO == TURNIGY_AE_20A_MAIN
                               MODE 	EQU 	0				; Choose mode. Set to 0 for main motor
                               $INCLUDE (TURNIGY_AE_20A.INC)		; Select Turnigy AE-20A pinout
                               ENDIF
                      1035     
                      1036     IF BESCNO == TURNIGY_AE_20A_TAIL
                               MODE 	EQU 	1				; Choose mode. Set to 1 for tail motor
                               $INCLUDE (TURNIGY_AE_20A.INC)		; Select Turnigy AE-20A pinout
                               ENDIF
                      1040     
                      1041     IF BESCNO == TURNIGY_AE_20A_MULTI
                               MODE 	EQU 	2				; Choose mode. Set to 2 for multirotor
                               $INCLUDE (TURNIGY_AE_20A.INC)		; Select Turnigy AE-20A pinout
                               ENDIF
                      1045     
                      1046     IF BESCNO == TURNIGY_AE_25A_MAIN
                               MODE 	EQU 	0				; Choose mode. Set to 0 for main motor
                               $INCLUDE (TURNIGY_AE_25A.INC)		; Select Turnigy AE-25A pinout
                               ENDIF
                      1050     
                      1051     IF BESCNO == TURNIGY_AE_25A_TAIL
                               MODE 	EQU 	1				; Choose mode. Set to 1 for tail motor
                               $INCLUDE (TURNIGY_AE_25A.INC)		; Select Turnigy AE-25A pinout
                               ENDIF
                      1055     
                      1056     IF BESCNO == TURNIGY_AE_25A_MULTI
                               MODE 	EQU 	2				; Choose mode. Set to 2 for multirotor
                               $INCLUDE (TURNIGY_AE_25A.INC)		; Select Turnigy AE-25A pinout
                               ENDIF
                      1060     
                      1061     IF BESCNO == TURNIGY_AE_30A_MAIN
                               MODE 	EQU 	0				; Choose mode. Set to 0 for main motor
                               $INCLUDE (TURNIGY_AE_30A.INC)		; Select Turnigy AE-30A pinout
                               ENDIF
                      1065     
                      1066     IF BESCNO == TURNIGY_AE_30A_TAIL
                               MODE 	EQU 	1				; Choose mode. Set to 1 for tail motor
                               $INCLUDE (TURNIGY_AE_30A.INC)		; Select Turnigy AE-30A pinout
                               ENDIF
                      1070     
                      1071     IF BESCNO == TURNIGY_AE_30A_MULTI
                               MODE 	EQU 	2				; Choose mode. Set to 2 for multirotor
                               $INCLUDE (TURNIGY_AE_30A.INC)		; Select Turnigy AE-30A pinout
                               ENDIF
                      1075     
                      1076     IF BESCNO == TURNIGY_AE_45A_MAIN
                               MODE 	EQU 	0				; Choose mode. Set to 0 for main motor
                               $INCLUDE (TURNIGY_AE_45A.INC)		; Select Turnigy AE-45A pinout
                               ENDIF
                      1080     
                      1081     IF BESCNO == TURNIGY_AE_45A_TAIL
                               MODE 	EQU 	1				; Choose mode. Set to 1 for tail motor
                               $INCLUDE (TURNIGY_AE_45A.INC)		; Select Turnigy AE-45A pinout
                               ENDIF
                      1085     
                      1086     IF BESCNO == TURNIGY_AE_45A_MULTI
                               MODE 	EQU 	2				; Choose mode. Set to 2 for multirotor
                               $INCLUDE (TURNIGY_AE_45A.INC)		; Select Turnigy AE-45A pinout
                               ENDIF
                      1090     
                      1091     IF BESCNO == TURNIGY_KFORCE_40A_MAIN
                               MODE 	EQU 	0				; Choose mode. Set to 0 for main motor
                               $INCLUDE (TURNIGY_KFORCE_40A.INC)	; Select Turnigy KForce 40A pinout
                               ENDIF
                      1095     
                      1096     IF BESCNO == TURNIGY_KFORCE_40A_TAIL
                               MODE 	EQU 	1				; Choose mode. Set to 1 for tail motor
                               $INCLUDE (TURNIGY_KFORCE_40A.INC)	; Select Turnigy KForce 40A pinout
                               ENDIF
                      1100     
                      1101     IF BESCNO == TURNIGY_KFORCE_40A_MULTI
                               MODE 	EQU 	2				; Choose mode. Set to 2 for multirotor
                               $INCLUDE (TURNIGY_KFORCE_40A.INC)	; Select Turnigy KForce 40A pinout
                               ENDIF
                      1105     
                      1106     IF BESCNO == TURNIGY_KFORCE_70A_HV_MAIN
                               MODE 	EQU 	0				; Choose mode. Set to 0 for main motor
                               $INCLUDE (TURNIGY_KFORCE_70A_HV.INC)	; Select Turnigy KForce 70A HV pinout
                               ENDIF
                      1110     
                      1111     IF BESCNO == TURNIGY_KFORCE_70A_HV_TAIL
                               MODE 	EQU 	1				; Choose mode. Set to 1 for tail motor
                               $INCLUDE (TURNIGY_KFORCE_70A_HV.INC)	; Select Turnigy KForce 70A HV pinout
                               ENDIF
                      1115     
                      1116     IF BESCNO == TURNIGY_KFORCE_70A_HV_MULTI
                               MODE 	EQU 	2				; Choose mode. Set to 2 for multirotor
                               $INCLUDE (TURNIGY_KFORCE_70A_HV.INC)	; Select Turnigy KForce 70A HV pinout
                               ENDIF
                      1120     
                      1121     IF BESCNO == TURNIGY_KFORCE_120A_HV_MAIN
                               MODE 	EQU 	0				; Choose mode. Set to 0 for main motor
                               $INCLUDE (TURNIGY_KFORCE_120A_HV.INC)	; Select Turnigy KForce 120A HV pinout
                               ENDIF
                      1125     
                      1126     IF BESCNO == TURNIGY_KFORCE_120A_HV_TAIL
                               MODE 	EQU 	1				; Choose mode. Set to 1 for tail motor
                               $INCLUDE (TURNIGY_KFORCE_120A_HV.INC)	; Select Turnigy KForce 120A HV pinout
                               ENDIF
                      1130     
                      1131     IF BESCNO == TURNIGY_KFORCE_120A_HV_MULTI
                               MODE 	EQU 	2				; Choose mode. Set to 2 for multirotor
                               $INCLUDE (TURNIGY_KFORCE_120A_HV.INC)	; Select Turnigy KForce 120A HV pinout
                               ENDIF
                      1135     
                      1136     IF BESCNO == TURNIGY_KFORCE_120A_HV_V2_MAIN
                               MODE 	EQU 	0				; Choose mode. Set to 0 for main motor
                               $INCLUDE (TURNIGY_KFORCE_120A_HV_V2.INC); Select Turnigy KForce 120A HV v2 pinout
                               ENDIF
                      1140     
                      1141     IF BESCNO == TURNIGY_KFORCE_120A_HV_V2_TAIL
                               MODE 	EQU 	1				; Choose mode. Set to 1 for tail motor
                               $INCLUDE (TURNIGY_KFORCE_120A_HV_V2.INC); Select Turnigy KForce 120A HV v2 pinout
                               ENDIF
                      1145     
                      1146     IF BESCNO == TURNIGY_KFORCE_120A_HV_V2_MULTI
                               MODE 	EQU 	2				; Choose mode. Set to 2 for multirotor
                               $INCLUDE (TURNIGY_KFORCE_120A_HV_V2.INC); Select Turnigy KForce 120A HV v2 pinout
                               ENDIF
                      1150     
                      1151     IF BESCNO == SKYWALKER_20A_MAIN
                               MODE 	EQU 	0				; Choose mode. Set to 0 for main motor
                               $INCLUDE (SKYWALKER_20A.INC)		; Select Skywalker 20A pinout
                               ENDIF
                      1155     
                      1156     IF BESCNO == SKYWALKER_20A_TAIL
                               MODE 	EQU 	1				; Choose mode. Set to 1 for tail motor
                               $INCLUDE (SKYWALKER_20A.INC)		; Select Skywalker 20A pinout
                               ENDIF
                      1160     
                      1161     IF BESCNO == SKYWALKER_20A_MULTI
                               MODE 	EQU 	2				; Choose mode. Set to 2 for multirotor
                               $INCLUDE (SKYWALKER_20A.INC)		; Select Skywalker 20A pinout
                               ENDIF
                      1165     
                      1166     IF BESCNO == SKYWALKER_40A_MAIN
                               MODE 	EQU 	0				; Choose mode. Set to 0 for main motor
                               $INCLUDE (SKYWALKER_40A.INC)		; Select Skywalker 40A pinout
                               ENDIF
                      1170     
                      1171     IF BESCNO == SKYWALKER_40A_TAIL
                               MODE 	EQU 	1				; Choose mode. Set to 1 for tail motor
                               $INCLUDE (SKYWALKER_40A.INC)		; Select Skywalker 40A pinout
                               ENDIF
                      1175     
                      1176     IF BESCNO == SKYWALKER_40A_MULTI
                               MODE 	EQU 	2				; Choose mode. Set to 2 for multirotor
                               $INCLUDE (SKYWALKER_40A.INC)		; Select Skywalker 40A pinout
                               ENDIF
                      1180     
                      1181     IF BESCNO == HIMODEL_COOL_22A_MAIN
                               MODE 	EQU 	0				; Choose mode. Set to 0 for main motor
                               $INCLUDE (HIMODEL_COOL_22A.INC)	; Select HiModel Cool 22A pinout
                               ENDIF
                      1185     
                      1186     IF BESCNO == HIMODEL_COOL_22A_TAIL
                               MODE 	EQU 	1				; Choose mode. Set to 1 for tail motor
                               $INCLUDE (HIMODEL_COOL_22A.INC)	; Select HiModel Cool 22A pinout
                               ENDIF
                      1190     
                      1191     IF BESCNO == HIMODEL_COOL_22A_MULTI
                               MODE 	EQU 	2				; Choose mode. Set to 2 for multirotor
                               $INCLUDE (HIMODEL_COOL_22A.INC)	; Select HiModel Cool 22A pinout
                               ENDIF
                      1195     
                      1196     IF BESCNO == HIMODEL_COOL_33A_MAIN
                               MODE 	EQU 	0				; Choose mode. Set to 0 for main motor
                               $INCLUDE (HIMODEL_COOL_33A.INC)	; Select HiModel Cool 33A pinout
                               ENDIF
                      1200     
                      1201     IF BESCNO == HIMODEL_COOL_33A_TAIL
                               MODE 	EQU 	1				; Choose mode. Set to 1 for tail motor
                               $INCLUDE (HIMODEL_COOL_33A.INC)	; Select HiModel Cool 33A pinout
                               ENDIF
                      1205     
                      1206     IF BESCNO == HIMODEL_COOL_33A_MULTI
                               MODE 	EQU 	2				; Choose mode. Set to 2 for multirotor
                               $INCLUDE (HIMODEL_COOL_33A.INC)	; Select HiModel Cool 33A pinout
                               ENDIF
                      1210     
                      1211     IF BESCNO == HIMODEL_COOL_41A_MAIN
                               MODE 	EQU 	0				; Choose mode. Set to 0 for main motor
                               $INCLUDE (HIMODEL_COOL_41A.INC)	; Select HiModel Cool 41A pinout
                               ENDIF
                      1215     
                      1216     IF BESCNO == HIMODEL_COOL_41A_TAIL
                               MODE 	EQU 	1				; Choose mode. Set to 1 for tail motor
                               $INCLUDE (HIMODEL_COOL_41A.INC)	; Select HiModel Cool 41A pinout
                               ENDIF
                      1220     
                      1221     IF BESCNO == HIMODEL_COOL_41A_MULTI
                               MODE 	EQU 	2				; Choose mode. Set to 2 for multirotor
                               $INCLUDE (HIMODEL_COOL_41A.INC)	; Select HiModel Cool 41A pinout
                               ENDIF
                      1225     
                      1226     IF BESCNO == RCTIMER_6A_MAIN
                               MODE 	EQU 	0				; Choose mode. Set to 0 for main motor
                               $INCLUDE (RCTIMER_6A.INC)		; Select RC Timer 6A pinout
                               ENDIF
                      1230     
                      1231     IF BESCNO == RCTIMER_6A_TAIL
                               MODE 	EQU 	1				; Choose mode. Set to 1 for tail motor
                               $INCLUDE (RCTIMER_6A.INC)		; Select RC Timer 6A pinout
                               ENDIF
                      1235     
                      1236     IF BESCNO == RCTIMER_6A_MULTI
                               MODE 	EQU 	2				; Choose mode. Set to 2 for multirotor
                               $INCLUDE (RCTIMER_6A.INC)		; Select RC Timer 6A pinout
                               ENDIF
                      1240     
                      1241     IF BESCNO == ALIGN_RCE_BL15X_MAIN
                               MODE 	EQU 	0				; Choose mode. Set to 0 for main motor
                               $INCLUDE (ALIGN_RCE_BL15X.INC)	; Select Align RCE-BL15X pinout
                               ENDIF
                      1245     
                      1246     IF BESCNO == ALIGN_RCE_BL15X_TAIL
                               MODE 	EQU 	1				; Choose mode. Set to 1 for tail motor
                               $INCLUDE (ALIGN_RCE_BL15X.INC)	; Select Align RCE-BL15X pinout
                               ENDIF
                      1250     
                      1251     IF BESCNO == ALIGN_RCE_BL15X_MULTI
                               MODE 	EQU 	2				; Choose mode. Set to 2 for multirotor
                               $INCLUDE (ALIGN_RCE_BL15X.INC)	; Select Align RCE-BL15X pinout
                               ENDIF
                      1255     
                      1256     IF BESCNO == ALIGN_RCE_BL15P_MAIN
                               MODE 	EQU 	0				; Choose mode. Set to 0 for main motor
                               $INCLUDE (ALIGN_RCE_BL15P.INC)	; Select Align RCE-BL15P pinout
                               ENDIF
                      1260     
                      1261     IF BESCNO == ALIGN_RCE_BL15P_TAIL
                               MODE 	EQU 	1				; Choose mode. Set to 1 for tail motor
                               $INCLUDE (ALIGN_RCE_BL15P.INC)	; Select Align RCE-BL15P pinout
                               ENDIF
                      1265     
                      1266     IF BESCNO == ALIGN_RCE_BL15P_MULTI
                               MODE 	EQU 	2				; Choose mode. Set to 2 for multirotor
                               $INCLUDE (ALIGN_RCE_BL15P.INC)	; Select Align RCE-BL15P pinout
                               ENDIF
                      1270     
                      1271     IF BESCNO == ALIGN_RCE_BL35X_MAIN
                               MODE 	EQU 	0				; Choose mode. Set to 0 for main motor
                               $INCLUDE (ALIGN_RCE_BL35X.INC)	; Select Align RCE-BL35X pinout
                               ENDIF
                      1275     
                      1276     IF BESCNO == ALIGN_RCE_BL35X_TAIL
                               MODE 	EQU 	1				; Choose mode. Set to 1 for tail motor
                               $INCLUDE (ALIGN_RCE_BL35X.INC)	; Select Align RCE-BL35X pinout
                               ENDIF
                      1280     
                      1281     IF BESCNO == ALIGN_RCE_BL35X_MULTI
                               MODE 	EQU 	2				; Choose mode. Set to 2 for multirotor
                               $INCLUDE (ALIGN_RCE_BL35X.INC)	; Select Align RCE-BL35X pinout
                               ENDIF
                      1285     
                      1286     IF BESCNO == ALIGN_RCE_BL35P_MAIN
                               MODE 	EQU 	0				; Choose mode. Set to 0 for main motor
                               $INCLUDE (ALIGN_RCE_BL35P.INC)	; Select Align RCE-BL35P pinout
                               ENDIF
                      1290     
                      1291     IF BESCNO == ALIGN_RCE_BL35P_TAIL
                               MODE 	EQU 	1				; Choose mode. Set to 1 for tail motor
                               $INCLUDE (ALIGN_RCE_BL35P.INC)	; Select Align RCE-BL35P pinout
                               ENDIF
                      1295     
                      1296     IF BESCNO == ALIGN_RCE_BL35P_MULTI
                               MODE 	EQU 	2				; Choose mode. Set to 2 for multirotor
                               $INCLUDE (ALIGN_RCE_BL35P.INC)	; Select Align RCE-BL35P pinout
                               ENDIF
                      1300     
                      1301     IF BESCNO == GAUI_GE_183_18A_MAIN
                               MODE 	EQU 	0				; Choose mode. Set to 0 for main motor
                               $INCLUDE (GAUI_GE_183_18A.INC)	; Select Gaui GE-183 18A pinout
                               ENDIF
                      1305     
                      1306     IF BESCNO == GAUI_GE_183_18A_TAIL
                               MODE 	EQU 	1				; Choose mode. Set to 1 for tail motor
                               $INCLUDE (GAUI_GE_183_18A.INC)	; Select Gaui GE-183 18A pinout
                               ENDIF
                      1310     
                      1311     IF BESCNO == GAUI_GE_183_18A_MULTI
                               MODE 	EQU 	2				; Choose mode. Set to 2 for multirotor
                               $INCLUDE (GAUI_GE_183_18A.INC)	; Select Gaui GE-183 18A pinout
                               ENDIF
                      1315     
                      1316     IF BESCNO == H_KING_10A_MAIN
                               MODE 	EQU 	0				; Choose mode. Set to 0 for main motor
                               $INCLUDE (H_KING_10A.INC)		; Select H-King 10A pinout
                               ENDIF
                      1320     
                      1321     IF BESCNO == H_KING_10A_TAIL
                               MODE 	EQU 	1				; Choose mode. Set to 1 for tail motor
                               $INCLUDE (H_KING_10A.INC)		; Select H-King 10A pinout
                               ENDIF
                      1325     
                      1326     IF BESCNO == H_KING_10A_MULTI
                               MODE 	EQU 	2				; Choose mode. Set to 2 for multirotor
                               $INCLUDE (H_KING_10A.INC)		; Select H-King 10A pinout
                               ENDIF
                      1330     
                      1331     IF BESCNO == H_KING_20A_MAIN
                               MODE 	EQU 	0				; Choose mode. Set to 0 for main motor
                               $INCLUDE (H_KING_20A.INC)		; Select H-King 20A pinout
                               ENDIF
                      1335     
                      1336     IF BESCNO == H_KING_20A_TAIL
                               MODE 	EQU 	1				; Choose mode. Set to 1 for tail motor
                               $INCLUDE (H_KING_20A.INC)		; Select H-King 20A pinout
                               ENDIF
                      1340     
                      1341     IF BESCNO == H_KING_20A_MULTI
                               MODE 	EQU 	2				; Choose mode. Set to 2 for multirotor
                               $INCLUDE (H_KING_20A.INC)		; Select H-King 20A pinout
                               ENDIF
                      1345     
                      1346     IF BESCNO == H_KING_35A_MAIN
                               MODE 	EQU 	0				; Choose mode. Set to 0 for main motor
                               $INCLUDE (H_KING_35A.INC)		; Select H-King 35A pinout
                               ENDIF
                      1350     
                      1351     IF BESCNO == H_KING_35A_TAIL
                               MODE 	EQU 	1				; Choose mode. Set to 1 for tail motor
                               $INCLUDE (H_KING_35A.INC)		; Select H-King 35A pinout
                               ENDIF
                      1355     
                      1356     IF BESCNO == H_KING_35A_MULTI
                               MODE 	EQU 	2				; Choose mode. Set to 2 for multirotor
                               $INCLUDE (H_KING_35A.INC)		; Select H-King 35A pinout
                               ENDIF
                      1360     
                      1361     IF BESCNO == H_KING_50A_MAIN
                               MODE 	EQU 	0				; Choose mode. Set to 0 for main motor
                               $INCLUDE (H_KING_50A.INC)		; Select H-King 50A pinout
                               ENDIF
                      1365     
                      1366     IF BESCNO == H_KING_50A_TAIL
                               MODE 	EQU 	1				; Choose mode. Set to 1 for tail motor
                               $INCLUDE (H_KING_50A.INC)		; Select H-King 50A pinout
                               ENDIF
                      1370     
                      1371     IF BESCNO == H_KING_50A_MULTI
                               MODE 	EQU 	2				; Choose mode. Set to 2 for multirotor
                               $INCLUDE (H_KING_50A.INC)		; Select H-King 50A pinout
                               ENDIF
                      1375     
                      1376     IF BESCNO == POLARIS_THUNDER_12A_MAIN
                               MODE 	EQU 	0				; Choose mode. Set to 0 for main motor
                               $INCLUDE (POLARIS_THUNDER_12A.INC)	; Select Polaris Thunder 12A pinout
                               ENDIF
                      1380     
                      1381     IF BESCNO == POLARIS_THUNDER_12A_TAIL
                               MODE 	EQU 	1				; Choose mode. Set to 1 for tail motor
                               $INCLUDE (POLARIS_THUNDER_12A.INC)	; Select Polaris Thunder 12A pinout
                               ENDIF
                      1385     
                      1386     IF BESCNO == POLARIS_THUNDER_12A_MULTI
                               MODE 	EQU 	2				; Choose mode. Set to 2 for multirotor
                               $INCLUDE (POLARIS_THUNDER_12A.INC)	; Select Polaris Thunder 12A pinout
                               ENDIF
                      1390     
                      1391     IF BESCNO == POLARIS_THUNDER_20A_MAIN
                               MODE 	EQU 	0				; Choose mode. Set to 0 for main motor
                               $INCLUDE (POLARIS_THUNDER_20A.INC)	; Select Polaris Thunder 20A pinout
                               ENDIF
                      1395     
                      1396     IF BESCNO == POLARIS_THUNDER_20A_TAIL
                               MODE 	EQU 	1				; Choose mode. Set to 1 for tail motor
                               $INCLUDE (POLARIS_THUNDER_20A.INC)	; Select Polaris Thunder 20A pinout
                               ENDIF
                      1400     
                      1401     IF BESCNO == POLARIS_THUNDER_20A_MULTI
                               MODE 	EQU 	2				; Choose mode. Set to 2 for multirotor
                               $INCLUDE (POLARIS_THUNDER_20A.INC)	; Select Polaris Thunder 20A pinout
                               ENDIF
                      1405     
                      1406     IF BESCNO == POLARIS_THUNDER_30A_MAIN
                               MODE 	EQU 	0				; Choose mode. Set to 0 for main motor
                               $INCLUDE (POLARIS_THUNDER_30A.INC)	; Select Polaris Thunder 30A pinout
                               ENDIF
                      1410     
                      1411     IF BESCNO == POLARIS_THUNDER_30A_TAIL
                               MODE 	EQU 	1				; Choose mode. Set to 1 for tail motor
                               $INCLUDE (POLARIS_THUNDER_30A.INC)	; Select Polaris Thunder 30A pinout
                               ENDIF
                      1415     
                      1416     IF BESCNO == POLARIS_THUNDER_30A_MULTI
                               MODE 	EQU 	2				; Choose mode. Set to 2 for multirotor
                               $INCLUDE (POLARIS_THUNDER_30A.INC)	; Select Polaris Thunder 30A pinout
                               ENDIF
                      1420     
                      1421     IF BESCNO == POLARIS_THUNDER_40A_MAIN
                               MODE 	EQU 	0				; Choose mode. Set to 0 for main motor
                               $INCLUDE (POLARIS_THUNDER_40A.INC)	; Select Polaris Thunder 40A pinout
                               ENDIF
                      1425     
                      1426     IF BESCNO == POLARIS_THUNDER_40A_TAIL
                               MODE 	EQU 	1				; Choose mode. Set to 1 for tail motor
                               $INCLUDE (POLARIS_THUNDER_40A.INC)	; Select Polaris Thunder 40A pinout
                               ENDIF
                      1430     
                      1431     IF BESCNO == POLARIS_THUNDER_40A_MULTI
                               MODE 	EQU 	2				; Choose mode. Set to 2 for multirotor
                               $INCLUDE (POLARIS_THUNDER_40A.INC)	; Select Polaris Thunder 40A pinout
                               ENDIF
                      1435     
                      1436     IF BESCNO == POLARIS_THUNDER_60A_MAIN
                               MODE 	EQU 	0				; Choose mode. Set to 0 for main motor
                               $INCLUDE (POLARIS_THUNDER_60A.INC)	; Select Polaris Thunder 60A pinout
                               ENDIF
                      1440     
                      1441     IF BESCNO == POLARIS_THUNDER_60A_TAIL
                               MODE 	EQU 	1				; Choose mode. Set to 1 for tail motor
                               $INCLUDE (POLARIS_THUNDER_60A.INC)	; Select Polaris Thunder 60A pinout
                               ENDIF
                      1445     
                      1446     IF BESCNO == POLARIS_THUNDER_60A_MULTI
                               MODE 	EQU 	2				; Choose mode. Set to 2 for multirotor
                               $INCLUDE (POLARIS_THUNDER_60A.INC)	; Select Polaris Thunder 60A pinout
                               ENDIF
                      1450     
                      1451     IF BESCNO == POLARIS_THUNDER_80A_MAIN
                               MODE 	EQU 	0				; Choose mode. Set to 0 for main motor
                               $INCLUDE (POLARIS_THUNDER_80A.INC)	; Select Polaris Thunder 80A pinout
                               ENDIF
                      1455     
                      1456     IF BESCNO == POLARIS_THUNDER_80A_TAIL
                               MODE 	EQU 	1				; Choose mode. Set to 1 for tail motor
                               $INCLUDE (POLARIS_THUNDER_80A.INC)	; Select Polaris Thunder 80A pinout
                               ENDIF
                      1460     
                      1461     IF BESCNO == POLARIS_THUNDER_80A_MULTI
                               MODE 	EQU 	2				; Choose mode. Set to 2 for multirotor
                               $INCLUDE (POLARIS_THUNDER_80A.INC)	; Select Polaris Thunder 80A pinout
                               ENDIF
                      1465     
                      1466     IF BESCNO == POLARIS_THUNDER_100A_MAIN
                               MODE 	EQU 	0				; Choose mode. Set to 0 for main motor
                               $INCLUDE (POLARIS_THUNDER_100A.INC); Select Polaris Thunder 100A pinout
                               ENDIF
                      1470     
                      1471     IF BESCNO == POLARIS_THUNDER_100A_TAIL
                               MODE 	EQU 	1				; Choose mode. Set to 1 for tail motor
                               $INCLUDE (POLARIS_THUNDER_100A.INC); Select Polaris Thunder 100A pinout
                               ENDIF
                      1475     
                      1476     IF BESCNO == POLARIS_THUNDER_100A_MULTI
                               MODE 	EQU 	2				; Choose mode. Set to 2 for multirotor
                               $INCLUDE (POLARIS_THUNDER_100A.INC); Select Polaris Thunder 100A pinout
                               ENDIF
                      1480     
                      1481     IF BESCNO == PLATINUM_PRO_30A_MAIN
                               MODE 	EQU 	0				; Choose mode. Set to 0 for main motor
                               $INCLUDE (PLATINUM_PRO_30A.INC)	; Select Platinum Pro 30A pinout
                               ENDIF
                      1485     
                      1486     IF BESCNO == PLATINUM_PRO_30A_TAIL
                               MODE 	EQU 	1				; Choose mode. Set to 1 for tail motor
                               $INCLUDE (PLATINUM_PRO_30A.INC)	; Select Platinum Pro 30A pinout
                               ENDIF
                      1490     
                      1491     IF BESCNO == PLATINUM_PRO_30A_MULTI
                               MODE 	EQU 	2				; Choose mode. Set to 2 for multirotor
                               $INCLUDE (PLATINUM_PRO_30A.INC)	; Select Platinum Pro 30A pinout
                               ENDIF
                      1495     
                      1496     IF BESCNO == PLATINUM_PRO_150A_MAIN
                               MODE 	EQU 	0				; Choose mode. Set to 0 for main motor
                               $INCLUDE (PLATINUM_PRO_150A.INC)	; Select Platinum Pro 150A pinout
                               ENDIF
                      1500     
                      1501     IF BESCNO == PLATINUM_PRO_150A_TAIL
                               MODE 	EQU 	1				; Choose mode. Set to 1 for tail motor
                               $INCLUDE (PLATINUM_PRO_150A.INC)	; Select Platinum Pro 150A pinout
                               ENDIF
                      1505     
                      1506     IF BESCNO == PLATINUM_PRO_150A_MULTI
                               MODE 	EQU 	2				; Choose mode. Set to 2 for multirotor
                               $INCLUDE (PLATINUM_PRO_150A.INC)	; Select Platinum Pro 150A pinout
                               ENDIF
                      1510     
                      1511     IF BESCNO == PLATINUM_50AV3_MAIN
                               MODE 	EQU 	0				; Choose mode. Set to 0 for main motor
                               $INCLUDE (PLATINUM_50AV3.INC)		; Select Platinum 50A v3 pinout
                               ENDIF
                      1515     
                      1516     IF BESCNO == PLATINUM_50AV3_TAIL
                               MODE 	EQU 	1				; Choose mode. Set to 1 for tail motor
                               $INCLUDE (PLATINUM_50AV3.INC)		; Select Platinum 50A v3 pinout
                               ENDIF
                      1520     
                      1521     IF BESCNO == PLATINUM_50AV3_MULTI
                               MODE 	EQU 	2				; Choose mode. Set to 2 for multirotor
                               $INCLUDE (PLATINUM_50AV3.INC)		; Select Platinum 50A v3 pinout
                               ENDIF
                      1525     
                      1526     IF BESCNO == EAZY_3AV2_MAIN
                               MODE 	EQU 	0				; Choose mode. Set to 0 for main motor
                               $INCLUDE (EAZY_3AV2.INC)			; Select Eazy 3A v2 pinout
                               ENDIF
                      1530     
                      1531     IF BESCNO == EAZY_3AV2_TAIL
                               MODE 	EQU 	1				; Choose mode. Set to 1 for tail motor
                               $INCLUDE (EAZY_3AV2.INC)			; Select Eazy 3A v2 pinout
                               ENDIF
                      1535     
                      1536     IF BESCNO == EAZY_3AV2_MULTI
                               MODE 	EQU 	2				; Choose mode. Set to 2 for multirotor
                               $INCLUDE (EAZY_3AV2.INC)			; Select Eazy 3A v2 pinout
                               ENDIF
                      1540     
                      1541     IF BESCNO == TAROT_30A_MAIN
                               MODE 	EQU 	0				; Choose mode. Set to 0 for main motor
                               $INCLUDE (TAROT_30A.INC)			; Select Tarot 30A pinout
                               ENDIF
                      1545     
                      1546     IF BESCNO == TAROT_30A_TAIL
                               MODE 	EQU 	1				; Choose mode. Set to 1 for tail motor
                               $INCLUDE (TAROT_30A.INC)			; Select Tarot 30A pinout
                               ENDIF
                      1550     
                      1551     IF BESCNO == TAROT_30A_MULTI
                               MODE 	EQU 	2				; Choose mode. Set to 2 for multirotor
                               $INCLUDE (TAROT_30A.INC)			; Select Tarot 30A pinout
                               ENDIF
                      1555     
                      1556     IF BESCNO == SKYIII_30A_MAIN
                               MODE 	EQU 	0				; Choose mode. Set to 0 for main motor
                               $INCLUDE (SKYIII_30A.INC)		; Select SkyIII 30A pinout
                               ENDIF
                      1560     
                      1561     IF BESCNO == SKYIII_30A_TAIL
                               MODE 	EQU 	1				; Choose mode. Set to 1 for tail motor
                               $INCLUDE (SKYIII_30A.INC)		; Select SkyIII 30A pinout
                               ENDIF
                      1565     
                      1566     IF BESCNO == SKYIII_30A_MULTI
                               MODE 	EQU 	2				; Choose mode. Set to 2 for multirotor
                               $INCLUDE (SKYIII_30A.INC)		; Select SkyIII 30A pinout
                               ENDIF
                      1570     
                      1571     IF BESCNO == EMAX_20A_MAIN
                               MODE 	EQU 	0				; Choose mode. Set to 0 for main motor
                               $INCLUDE (EMAX_20A.INC)			; Select EMAX 20A pinout
                               ENDIF
                      1575     
                      1576     IF BESCNO == EMAX_20A_TAIL
                               MODE 	EQU 	1				; Choose mode. Set to 1 for tail motor
                               $INCLUDE (EMAX_20A.INC)			; Select EMAX 20A pinout
                               ENDIF
                      1580     
                      1581     IF BESCNO == EMAX_20A_MULTI
                               MODE 	EQU 	2				; Choose mode. Set to 2 for multirotor
                               $INCLUDE (EMAX_20A.INC)			; Select EMAX 20A pinout
                               ENDIF
                      1585     
                      1586     IF BESCNO == EMAX_40A_MAIN
                               MODE 	EQU 	0				; Choose mode. Set to 0 for main motor
                               $INCLUDE (EMAX_40A.INC)			; Select EMAX 40A pinout
                               ENDIF
                      1590     
                      1591     IF BESCNO == EMAX_40A_TAIL
                               MODE 	EQU 	1				; Choose mode. Set to 1 for tail motor
                               $INCLUDE (EMAX_40A.INC)			; Select EMAX 40A pinout
                               ENDIF
                      1595     
                      1596     IF BESCNO == EMAX_40A_MULTI
                               MODE 	EQU 	2				; Choose mode. Set to 2 for multirotor
                               $INCLUDE (EMAX_40A.INC)			; Select EMAX 40A pinout
                               ENDIF
                      1600     
                      1601     IF BESCNO == EMAX_NANO_20A_MAIN
                               MODE 	EQU 	0				; Choose mode. Set to 0 for main motor
                               $INCLUDE (EMAX_NANO_20A.INC)		; Select EMAX Nano 20A pinout
                               ENDIF
                      1605     
                      1606     IF BESCNO == EMAX_NANO_20A_TAIL
                               MODE 	EQU 	1				; Choose mode. Set to 1 for tail motor
                               $INCLUDE (EMAX_NANO_20A.INC)		; Select EMAX Nano 20A pinout
                               ENDIF
                      1610     
                      1611     IF BESCNO == EMAX_NANO_20A_MULTI
                               MODE 	EQU 	2				; Choose mode. Set to 2 for multirotor
                               $INCLUDE (EMAX_NANO_20A.INC)		; Select EMAX Nano 20A pinout
                               ENDIF
                      1615     
                      1616     IF BESCNO == XROTOR_10A_MAIN
                               MODE 	EQU 	0				; Choose mode. Set to 0 for main motor
                               $INCLUDE (XROTOR_10A.INC)		; Select XRotor 10A pinout
                               ENDIF
                      1620     
                      1621     IF BESCNO == XROTOR_10A_TAIL
                               MODE 	EQU 	1				; Choose mode. Set to 1 for tail motor
                               $INCLUDE (XROTOR_10A.INC)		; Select XRotor 10A pinout
                               ENDIF
                      1625     
                      1626     IF BESCNO == XROTOR_10A_MULTI
                               MODE 	EQU 	2				; Choose mode. Set to 2 for multirotor
                               $INCLUDE (XROTOR_10A.INC)		; Select XRotor 10A pinout
                               ENDIF
                      1630     
                      1631     IF BESCNO == XROTOR_20A_MAIN
                               MODE 	EQU 	0				; Choose mode. Set to 0 for main motor
                               $INCLUDE (XROTOR_20A.INC)		; Select XRotor 20A pinout
                               ENDIF
                      1635     
                      1636     IF BESCNO == XROTOR_20A_TAIL
                               MODE 	EQU 	1				; Choose mode. Set to 1 for tail motor
                               $INCLUDE (XROTOR_20A.INC)		; Select XRotor 20A pinout
                               ENDIF
                      1640     
                      1641     IF BESCNO == XROTOR_20A_MULTI
                               MODE 	EQU 	2				; Choose mode. Set to 2 for multirotor
                               $INCLUDE (XROTOR_20A.INC)		; Select XRotor 20A pinout
                               ENDIF
                      1645     
                      1646     IF BESCNO == XROTOR_40A_MAIN
                               MODE 	EQU 	0				; Choose mode. Set to 0 for main motor
                               $INCLUDE (XROTOR_40A.INC)		; Select XRotor 40A pinout
                               ENDIF
                      1650     
                      1651     IF BESCNO == XROTOR_40A_TAIL
                               MODE 	EQU 	1				; Choose mode. Set to 1 for tail motor
                               $INCLUDE (XROTOR_40A.INC)		; Select XRotor 40A pinout
                               ENDIF
                      1655     
                      1656     IF BESCNO == XROTOR_40A_MULTI
  0002                1657     MODE 	EQU 	2				; Choose mode. Set to 2 for multirotor
                      1658     $INCLUDE (XROTOR_40A.INC)		; Select XRotor 40A pinout
                      2272     ENDIF
                      2273     
                      2274     IF BESCNO == MDRX62H_MAIN
                               MODE 	EQU 	0				; Choose mode. Set to 0 for main motor
                               $INCLUDE (MDRX62H.INC)			; Select MDRX62H pinout
                               ENDIF
                      2278     
                      2279     IF BESCNO == MDRX62H_TAIL
                               MODE 	EQU 	1				; Choose mode. Set to 1 for tail motor
                               $INCLUDE (MDRX62H.INC)			; Select MDRX62H pinout
                               ENDIF
                      2283     
                      2284     IF BESCNO == MDRX62H_MULTI
                               MODE 	EQU 	2				; Choose mode. Set to 2 for multirotor
                               $INCLUDE (MDRX62H.INC)			; Select MDRX62H pinout
                               ENDIF
                      2288     
                      2289     IF BESCNO == ROTORGEEKS_20A_MAIN
                               MODE 	EQU 	0				; Choose mode. Set to 0 for main motor
                               $INCLUDE (ROTORGEEKS_20A.INC)		; Select RotorGeeks 20A pinout
                               ENDIF
                      2293     
                      2294     IF BESCNO == ROTORGEEKS_20A_TAIL
                               MODE 	EQU 	1				; Choose mode. Set to 1 for tail motor
                               $INCLUDE (ROTORGEEKS_20A.INC)		; Select RotorGeeks 20A pinout
                               ENDIF
                      2298     
                      2299     IF BESCNO == ROTORGEEKS_20A_MULTI
                               MODE 	EQU 	2				; Choose mode. Set to 2 for multirotor
                               $INCLUDE (ROTORGEEKS_20A.INC)		; Select RotorGeeks 20A pinout
                               ENDIF
                      2303     
                      2304     IF BESCNO == FLYCOLOR_FAIRY_6A_MAIN
                               MODE 	EQU 	0				; Choose mode. Set to 0 for main motor
                               $INCLUDE (FLYCOLOR_FAIRY_6A.INC)	; Select Flycolor Fairy 6A pinout
                               ENDIF
                      2308     
                      2309     IF BESCNO == FLYCOLOR_FAIRY_6A_TAIL
                               MODE 	EQU 	1				; Choose mode. Set to 1 for tail motor
                               $INCLUDE (FLYCOLOR_FAIRY_6A.INC)	; Select Flycolor Fairy 6A pinout
                               ENDIF
                      2313     
                      2314     IF BESCNO == FLYCOLOR_FAIRY_6A_MULTI
                               MODE 	EQU 	2				; Choose mode. Set to 2 for multirotor
                               $INCLUDE (FLYCOLOR_FAIRY_6A.INC)	; Select Flycolor Fairy 6A pinout
                               ENDIF
                      2318     
                      2319     IF BESCNO == FLYCOLOR_FAIRY_30A_MAIN
                               MODE 	EQU 	0				; Choose mode. Set to 0 for main motor
                               $INCLUDE (FLYCOLOR_FAIRY_30A.INC)	; Select Flycolor Fairy 30A pinout
                               ENDIF
                      2323     
                      2324     IF BESCNO == FLYCOLOR_FAIRY_30A_TAIL
                               MODE 	EQU 	1				; Choose mode. Set to 1 for tail motor
                               $INCLUDE (FLYCOLOR_FAIRY_30A.INC)	; Select Flycolor Fairy 30A pinout
                               ENDIF
                      2328     
                      2329     IF BESCNO == FLYCOLOR_FAIRY_30A_MULTI
                               MODE 	EQU 	2				; Choose mode. Set to 2 for multirotor
                               $INCLUDE (FLYCOLOR_FAIRY_30A.INC)	; Select Flycolor Fairy 30A pinout
                               ENDIF
                      2333     
                      2334     IF BESCNO == FVT_LITTLEBEE_20A_MAIN
                               MODE 	EQU 	0				; Choose mode. Set to 0 for main motor
                               $INCLUDE (FVT_LITTLEBEE_20A.INC)	; Select Favourite Littlebee 20A pinout
                               ENDIF
                      2338     
                      2339     IF BESCNO == FVT_LITTLEBEE_20A_TAIL
                               MODE 	EQU 	1				; Choose mode. Set to 1 for tail motor
                               $INCLUDE (FVT_LITTLEBEE_20A.INC)	; Select Favourite Littlebee 20A pinout
                               ENDIF
                      2343     
                      2344     IF BESCNO == FVT_LITTLEBEE_20A_MULTI
                               MODE 	EQU 	2				; Choose mode. Set to 2 for multirotor
                               $INCLUDE (FVT_LITTLEBEE_20A.INC)	; Select Favourite Littlebee 20A pinout
                               ENDIF
                      2348     
                      2349     IF BESCNO == FVT_LITTLEBEE_30A_MAIN
                               MODE 	EQU 	0				; Choose mode. Set to 0 for main motor
                               $INCLUDE (FVT_LITTLEBEE_30A.INC)	; Select Favourite Littlebee 30A pinout
                               ENDIF
                      2353     
                      2354     IF BESCNO == FVT_LITTLEBEE_30A_TAIL
                               MODE 	EQU 	1				; Choose mode. Set to 1 for tail motor
                               $INCLUDE (FVT_LITTLEBEE_30A.INC)	; Select Favourite Littlebee 30A pinout
                               ENDIF
                      2358     
                      2359     IF BESCNO == FVT_LITTLEBEE_30A_MULTI
                               MODE 	EQU 	2				; Choose mode. Set to 2 for multirotor
                               $INCLUDE (FVT_LITTLEBEE_30A.INC)	; Select Favourite Littlebee 30A pinout
                               ENDIF
                      2363     
                      2364     IF BESCNO == GRAUPNER_ULTRA_20A_MAIN
                               MODE 	EQU 	0				; Choose mode. Set to 0 for main motor
                               $INCLUDE (GRAUPNER_ULTRA_20A.INC)	; Select Graupner Ultra 20A pinout
                               ENDIF
                      2368     
                      2369     IF BESCNO == GRAUPNER_ULTRA_20A_TAIL
                               MODE 	EQU 	1				; Choose mode. Set to 1 for tail motor
                               $INCLUDE (GRAUPNER_ULTRA_20A.INC)	; Select Graupner Ultra 20A pinout
                               ENDIF
                      2373     
                      2374     IF BESCNO == GRAUPNER_ULTRA_20A_MULTI
                               MODE 	EQU 	2				; Choose mode. Set to 2 for multirotor
                               $INCLUDE (GRAUPNER_ULTRA_20A.INC)	; Select Graupner Ultra 20A pinout
                               ENDIF
                      2378     
                      2379     IF BESCNO == F85_3A_MAIN
                               MODE 	EQU 	0				; Choose mode. Set to 0 for main motor
                               $INCLUDE (F85_3A.INC)			; Select F85 3A pinout
                               ENDIF
                      2383     
                      2384     IF BESCNO == F85_3A_TAIL
                               MODE 	EQU 	1				; Choose mode. Set to 1 for tail motor
                               $INCLUDE (F85_3A.INC)			; Select F85 3A pinout
                               ENDIF
                      2388     
                      2389     IF BESCNO == F85_3A_MULTI
                               MODE 	EQU 	2				; Choose mode. Set to 2 for multirotor
                               $INCLUDE (F85_3A.INC)			; Select F85 3A pinout
                               ENDIF
                      2393     
                      2394     IF BESCNO == ZTW_SPIDER_PRO_20A_MAIN
                               MODE 	EQU 	0				; Choose mode. Set to 0 for main motor
                               $INCLUDE (ZTW_SPIDER_PRO_20A.INC)	; Select ZTW Spider Pro 20A pinout
                               ENDIF
                      2398     
                      2399     IF BESCNO == ZTW_SPIDER_PRO_20A_TAIL
                               MODE 	EQU 	1				; Choose mode. Set to 1 for tail motor
                               $INCLUDE (ZTW_SPIDER_PRO_20A.INC)	; Select ZTW Spider Pro 20A pinout
                               ENDIF
                      2403     
                      2404     IF BESCNO == ZTW_SPIDER_PRO_20A_MULTI
                               MODE 	EQU 	2				; Choose mode. Set to 2 for multirotor
                               $INCLUDE (ZTW_SPIDER_PRO_20A.INC)	; Select ZTW Spider Pro 20A pinout
                               ENDIF
                      2408     
                      2409     
                      2410     ;**** **** **** **** ****
                      2411     ; TX programming defaults
                      2412     ;
                      2413     ; Parameter dependencies:
                      2414     ; - Governor P gain, I gain and Range is only used if one of the three governor modes is selected
                      2415     ; - Governor setup target is only used if Setup governor mode is selected (or closed loop mode is on for multi)
                      2416     ;
                      2417     ; MAIN
  0007                2418     DEFAULT_PGM_MAIN_P_GAIN 			EQU 7 	; 1=0.13		2=0.17		3=0.25		4=0.38 		5=0.50 	6=0.75 	7=1.00 8=1.5 9=2.0 10=3.0 11=4.0 12=6.0 13=8.0
  0007                2419     DEFAULT_PGM_MAIN_I_GAIN 			EQU 7 	; 1=0.13		2=0.17		3=0.25		4=0.38 		5=0.50 	6=0.75 	7=1.00 8=1.5 9=2.0 10=3.0 11=4.0 12=6.0 13=8.0
  0001                2420     DEFAULT_PGM_MAIN_GOVERNOR_MODE 	EQU 1 	; 1=Tx 		2=Arm 		3=Setup		4=Off
  0001                2421     DEFAULT_PGM_MAIN_GOVERNOR_RANGE 	EQU 1 	; 1=High		2=Middle		3=Low
  0004                2422     DEFAULT_PGM_MAIN_LOW_VOLTAGE_LIM	EQU 4 	; 1=Off		2=3.0V/c		3=3.1V/c		4=3.2V/c		5=3.3V/c	6=3.4V/c
  0003                2423     DEFAULT_PGM_MAIN_COMM_TIMING		EQU 3 	; 1=Low 		2=MediumLow 	3=Medium 		4=MediumHigh 	5=High
                      2424     IF DAMPED_MODE_ENABLE == 1
  0002                2425     DEFAULT_PGM_MAIN_PWM_FREQ 		EQU 2 	; 1=High 		2=Low		3=DampedLight
                      2426     ELSE
                               DEFAULT_PGM_MAIN_PWM_FREQ 		EQU 2 	; 1=High 		2=Low	
                               ENDIF
  0001                2429     DEFAULT_PGM_MAIN_DEMAG_COMP 		EQU 1 	; 1=Disabled	2=Low		3=High
  0001                2430     DEFAULT_PGM_MAIN_DIRECTION		EQU 1 	; 1=Normal 	2=Reversed
  0001                2431     DEFAULT_PGM_MAIN_RCP_PWM_POL 		EQU 1 	; 1=Positive 	2=Negative
  00B4                2432     DEFAULT_PGM_MAIN_GOV_SETUP_TARGET	EQU 180	; Target for governor in setup mode. Corresponds to 70% throttle
  0000                2433     DEFAULT_PGM_MAIN_REARM_START		EQU 0 	; 1=Enabled 	0=Disabled
  0078                2434     DEFAULT_PGM_MAIN_BEEP_STRENGTH	EQU 120	; Beep strength
  00C8                2435     DEFAULT_PGM_MAIN_BEACON_STRENGTH	EQU 200	; Beacon strength
  0004                2436     DEFAULT_PGM_MAIN_BEACON_DELAY		EQU 4 	; 1=1m		2=2m			3=5m			4=10m		5=Infinite
                      2437     
                      2438     ; TAIL
  0003                2439     DEFAULT_PGM_TAIL_GAIN 			EQU 3 	; 1=0.75 		2=0.88 		3=1.00 		4=1.12 		5=1.25
  0004                2440     DEFAULT_PGM_TAIL_IDLE_SPEED 		EQU 4 	; 1=Low 		2=MediumLow 	3=Medium 		4=MediumHigh 	5=High
  0003                2441     DEFAULT_PGM_TAIL_COMM_TIMING		EQU 3 	; 1=Low 		2=MediumLow 	3=Medium 		4=MediumHigh 	5=High
                      2442     IF DAMPED_MODE_ENABLE == 1
  0003                2443     DEFAULT_PGM_TAIL_PWM_FREQ	 	EQU 3 	; 1=High 		2=Low 		3=DampedLight 
                      2444     ELSE
                               DEFAULT_PGM_TAIL_PWM_FREQ	 	EQU 1 	; 1=High 		2=Low		
                               ENDIF
  0001                2447     DEFAULT_PGM_TAIL_DEMAG_COMP 		EQU 1 	; 1=Disabled	2=Low		3=High
  0001                2448     DEFAULT_PGM_TAIL_DIRECTION		EQU 1 	; 1=Normal 	2=Reversed	3=Bidirectional
  0001                2449     DEFAULT_PGM_TAIL_RCP_PWM_POL 		EQU 1 	; 1=Positive 	2=Negative
  00FA                2450     DEFAULT_PGM_TAIL_BEEP_STRENGTH	EQU 250	; Beep strength
  00FA                2451     DEFAULT_PGM_TAIL_BEACON_STRENGTH	EQU 250	; Beacon strength
  0004                2452     DEFAULT_PGM_TAIL_BEACON_DELAY		EQU 4 	; 1=1m		2=2m			3=5m			4=10m		5=Infinite
  0003                2453     DEFAULT_PGM_TAIL_PWM_DITHER		EQU 3 	; 1=Off		2=7			3=15			4=31			5=63
                      2454     
                      2455     ; MULTI
  0009                2456     DEFAULT_PGM_MULTI_P_GAIN 		EQU 9 	; 1=0.13		2=0.17		3=0.25		4=0.38 		5=0.50 	6=0.75 	7=1.00 8=1.5 9=2.0 10=3.0 11=4.0 12=6.0 13=8.0
  0009                2457     DEFAULT_PGM_MULTI_I_GAIN 		EQU 9 	; 1=0.13		2=0.17		3=0.25		4=0.38 		5=0.50 	6=0.75 	7=1.00 8=1.5 9=2.0 10=3.0 11=4.0 12=6.0 13=8.0
  0004                2458     DEFAULT_PGM_MULTI_GOVERNOR_MODE 	EQU 4 	; 1=HiRange	2=MidRange	3=LoRange		4=Off
  0003                2459     DEFAULT_PGM_MULTI_GAIN 			EQU 3 	; 1=0.75 		2=0.88 		3=1.00 		4=1.12 		5=1.25
  0003                2460     DEFAULT_PGM_MULTI_COMM_TIMING		EQU 3 	; 1=Low 		2=MediumLow 	3=Medium 		4=MediumHigh 	5=High
                      2461     IF DAMPED_MODE_ENABLE == 1
  0001                2462     DEFAULT_PGM_MULTI_PWM_FREQ	 	EQU 1 	; 1=High 		2=Low 		3=DampedLight 
                      2463     ELSE
                               DEFAULT_PGM_MULTI_PWM_FREQ	 	EQU 1 	; 1=High 		2=Low
                               ENDIF
  0002                2466     DEFAULT_PGM_MULTI_DEMAG_COMP 		EQU 2 	; 1=Disabled	2=Low		3=High
  0001                2467     DEFAULT_PGM_MULTI_DIRECTION		EQU 1 	; 1=Normal 	2=Reversed	3=Bidirectional
  0001                2468     DEFAULT_PGM_MULTI_RCP_PWM_POL 	EQU 1 	; 1=Positive 	2=Negative
  0028                2469     DEFAULT_PGM_MULTI_BEEP_STRENGTH	EQU 40	; Beep strength
  0050                2470     DEFAULT_PGM_MULTI_BEACON_STRENGTH	EQU 80	; Beacon strength
  0004                2471     DEFAULT_PGM_MULTI_BEACON_DELAY	EQU 4 	; 1=1m		2=2m			3=5m			4=10m		5=Infinite
  0003                2472     DEFAULT_PGM_MULTI_PWM_DITHER		EQU 3 	; 1=Off		2=7			3=15			4=31			5=63
                      2473     
                      2474     ; COMMON
  0001                2475     DEFAULT_PGM_ENABLE_TX_PROGRAM 	EQU 1 	; 1=Enabled 	0=Disabled
  0025                2476     DEFAULT_PGM_PPM_MIN_THROTTLE		EQU 37	; 4*37+1000=1148
  00D0                2477     DEFAULT_PGM_PPM_MAX_THROTTLE		EQU 208	; 4*208+1000=1832
  007A                2478     DEFAULT_PGM_PPM_CENTER_THROTTLE	EQU 122	; 4*122+1000=1488 (used in bidirectional mode)
  0000                2479     DEFAULT_PGM_BEC_VOLTAGE_HIGH		EQU 0	; 0=Low		1+= High or higher	
  0001                2480     DEFAULT_PGM_ENABLE_TEMP_PROT	 	EQU 1 	; 1=Enabled 	0=Disabled
  0001                2481     DEFAULT_PGM_ENABLE_POWER_PROT 	EQU 1 	; 1=Enabled 	0=Disabled
  0000                2482     DEFAULT_PGM_ENABLE_PWM_INPUT	 	EQU 0 	; 1=Enabled 	0=Disabled
                      2483     
                      2484     ; PATRICK'S CHANGES
  002B                2485     MOTOR_PPM_LOW_SLOPE				EQU 43   ; 256/6 = 43; Slope is 1/6 -Patrick
  008E                2486     MOTOR_PPM_HIGH_SLOPE			EQU 142  ; Slope = 2.254 modifier = 63 * 2.254 to avoid overflow -Patrick
  0099                2487     MOTOR_PPM_REMAP_THRESHOLD		EQU 153  ; Threshold is at 60% throttle 255*.6 = 153 -Patrick
  001D                2488     MOTOR_PPM_REMAP_THRESHOLD_VALUE	EQU 29   ; (255/6) * .6: Threshold is at 60% throttle, value = (threshold/6) + 4 for final offset -Patrick
                      2489     
                      2490     ;**** **** **** **** ****
                      2491     ; Constant definitions for main
                      2492     IF MODE == 0
                               
                               GOV_SPOOLRATE		EQU	2	; Number of steps for governor requested pwm per 32ms
                               RCP_TIMEOUT_PPM	EQU	10	; Number of timer2H overflows (about 32ms) before considering rc pulse lost
                               RCP_TIMEOUT		EQU	64	; Number of timer2L overflows (about 128us) before considering rc pulse lost
                               RCP_SKIP_RATE		EQU 	32	; Number of timer2L overflows (about 128us) before reenabling rc pulse detection
                               RCP_MIN			EQU 	0	; This is minimum RC pulse length
                               RCP_MAX			EQU 	255	; This is maximum RC pulse length
                               RCP_VALIDATE		EQU 	2	; Require minimum this pulse length to validate RC pulse
                               RCP_STOP			EQU 	1	; Stop motor at or below this pulse length
                               RCP_STOP_LIMIT		EQU 	250	; Stop motor if this many timer2H overflows (~32ms) are below stop limit
                               
                               PWM_START			EQU	50 	; PWM used as max power during start
                               
                               COMM_TIME_MIN		EQU 	1	; Minimum time (in us) for commutation wait
                               
                               TEMP_CHECK_RATE	EQU 	8	; Number of adc conversions for each check of temperature (the other conversions are used for voltage)
                               
                               ENDIF
                      2511     ; Constant definitions for tail
                      2512     IF MODE == 1
                               
                               GOV_SPOOLRATE		EQU	1	; Number of steps for governor requested pwm per 32ms
                               RCP_TIMEOUT_PPM	EQU	10	; Number of timer2H overflows (about 32ms) before considering rc pulse lost
                               RCP_TIMEOUT		EQU 	24	; Number of timer2L overflows (about 128us) before considering rc pulse lost
                               RCP_SKIP_RATE		EQU 	6	; Number of timer2L overflows (about 128us) before reenabling rc pulse detection
                               RCP_MIN			EQU 	0	; This is minimum RC pulse length
                               RCP_MAX			EQU 	255	; This is maximum RC pulse length
                               RCP_VALIDATE		EQU 	2	; Require minimum this pulse length to validate RC pulse
                               RCP_STOP			EQU 	1	; Stop motor at or below this pulse length
                               RCP_STOP_LIMIT		EQU 	130	; Stop motor if this many timer2H overflows (~32ms) are below stop limit
                               
                               PWM_START			EQU	50 	; PWM used as max power during start
                               
                               COMM_TIME_MIN		EQU 	1	; Minimum time (in us) for commutation wait
                               
                               TEMP_CHECK_RATE	EQU 	8	; Number of adc conversions for each check of temperature (the other conversions are used for voltage)
                               
                               ENDIF
                      2531     ; Constant definitions for multi
                      2532     IF MODE == 2
                      2533     
  0001                2534     GOV_SPOOLRATE		EQU	1	; Number of steps for governor requested pwm per 32ms
  000A                2535     RCP_TIMEOUT_PPM	EQU	10	; Number of timer2H overflows (about 32ms) before considering rc pulse lost
  0018                2536     RCP_TIMEOUT		EQU 	24	; Number of timer2L overflows (about 128us) before considering rc pulse lost
  0006                2537     RCP_SKIP_RATE		EQU 	6	; Number of timer2L overflows (about 128us) before reenabling rc pulse detection
  0000                2538     RCP_MIN			EQU 	0	; This is minimum RC pulse length
  00FF                2539     RCP_MAX			EQU 	255	; This is maximum RC pulse length
  0002                2540     RCP_VALIDATE		EQU 	2	; Require minimum this pulse length to validate RC pulse
  0001                2541     RCP_STOP			EQU 	1	; Stop motor at or below this pulse length
  00FA                2542     RCP_STOP_LIMIT		EQU 	250	; Stop motor if this many timer2H overflows (~32ms) are below stop limit
                      2543     
  0032                2544     PWM_START			EQU	50 	; PWM used as max power during start
                      2545     
  0001                2546     COMM_TIME_MIN		EQU 	1	; Minimum time (in us) for commutation wait
                      2547     
  0008                2548     TEMP_CHECK_RATE	EQU 	8	; Number of adc conversions for each check of temperature (the other conversions are used for voltage)
                      2549     
                      2550     ENDIF
                      2551     
                      2552     ;**** **** **** **** ****
                      2553     ; Temporary register definitions
  REG                 2554     TEMP1		EQU	R0
  REG                 2555     TEMP2		EQU	R1
  REG                 2556     TEMP3		EQU	R2
  REG                 2557     TEMP4		EQU	R3
  REG                 2558     TEMP5		EQU	R4
  REG                 2559     TEMP6		EQU	R5
  REG                 2560     TEMP7		EQU	R6
  REG                 2561     TEMP8		EQU	R7
                      2562     
                      2563     ;**** **** **** **** ****
                      2564     ; Register definitions
------                2565     DSEG AT 20H					; Variables segment 
                      2566     
0020                  2567     BIT_ACCESS: 				DS	1		; MUST BE AT THIS ADDRESS. Variable at bit accessible address (for non interrupt routines)
0021                  2568     BIT_ACCESS_INT: 			DS	1		; Variable at bit accessible address (for interrupts)
                      2569     
0022                  2570     REQUESTED_PWM: 				DS	1		; Requested pwm (from RC pulse value)
0023                  2571     GOVERNOR_REQ_PWM: 			DS	1		; Governor requested pwm (sets governor target)
0024                  2572     CURRENT_PWM: 				DS	1		; Current pwm
0025                  2573     CURRENT_PWM_LIMITED: 		DS	1		; Current pwm that is limited
0026                  2574     CURRENT_PWM_LIM_DITH: 		DS	1		; Current pwm that is limited and dithered (applied to the motor output)
0027                  2575     RCP_PREV_EDGE_L: 			DS	1		; RC pulse previous edge timer3 timestamp (lo byte)
0028                  2576     RCP_PREV_EDGE_H: 			DS	1		; RC pulse previous edge timer3 timestamp (hi byte)
0029                  2577     RCP_OUTSIDE_RANGE_CNT: 		DS	1		; RC pulse outside range counter (incrementing) 
002A                  2578     RCP_TIMEOUT_CNT: 			DS	1		; RC pulse timeout counter (decrementing) 
002B                  2579     RCP_SKIP_CNT: 				DS	1		; RC pulse skip counter (decrementing) 
                      2580     
002C                  2581     FLAGS0: 					DS	1    	; State flags. Reset upon init_start
  0000                2582     T3_PENDING				EQU 	0		; Timer3 pending flag
  0001                2583     RCP_MEAS_PWM_FREQ			EQU	1		; Measure RC pulse pwm frequency
  0002                2584     PWM_ON					EQU	2		; Set in on part of pwm cycle
  0003                2585     PWM_TIMER0_OVERFLOW			EQU	3		; Set for 48MHz MCUs when PWM timer 0 overflows
  0004                2586     DEMAG_ENABLED				EQU 	4		; Set when demag compensation is enabled (above a min speed and throttle)
  0005                2587     DEMAG_DETECTED				EQU 	5		; Set when excessive demag time is detected
  0006                2588     DEMAG_CUT_POWER			EQU 	6		; Set when demag compensation cuts power
  0007                2589     HIGH_RPM					EQU 	7		; Set when motor rpm is high (Comm_Period4x_H less than 2)
                      2590     
002D                  2591     FLAGS1: 					DS	1    	; State flags. Reset upon init_start 
  0000                2592     MOTOR_SPINNING				EQU	0		; Set when in motor is spinning
  0001                2593     STARTUP_PHASE				EQU 	1		; Set when in startup phase
  0002                2594     INITIAL_RUN_PHASE			EQU	2		; Set when in initial run phase, before synchronized run is achieved
  0003                2595     DIR_CHANGE_BRAKE			EQU 	3		; Set when braking before direction change
  0004                2596     COMP_TIMED_OUT				EQU 	4		; Set when comparator reading timed out
  0005                2597     GOV_ACTIVE				EQU 	5		; Set when governor is active (enabled when speed is above minimum)
  0006                2598     SKIP_DAMP_ON				EQU 	6 		; Set when turning damping fet on is skipped
                      2599     ;						EQU 	7 		
                      2600     
002E                  2601     FLAGS2: 					DS	1		; State flags. NOT reset upon init_start
  0000                2602     RCP_UPDATED				EQU 	0		; New RC pulse length value available
  0001                2603     RCP_EDGE_NO				EQU 	1		; RC pulse edge no. 0=rising, 1=falling
  0002                2604     PGM_PWMOFF_DAMPED			EQU	2		; Programmed pwm off damped mode
  0003                2605     PGM_PWM_HIGH_FREQ			EQU	3		; Progremmed pwm high frequency
  0004                2606     RCP_PPM					EQU 	4		; RC pulse ppm type input (set also when oneshot is set)
  0005                2607     RCP_PPM_ONESHOT125			EQU 	5		; RC pulse ppm type input is OneShot125
  0006                2608     RCP_DIR_REV				EQU 	6		; RC pulse direction in bidirectional mode
                      2609     ;						EQU 	7	
                      2610     
002F                  2611     FLAGS3: 					DS	1		; State flags. NOT reset upon init_start
  0000                2612     RCP_PWM_FREQ_1KHZ			EQU 	0		; RC pulse pwm frequency is 1kHz
  0001                2613     RCP_PWM_FREQ_2KHZ			EQU 	1		; RC pulse pwm frequency is 2kHz
  0002                2614     RCP_PWM_FREQ_4KHZ			EQU 	2		; RC pulse pwm frequency is 4kHz
  0003                2615     RCP_PWM_FREQ_8KHZ			EQU 	3		; RC pulse pwm frequency is 8kHz
  0004                2616     RCP_PWM_FREQ_12KHZ			EQU 	4		; RC pulse pwm frequency is 12kHz
  0005                2617     PGM_DIR_REV				EQU 	5		; Programmed direction. 0=normal, 1=reversed
  0006                2618     PGM_RCP_PWM_POL			EQU	6		; Programmed RC pulse pwm polarity. 0=positive, 1=negative
  0007                2619     FULL_THROTTLE_RANGE			EQU 	7		; When set full throttle range is used (1000-2000us) and stored calibration values are ignored
                      2620     
                      2621     
                      2622     ;**** **** **** **** ****
                      2623     ; RAM definitions
------                2624     DSEG AT 30H						; Ram data segment, direct addressing
                      2625     
0030                  2626     INITIAL_ARM: 				DS	1		; Variable that is set during the first arm sequence after power on
                      2627     
0031                  2628     POWER_ON_WAIT_CNT_L:  		DS	1		; Power on wait counter (lo byte)
0032                  2629     POWER_ON_WAIT_CNT_H:  		DS	1		; Power on wait counter (hi byte)
                      2630     
0033                  2631     STARTUP_CNT: 				DS	1		; Startup phase commutations counter (incrementing)
0034                  2632     INITIAL_RUN_ROT_CNT: 		DS	1		; Initial run rotations counter (incrementing)
0035                  2633     STALL_CNT: 				DS	1		; Counts start/run attempts that resulted in stall. Reset upon a proper stop
0036                  2634     DEMAG_DETECTED_METRIC: 		DS	1		; Metric used to gauge demag event frequency
0037                  2635     DEMAG_PWR_OFF_THRESH: 		DS	1		; Metric threshold above which power is cut
0038                  2636     LOW_RPM_PWR_SLOPE: 			DS	1		; Sets the slope of power increase for low rpms
                      2637     
0039                  2638     PREV_COMM_L: 				DS	1		; Previous commutation timer3 timestamp (lo byte)
003A                  2639     PREV_COMM_H: 				DS	1		; Previous commutation timer3 timestamp (hi byte)
003B                  2640     PREV_PREV_COMM_L: 			DS	1		; Pre-previous commutation timer3 timestamp (lo byte)
003C                  2641     PREV_PREV_COMM_H: 			DS	1		; Pre-previous commutation timer3 timestamp (hi byte)
003D                  2642     COMM_PERIOD4X_L: 			DS	1		; Timer3 counts between the last 4 commutations (lo byte)
003E                  2643     COMM_PERIOD4X_H: 			DS	1		; Timer3 counts between the last 4 commutations (hi byte)
003F                  2644     COMM_DIFF: 				DS	1		; Timer3 count difference between the last two commutations
0040                  2645     COMM_PHASE: 				DS	1		; Current commutation phase
0041                  2646     COMPARATOR_READ_CNT:  		DS	1		; Number of comparator reads done
                      2647     
0042                  2648     GOV_TARGET_L: 				DS	1		; Governor target (lo byte)
0043                  2649     GOV_TARGET_H: 				DS	1		; Governor target (hi byte)
0044                  2650     GOV_INTEGRAL_L: 			DS	1		; Governor integral error (lo byte)
0045                  2651     GOV_INTEGRAL_H: 			DS	1		; Governor integral error (hi byte)
0046                  2652     GOV_INTEGRAL_X: 			DS	1		; Governor integral error (ex byte)
0047                  2653     GOV_PROPORTIONAL_L: 			DS	1		; Governor proportional error (lo byte)
0048                  2654     GOV_PROPORTIONAL_H: 			DS	1		; Governor proportional error (hi byte)
0049                  2655     GOV_PROP_PWM: 				DS	1		; Governor calculated new pwm based upon proportional error
004A                  2656     GOV_ARM_TARGET: 			DS	1		; Governor arm target value
                      2657     
004B                  2658     WT_ADV_START_L: 			DS	1		; Timer3 start point for commutation advance timing (lo byte)
004C                  2659     WT_ADV_START_H: 			DS	1		; Timer3 start point for commutation advance timing (hi byte)
004D                  2660     WT_ZC_SCAN_START_L: 			DS	1		; Timer3 start point from commutation to zero cross scan (lo byte)
004E                  2661     WT_ZC_SCAN_START_H: 			DS	1		; Timer3 start point from commutation to zero cross scan (hi byte)
004F                  2662     WT_ZC_TOUT_START_L: 			DS	1		; Timer3 start point for zero cross scan timeout (lo byte)
0050                  2663     WT_ZC_TOUT_START_H: 			DS	1		; Timer3 start point for zero cross scan timeout (hi byte)
0051                  2664     WT_COMM_START_L: 			DS	1		; Timer3 start point from zero cross to commutation (lo byte)
0052                  2665     WT_COMM_START_H: 			DS	1		; Timer3 start point from zero cross to commutation (hi byte)
0053                  2666     NEXT_WT_START_L: 			DS	1		; Timer3 start point for next wait period (lo byte)
0054                  2667     NEXT_WT_START_H: 			DS	1		; Timer3 start point for next wait period (hi byte)
                      2668     
0055                  2669     RCP_PREPREV_EDGE_L: 			DS	1		; RC pulse pre previous edge pca timestamp (lo byte)
0056                  2670     RCP_PREPREV_EDGE_H: 			DS	1		; RC pulse pre previous edge pca timestamp (hi byte)
0057                  2671     RCP_EDGE_L: 				DS	1		; RC pulse edge pca timestamp (lo byte)
0058                  2672     RCP_EDGE_H: 				DS	1		; RC pulse edge pca timestamp (hi byte)
0059                  2673     RCP_PREV_PERIOD_L: 			DS	1		; RC pulse previous period (lo byte)
005A                  2674     RCP_PREV_PERIOD_H: 			DS	1		; RC pulse previous period (hi byte)
005B                  2675     RCP_PERIOD_DIFF_ACCEPTED: 	DS	1		; RC pulse period difference acceptable
005C                  2676     NEW_RCP: 					DS	1		; New RC pulse value in pca counts
005D                  2677     PREV_RCP_PWM_FREQ: 			DS	1		; Previous RC pulse pwm frequency (used during pwm frequency measurement)
005E                  2678     CURR_RCP_PWM_FREQ: 			DS	1		; Current RC pulse pwm frequency (used during pwm frequency measurement)
005F                  2679     RCP_STOP_CNT: 				DS	1		; Counter for RC pulses below stop value
0060                  2680     AUTO_BAILOUT_ARMED: 			DS	1		; Set when auto rotation bailout is armed 
                      2681     
0061                  2682     PWM_LIMIT: 				DS	1		; Maximum allowed pwm 
0062                  2683     PWM_LIMIT_SPOOLUP: 			DS	1		; Maximum allowed pwm during spoolup
0063                  2684     PWM_LIMIT_BY_RPM: 			DS	1		; Maximum allowed pwm for low or high rpms
0064                  2685     PWM_SPOOLUP_BEG: 			DS	1		; Pwm to begin main spoolup with
0065                  2686     PWM_MOTOR_IDLE: 			DS	1		; Motor idle speed pwm
0066                  2687     PWM_DITHER_DECODED: 			DS	1		; Decoded pwm dither value
0067                  2688     PWM_DITHER_EXCESS_POWER: 		DS	1		; Excess power (above max) from pwm dither
0068                  2689     RANDOM: 					DS	1		; Random number from LFSR 
                      2690     
0069                  2691     SPOOLUP_LIMIT_CNT: 			DS	1		; Interrupt count for spoolup limit
006A                  2692     SPOOLUP_LIMIT_SKIP: 			DS	1		; Interrupt skips for spoolup limit increment (1=no skips, 2=skip one etc)
006B                  2693     MAIN_SPOOLUP_TIME_3X: 		DS	1		; Main spoolup time x3
006C                  2694     MAIN_SPOOLUP_TIME_10X: 		DS	1		; Main spoolup time x10
006D                  2695     MAIN_SPOOLUP_TIME_15X: 		DS	1		; Main spoolup time x15
                      2696     
006E                  2697     LIPO_ADC_LIMIT_L: 			DS	1		; Low voltage limit adc value (lo byte)
006F                  2698     LIPO_ADC_LIMIT_H: 			DS	1		; Low voltage limit adc value (hi byte)
0070                  2699     ADC_CONVERSION_CNT: 			DS	1		; Adc conversion counter
                      2700     
0071                  2701     CURRENT_AVERAGE_TEMP: 		DS	1		; Current average temperature (lo byte ADC reading, assuming hi byte is 1)
                      2702     
0072                  2703     PPM_THROTTLE_GAIN: 			DS	1		; Gain to be applied to RCP value for PPM input
0073                  2704     BEEP_STRENGTH: 				DS	1		; Strength of beeps
                      2705     
0074                  2706     TX_PGM_FUNC_NO: 			DS	1		; Function number when doing programming by tx
0075                  2707     TX_PGM_PARAVAL_NO: 			DS	1		; Parameter value number when doing programming by tx
0076                  2708     TX_PGM_BEEP_NO: 			DS	1		; Beep number when doing programming by tx
                      2709     
0077                  2710     SKIP_T2_INT: 				DS	1		; Set for 48MHz MCUs when timer 2 interrupt shall be ignored 
0078                  2711     SKIP_T2H_INT: 				DS	1		; Set for 48MHz MCUs when timer 2 high interrupt shall be ignored 
0079                  2712     TIMER0_OVERFLOW_VALUE: 		DS	1		; Remaining timer 0 wait time used with 48MHz MCUs
007A                  2713     CLOCK_SET_AT_48MHZ: 			DS	1		; Variable set if 48MHz MCUs run at 48MHz
007B                  2714     DAMPINGFET: 				DS	1		; Port position of fet used for damping
007C                  2715     CURRENT_PWM_LIMITED_REMAPPED: 	DS	1
007D                  2716     CURRENT_PWM_LIM_DITH_REMAPPED:  DS	1
                      2717     
                      2718     ; Indirect addressing data segment. The variables below must be in this sequence
------                2719     ISEG AT 080H					
0080                  2720     PGM_GOV_P_GAIN: 			DS	1		; Programmed governor P gain
0081                  2721     PGM_GOV_I_GAIN: 			DS	1		; Programmed governor I gain
0082                  2722     PGM_GOV_MODE: 				DS	1		; Programmed governor mode
0083                  2723     PGM_LOW_VOLTAGE_LIM: 		DS	1		; Programmed low voltage limit
0084                  2724     PGM_MOTOR_GAIN: 			DS	1		; Programmed motor gain
0085                  2725     PGM_MOTOR_IDLE: 			DS	1		; Programmed motor idle speed
0086                  2726     PGM_STARTUP_PWR: 			DS	1		; Programmed startup power
0087                  2727     PGM_PWM_FREQ: 				DS	1		; Programmed pwm frequency
0088                  2728     PGM_DIRECTION: 				DS	1		; Programmed rotation direction
0089                  2729     PGM_INPUT_POL: 				DS	1		; Programmed input pwm polarity
008A                  2730     INITIALIZED_L_DUMMY: 		DS	1		; Place holder
008B                  2731     INITIALIZED_H_DUMMY: 		DS	1		; Place holder
008C                  2732     PGM_ENABLE_TX_PROGRAM: 		DS 	1		; Programmed enable/disable value for TX programming
008D                  2733     PGM_MAIN_REARM_START: 		DS 	1		; Programmed enable/disable re-arming main every start 
008E                  2734     PGM_GOV_SETUP_TARGET: 		DS 	1		; Programmed main governor setup target
008F                  2735     _PGM_STARTUP_RPM: 			DS	1		; Programmed startup rpm (unused - place holder)
0090                  2736     _PGM_STARTUP_ACCEL: 			DS	1		; Programmed startup acceleration (unused - place holder)
0091                  2737     _PGM_VOLT_COMP: 			DS	1		; Place holder
0092                  2738     PGM_COMM_TIMING: 			DS	1		; Programmed commutation timing
0093                  2739     _PGM_DAMPING_FORCE: 			DS	1		; Programmed damping force (unused - place holder)
0094                  2740     PGM_GOV_RANGE: 				DS	1		; Programmed governor range
0095                  2741     _PGM_STARTUP_METHOD: 		DS	1		; Programmed startup method (unused - place holder)
0096                  2742     PGM_PPM_MIN_THROTTLE: 		DS	1		; Programmed throttle minimum
0097                  2743     PGM_PPM_MAX_THROTTLE: 		DS	1		; Programmed throttle maximum
0098                  2744     PGM_BEEP_STRENGTH: 			DS	1		; Programmed beep strength
0099                  2745     PGM_BEACON_STRENGTH: 		DS	1		; Programmed beacon strength
009A                  2746     PGM_BEACON_DELAY: 			DS	1		; Programmed beacon delay
009B                  2747     _PGM_THROTTLE_RATE: 			DS	1		; Programmed throttle rate (unused - place holder)
009C                  2748     PGM_DEMAG_COMP: 			DS	1		; Programmed demag compensation
009D                  2749     PGM_BEC_VOLTAGE_HIGH: 		DS	1		; Programmed BEC voltage
009E                  2750     PGM_PPM_CENTER_THROTTLE: 		DS	1		; Programmed throttle center (in bidirectional mode)
009F                  2751     PGM_MAIN_SPOOLUP_TIME: 		DS	1		; Programmed main spoolup time
00A0                  2752     PGM_ENABLE_TEMP_PROT: 		DS	1		; Programmed temperature protection enable
00A1                  2753     PGM_ENABLE_POWER_PROT: 		DS	1		; Programmed low rpm power protection enable
00A2                  2754     PGM_ENABLE_PWM_INPUT: 		DS	1		; Programmed PWM input signal enable
00A3                  2755     PGM_PWM_DITHER: 			DS	1		; Programmed output PWM dither
                      2756     
                      2757     ; The sequence of the variables below is no longer of importance
00A4                  2758     PGM_GOV_P_GAIN_DECODED: 		DS	1		; Programmed governor decoded P gain
00A5                  2759     PGM_GOV_I_GAIN_DECODED: 		DS	1		; Programmed governor decoded I gain
00A6                  2760     PGM_STARTUP_PWR_DECODED: 		DS	1		; Programmed startup power decoded
                      2761     
                      2762     
                      2763     ; Indirect addressing data segment
------                2764     ISEG AT 0D0H					
00D0                  2765     TAG_TEMPORARY_STORAGE: 		DS	48		; Temporary storage for tags when updating "Eeprom"
                      2766     
                      2767     
                      2768     ;**** **** **** **** ****
------                2769     CSEG AT 1A00H            ; "Eeprom" segment
  000E                2770     EEPROM_FW_MAIN_REVISION		EQU	14		; Main revision of the firmware
  0003                2771     EEPROM_FW_SUB_REVISION		EQU	3		; Sub revision of the firmware
  0014                2772     EEPROM_LAYOUT_REVISION		EQU	20		; Revision of the EEPROM layout
                      2773     
1A00    0E            2774     EEP_FW_MAIN_REVISION:  DB 14 
1A01    03            2775     EEP_FW_SUB_REVISION:  DB 3 
1A02    14            2776     EEP_LAYOUT_REVISION:  DB 20 
                      2777     
                      2778     IF MODE == 0
                               EEP_PGM_GOV_P_GAIN:			DB	DEFAULT_PGM_MAIN_P_GAIN			; EEPROM copy of programmed governor P gain
                               EEP_PGM_GOV_I_GAIN:			DB	DEFAULT_PGM_MAIN_I_GAIN			; EEPROM copy of programmed governor I gain
                               EEP_PGM_GOV_MODE:			DB	DEFAULT_PGM_MAIN_GOVERNOR_MODE	; EEPROM copy of programmed governor mode
                               EEP_PGM_LOW_VOLTAGE_LIM:		DB	DEFAULT_PGM_MAIN_LOW_VOLTAGE_LIM	; EEPROM copy of programmed low voltage limit
                               _EEP_PGM_MOTOR_GAIN:		DB	0FFH							
                               _EEP_PGM_MOTOR_IDLE:		DB	0FFH							
                               EEP_PGM_STARTUP_PWR:		DB	DEFAULT_PGM_MAIN_STARTUP_PWR		; EEPROM copy of programmed startup power
                               EEP_PGM_PWM_FREQ:			DB	DEFAULT_PGM_MAIN_PWM_FREQ		; EEPROM copy of programmed pwm frequency
                               EEP_PGM_DIRECTION:			DB	DEFAULT_PGM_MAIN_DIRECTION		; EEPROM copy of programmed rotation direction
                               EEP_PGM_INPUT_POL:			DB	DEFAULT_PGM_MAIN_RCP_PWM_POL		; EEPROM copy of programmed input polarity
                               EEP_INITIALIZED_L:			DB	0A5H							; EEPROM initialized signature low byte
                               EEP_INITIALIZED_H:			DB	05AH							; EEPROM initialized signature high byte
                               EEP_ENABLE_TX_PROGRAM:		DB	DEFAULT_PGM_ENABLE_TX_PROGRAM		; EEPROM TX programming enable
                               EEP_MAIN_REARM_START:		DB	DEFAULT_PGM_MAIN_REARM_START		; EEPROM re-arming main enable
                               EEP_PGM_GOV_SETUP_TARGET:	DB	DEFAULT_PGM_MAIN_GOV_SETUP_TARGET	; EEPROM main governor setup target
                               _EEP_PGM_STARTUP_RPM:		DB	0FFH	
                               _EEP_PGM_STARTUP_ACCEL:		DB	0FFH	
                               _EEP_PGM_VOLT_COMP:			DB	0FFH	
                               EEP_PGM_COMM_TIMING:		DB	DEFAULT_PGM_MAIN_COMM_TIMING		; EEPROM copy of programmed commutation timing
                               _EEP_PGM_DAMPING_FORCE:		DB	0FFH						
                               EEP_PGM_GOV_RANGE:			DB	DEFAULT_PGM_MAIN_GOVERNOR_RANGE	; EEPROM copy of programmed governor range
                               _EEP_PGM_STARTUP_METHOD:		DB	0FFH	
                               EEP_PGM_PPM_MIN_THROTTLE:	DB	DEFAULT_PGM_PPM_MIN_THROTTLE		; EEPROM copy of programmed minimum throttle (final value is 4x+1000=1148)
                               EEP_PGM_PPM_MAX_THROTTLE:	DB	DEFAULT_PGM_PPM_MAX_THROTTLE		; EEPROM copy of programmed minimum throttle (final value is 4x+1000=1832)
                               EEP_PGM_BEEP_STRENGTH:		DB	DEFAULT_PGM_MAIN_BEEP_STRENGTH	; EEPROM copy of programmed beep strength
                               EEP_PGM_BEACON_STRENGTH:		DB	DEFAULT_PGM_MAIN_BEACON_STRENGTH	; EEPROM copy of programmed beacon strength
                               EEP_PGM_BEACON_DELAY:		DB	DEFAULT_PGM_MAIN_BEACON_DELAY		; EEPROM copy of programmed beacon delay
                               _EEP_PGM_THROTTLE_RATE:		DB	0FFH	
                               EEP_PGM_DEMAG_COMP:			DB	DEFAULT_PGM_MAIN_DEMAG_COMP		; EEPROM copy of programmed demag compensation
                               EEP_PGM_BEC_VOLTAGE_HIGH:	DB	DEFAULT_PGM_BEC_VOLTAGE_HIGH		; EEPROM copy of programmed BEC voltage
                               _EEP_PGM_PPM_CENTER_THROTTLE:	DB	0FFH							
                               EEP_PGM_MAIN_SPOOLUP_TIME:	DB	DEFAULT_PGM_MAIN_SPOOLUP_TIME		; EEPROM copy of programmed main spoolup time
                               EEP_PGM_TEMP_PROT_ENABLE:	DB	DEFAULT_PGM_ENABLE_TEMP_PROT		; EEPROM copy of programmed temperature protection enable
                               EEP_PGM_ENABLE_POWER_PROT:	DB	DEFAULT_PGM_ENABLE_POWER_PROT		; EEPROM copy of programmed low rpm power protection enable
                               EEP_PGM_ENABLE_PWM_INPUT:	DB	DEFAULT_PGM_ENABLE_PWM_INPUT		; EEPROM copy of programmed PWM input signal enable
                               _EEP_PGM_PWM_DITHER:		DB	0FFH	
                               ENDIF 
                      2816     
                      2817     IF MODE == 1
                               _EEP_PGM_GOV_P_GAIN:		DB	0FFH							
                               _EEP_PGM_GOV_I_GAIN:		DB	0FFH							
                               _EEP_PGM_GOV_MODE:			DB 	0FFH							
                               _EEP_PGM_LOW_VOLTAGE_LIM:	DB	0FFH							
                               EEP_PGM_MOTOR_GAIN:			DB	DEFAULT_PGM_TAIL_GAIN			; EEPROM copy of programmed tail gain
                               EEP_PGM_MOTOR_IDLE:			DB	DEFAULT_PGM_TAIL_IDLE_SPEED		; EEPROM copy of programmed tail idle speed
                               EEP_PGM_STARTUP_PWR:		DB	DEFAULT_PGM_TAIL_STARTUP_PWR		; EEPROM copy of programmed startup power
                               EEP_PGM_PWM_FREQ:			DB	DEFAULT_PGM_TAIL_PWM_FREQ		; EEPROM copy of programmed pwm frequency
                               EEP_PGM_DIRECTION:			DB	DEFAULT_PGM_TAIL_DIRECTION		; EEPROM copy of programmed rotation direction
                               EEP_PGM_INPUT_POL:			DB	DEFAULT_PGM_TAIL_RCP_PWM_POL		; EEPROM copy of programmed input polarity
                               EEP_INITIALIZED_L:			DB	05AH							; EEPROM initialized signature low byte
                               EEP_INITIALIZED_H:			DB	0A5H							; EEPROM initialized signature high byte
                               EEP_ENABLE_TX_PROGRAM:		DB	DEFAULT_PGM_ENABLE_TX_PROGRAM		; EEPROM TX programming enable
                               _EEP_MAIN_REARM_START:		DB	0FFH							
                               _EEP_PGM_GOV_SETUP_TARGET:	DB	0FFH							
                               _EEP_PGM_STARTUP_RPM:		DB	0FFH
                               _EEP_PGM_STARTUP_ACCEL:		DB	0FFH
                               _EEP_PGM_VOLT_COMP:			DB	0FFH	
                               EEP_PGM_COMM_TIMING:		DB	DEFAULT_PGM_TAIL_COMM_TIMING		; EEPROM copy of programmed commutation timing
                               _EEP_PGM_DAMPING_FORCE:		DB	0FFH
                               _EEP_PGM_GOV_RANGE:			DB	0FFH	
                               _EEP_PGM_STARTUP_METHOD:		DB	0FFH
                               EEP_PGM_PPM_MIN_THROTTLE:	DB	DEFAULT_PGM_PPM_MIN_THROTTLE		; EEPROM copy of programmed minimum throttle (final value is 4x+1000=1148)
                               EEP_PGM_PPM_MAX_THROTTLE:	DB	DEFAULT_PGM_PPM_MAX_THROTTLE		; EEPROM copy of programmed minimum throttle (final value is 4x+1000=1832)
                               EEP_PGM_BEEP_STRENGTH:		DB	DEFAULT_PGM_TAIL_BEEP_STRENGTH	; EEPROM copy of programmed beep strength
                               EEP_PGM_BEACON_STRENGTH:		DB	DEFAULT_PGM_TAIL_BEACON_STRENGTH	; EEPROM copy of programmed beacon strength
                               EEP_PGM_BEACON_DELAY:		DB	DEFAULT_PGM_TAIL_BEACON_DELAY		; EEPROM copy of programmed beacon delay
                               _EEP_PGM_THROTTLE_RATE:		DB	0FFH
                               EEP_PGM_DEMAG_COMP:			DB	DEFAULT_PGM_TAIL_DEMAG_COMP		; EEPROM copy of programmed demag compensation
                               EEP_PGM_BEC_VOLTAGE_HIGH:	DB	DEFAULT_PGM_BEC_VOLTAGE_HIGH		; EEPROM copy of programmed BEC voltage
                               EEP_PGM_PPM_CENTER_THROTTLE:	DB	DEFAULT_PGM_PPM_CENTER_THROTTLE	; EEPROM copy of programmed center throttle (final value is 4x+1000=1488)
                               _EEP_PGM_MAIN_SPOOLUP_TIME:	DB	0FFH
                               EEP_PGM_TEMP_PROT_ENABLE:	DB	DEFAULT_PGM_ENABLE_TEMP_PROT		; EEPROM copy of programmed temperature protection enable
                               EEP_PGM_ENABLE_POWER_PROT:	DB	DEFAULT_PGM_ENABLE_POWER_PROT		; EEPROM copy of programmed low rpm power protection enable
                               EEP_PGM_ENABLE_PWM_INPUT:	DB	DEFAULT_PGM_ENABLE_PWM_INPUT		; EEPROM copy of programmed PWM input signal enable
                               EEP_PGM_PWM_DITHER:			DB	DEFAULT_PGM_TAIL_PWM_DITHER		; EEPROM copy of programmed output PWM dither
                               ENDIF
                      2855     
                      2856     IF MODE == 2
1A03    09            2857     EEP_PGM_GOV_P_GAIN:  DB 9 
1A04    09            2858     EEP_PGM_GOV_I_GAIN:  DB 9 
1A05    04            2859     EEP_PGM_GOV_MODE:  DB 4 
1A06    FF            2860     _EEP_PGM_LOW_VOLTAGE_LIM: 	DB	0FFH							
1A07    03            2861     EEP_PGM_MOTOR_GAIN:  DB 3 
1A08    FF            2862     _EEP_PGM_MOTOR_IDLE: 		DB	0FFH							; EEPROM copy of programmed tail idle speed
1A09    09            2863     EEP_PGM_STARTUP_PWR:  DB 9 
1A0A    01            2864     EEP_PGM_PWM_FREQ:  DB 1 
1A0B    01            2865     EEP_PGM_DIRECTION:  DB 1 
1A0C    01            2866     EEP_PGM_INPUT_POL:  DB 1 
1A0D    55            2867     EEP_INITIALIZED_L: 			DB	055H							; EEPROM initialized signature low byte
1A0E    AA            2868     EEP_INITIALIZED_H: 			DB	0AAH							; EEPROM initialized signature high byte
1A0F    01            2869     EEP_ENABLE_TX_PROGRAM:  DB 1 
1A10    FF            2870     _EEP_MAIN_REARM_START: 		DB	0FFH							
1A11    FF            2871     _EEP_PGM_GOV_SETUP_TARGET: 	DB	0FFH							
1A12    FF            2872     _EEP_PGM_STARTUP_RPM: 		DB	0FFH
1A13    FF            2873     _EEP_PGM_STARTUP_ACCEL: 		DB	0FFH
1A14    FF            2874     _EEP_PGM_VOLT_COMP: 			DB	0FFH	
1A15    03            2875     EEP_PGM_COMM_TIMING:  DB 3 
1A16    FF            2876     _EEP_PGM_DAMPING_FORCE: 		DB	0FFH
1A17    FF            2877     _EEP_PGM_GOV_RANGE: 			DB	0FFH	
1A18    FF            2878     _EEP_PGM_STARTUP_METHOD: 		DB	0FFH
1A19    25            2879     EEP_PGM_PPM_MIN_THROTTLE:  DB 37 
1A1A    D0            2880     EEP_PGM_PPM_MAX_THROTTLE:  DB 208 
1A1B    28            2881     EEP_PGM_BEEP_STRENGTH:  DB 40 
1A1C    50            2882     EEP_PGM_BEACON_STRENGTH:  DB 80 
1A1D    04            2883     EEP_PGM_BEACON_DELAY:  DB 4 
1A1E    FF            2884     _EEP_PGM_THROTTLE_RATE: 		DB	0FFH
1A1F    02            2885     EEP_PGM_DEMAG_COMP:  DB 2 
1A20    00            2886     EEP_PGM_BEC_VOLTAGE_HIGH:  DB 0 
1A21    7A            2887     EEP_PGM_PPM_CENTER_THROTTLE:  DB 122 
1A22    FF            2888     _EEP_PGM_MAIN_SPOOLUP_TIME: 	DB	0FFH
1A23    01            2889     EEP_PGM_TEMP_PROT_ENABLE:  DB 1 
1A24    01            2890     EEP_PGM_ENABLE_POWER_PROT:  DB 1 
1A25    00            2891     EEP_PGM_ENABLE_PWM_INPUT:  DB 0 
1A26    03            2892     EEP_PGM_PWM_DITHER:  DB 3 
                      2893     ENDIF
                      2894     
1A27    FF            2895     EEP_DUMMY: 				DB	0FFH							; EEPROM address for safety reason
                      2896     
------                2897     CSEG AT 1A60H
1A60    20202020      2898     EEP_NAME: 					DB	"                "				; Name tag (16 Bytes)
1A64    20202020
1A68    20202020
1A6C    20202020
                      2899     
                      2900     ;**** **** **** **** ****
                      2901     INTERRUPT_TABLE_DEFINITION		; SiLabs interrupts
------                2901+1   CSEG AT 0  ; CODE SEGMENT START
0000    0219FD        2901+1   JMP RESET 
------                2901+1   CSEG AT 0BH  ; TIMER0 INTERRUPT	
000B    0200CF        2901+1   JMP T0_INT 
------                2901+1   CSEG AT 2BH  ; TIMER2 INTERRUPT	
002B    0201C7        2901+1   JMP T2_INT 
------                2901+1   CSEG AT 5BH  ; PCA INTERRUPT	
005B    020376        2901+1   JMP PCA_INT 
------                2901+1   CSEG AT 73H  ; TIMER3 INTERRUPT	
0073    02035C        2901+1   JMP T3_INT 
------                2902     CSEG AT 80H			; Code segment after interrupt vectors 
                      2903     
                      2904     ;**** **** **** **** ****
                      2905     
                      2906     ; Table definitions
0080    02030406      2907     GOV_GAIN_TABLE:    		DB 	02H, 03H, 04H, 06H, 08H, 0CH, 10H, 18H, 20H, 30H, 40H, 60H, 80H
0084    080C1018
0088    20304060
008C    80
008D    0406080C      2908     STARTUP_POWER_TABLE:   	DB 	04H, 06H, 08H, 0CH, 10H, 18H, 20H, 30H, 40H, 60H, 80H, 0A0H, 0C0H
0091    10182030
0095    406080A0
0099    C0
009A    00070F1F      2909     PWM_DITHER_TABLE:   		DB 	00H, 07H, 0FH, 1FH, 3FH
009E    3F
                      2910     IF MODE == 0
                                 IF DAMPED_MODE_ENABLE == 1
                               	TX_PGM_PARAMS_MAIN:  	DB 	13, 13, 4, 3, 6, 13, 5, 3, 3, 2, 2
                                 ENDIF
                                 IF DAMPED_MODE_ENABLE == 0
                               	TX_PGM_PARAMS_MAIN:  	DB 	13, 13, 4, 3, 6, 13, 5, 2, 3, 2, 2
                                 ENDIF
                               ENDIF
                      2918     IF MODE == 1
                                 IF DAMPED_MODE_ENABLE == 1
                               TX_PGM_PARAMS_TAIL:  	DB 	5, 5, 13, 5, 3, 5, 3, 3, 2
                                 ENDIF
                                 IF DAMPED_MODE_ENABLE == 0
                               TX_PGM_PARAMS_TAIL:  	DB 	5, 5, 13, 5, 2, 5, 3, 3, 2
                                 ENDIF
                               ENDIF
                      2926     IF MODE == 2
                      2927       IF DAMPED_MODE_ENABLE == 1
009F    0D0D0405      2928     TX_PGM_PARAMS_MULTI:   	DB 	13, 13, 4, 5, 13, 5, 3, 5, 3, 3, 2
00A3    0D050305
00A7    030302
                      2929       ENDIF
                      2930       IF DAMPED_MODE_ENABLE == 0
                               TX_PGM_PARAMS_MULTI:  	DB 	13, 13, 4, 5, 13, 5, 2, 5, 3, 3, 2
                                 ENDIF 
                      2933     ENDIF
                      2934     
                      2935     ; Subroutine remaps pwm value (implements throttle curve)
                      2936     ; Input: A holds value to be remapped and ranges from 0 to 255
                      2937     ; Output: A holds remapped value
                      2938     ; -Patrick
                      2939     MOTOR_PWM_REMAP: 
00AA    C0F0          2940         PUSH B
                      2941         ;Test if value is below or above threshold
00AC    C3            2942         CLR C
00AD    9499          2943     SUBB A , # 153 
00AF    4013          2944         JC REMAP_LOW_SLOPE
                      2945         
                      2946         ; If throttle higher than threshold use high slope
00B1    75F08E        2947     MOV B , # 142 
00B4    A4            2948         MUL  AB	 ; 16 bit product in BA
                      2949         ; compute BA << 2
00B5    33            2950         RLC  A
00B6    C5F0          2951         XCH A, B
00B8    33            2952         RLC  A  ; left shift MSB
00B9    C5F0          2953         XCH A, B
00BB    33            2954         RLC  A
00BC    C5F0          2955         XCH A, B 
00BE    33            2956         RLC  A  ; left shift MSB
00BF    241D          2957     ADD A , # 29 
00C1    D0F0          2958         POP  B
00C3    22            2959         RET
                      2960     
                      2961         REMAP_LOW_SLOPE: 
                      2962         ; If throttle less than threshold use low slope
00C4    2499          2963     ADD A , # 153 
00C6    75F02B        2964     MOV B , # 43 
00C9    A4            2965         MUL  AB
00CA    E5F0          2966         MOV  A, B ; Divide by 256
00CC    D0F0          2967         POP  B
00CE    22            2968         RET
                      2969     
                      2970     ;**** **** **** **** **** **** **** **** **** **** **** **** ****
                      2971     ;
                      2972     ; Timer0 interrupt routine
                      2973     ;
                      2974     ; Assumptions: DPTR register must be set to desired pwm_nfet_on label
                      2975     ; Requirements: Temp variables can NOT be used since PSW.3 is not set
                      2976     ;
                      2977     ;**** **** **** **** **** **** **** **** **** **** **** **** ****
                      2978     T0_INT: 	; Used for pwm control
00CF    C2AF          2979     	CLR 	EA			; Disable all interrupts
                      2980     IF MCU_48MHZ == 1
                      2981     	; Check overflow flag
00D1    306308        2982     JNB FLAGS0 . 3 , T0_INT_START 
                      2983     
00D4    C263          2984     CLR FLAGS0 . 3 
00D6    85798A        2985     	MOV	TL0, TIMER0_OVERFLOW_VALUE	; Set timer 
00D9    D2AF          2986     	SETB	EA			; Enable all interrupts
00DB    32            2987     	RETI
                      2988     
                      2989     T0_INT_START: 
                      2990     ENDIF
00DC    C0D0          2991     	PUSH	PSW			; Preserve registers through interrupt
00DE    C0E0          2992     	PUSH	ACC	
                      2993     	
                      2994     	; Scale Current_Pwm_Limited and Current_Pwm_Lim_Dith by MOTOR_PPM_LOW_SLOPE -Patrick
                      2995     
                      2996     	; Scale Current_Pwm_Limited -Patrick
00E0    E525          2997     	MOV	A, CURRENT_PWM_LIMITED
00E2    11AA          2998     	CALL MOTOR_PWM_REMAP
00E4    F57C          2999     	MOV  CURRENT_PWM_LIMITED_REMAPPED, A
                      3000     
                      3001     	; Scale Current_Pwm_Lim_Dith -Patrick
00E6    E526          3002     	MOV	A, CURRENT_PWM_LIM_DITH
00E8    11AA          3003     	CALL MOTOR_PWM_REMAP
00EA    F57D          3004     	MOV  CURRENT_PWM_LIM_DITH_REMAPPED, A
                      3005     
                      3006     	; Check if pwm is on
00EC    206227        3007     JB FLAGS0 . 2 , T0_INT_PWM_OFF 
                      3008     
                      3009     	; Pwm on cycle
00EF    E57C          3010     	MOV	A, CURRENT_PWM_LIMITED_REMAPPED ; Replace with remapped value -Patrick
00F1    6002          3011     	JZ	T0_INT_PWM_ON_EXIT
                      3012     
                      3013     T0_INT_PWM_ON_EXECUTE: 
00F3    E4            3014     	CLR	A					
00F4    73            3015     	JMP	@A+DPTR					; Jump to pwm on routines. DPTR should be set to one of the pwm_nfet_on labels
                      3016     
                      3017     T0_INT_PWM_ON_EXIT: 
                      3018     	; Set timer for coming on cycle length
00F5    E57C          3019     	MOV 	A, CURRENT_PWM_LIMITED_REMAPPED		; Load current pwm and replace with remapped value -Patrick
00F7    F4            3020     	CPL	A						; cpl is 255-x
                      3021     IF MCU_48MHZ == 0
                               	MOV	TL0, A					; Write start point for timer
                               ELSE
00F8    C3            3024     	CLR	C
00F9    33            3025     	RLC	A
00FA    4009          3026     	JC	T0_INT_PWM_ON_SET_TIMER
                      3027     
00FC    758A00        3028     	MOV	TL0, #0
00FF    D263          3029     SETB FLAGS0 . 3 
0101    F579          3030     	MOV	TIMER0_OVERFLOW_VALUE, A
0103    2107          3031     	AJMP	T0_INT_PWM_ON_TIMER_SET
                      3032     
                      3033     T0_INT_PWM_ON_SET_TIMER: 
0105    F58A          3034     	MOV	TL0, A
                      3035     T0_INT_PWM_ON_TIMER_SET: 
                      3036     ENDIF
                      3037     	; Set other variables
0107    758B00        3038     	MOV	TL1, #0					; Reset timer1	
                      3039     IF MCU_48MHZ == 1
010A    758D00        3040     	MOV	TH1, #0		
                      3041     ENDIF
010D    D262          3042     SETB FLAGS0 . 2 
                      3043     	; Exit interrupt
010F    D0E0          3044     	POP	ACC			; Restore preserved registers
0111    D0D0          3045     	POP	PSW
0113    D2AF          3046     	SETB	EA			; Enable all interrupts
0115    32            3047     	RETI
                      3048     
                      3049     
                      3050     	; Pwm off cycle
                      3051     T0_INT_PWM_OFF: 
                      3052     IF MCU_48MHZ == 0
                               	MOV	TL0, CURRENT_PWM_LIM_DITH_REMAPPED	; Load new timer setting and replace with remapped value -Patrick
                               ELSE
0116    C3            3055     	CLR	C
0117    E57D          3056     	MOV	A, CURRENT_PWM_LIM_DITH_REMAPPED ; Replace with remapped value -Patrick
0119    33            3057     	RLC	A
011A    4009          3058     	JC	T0_INT_PWM_OFF_SET_TIMER 
                      3059     
011C    758A00        3060     	MOV	TL0, #0
011F    D263          3061     SETB FLAGS0 . 3 
0121    F579          3062     	MOV	TIMER0_OVERFLOW_VALUE, A
0123    2127          3063     	AJMP	T0_INT_PWM_OFF_TIMER_SET
                      3064     
                      3065     T0_INT_PWM_OFF_SET_TIMER: 
0125    F58A          3066     	MOV	TL0, A
                      3067     T0_INT_PWM_OFF_TIMER_SET: 
                      3068     ENDIF
                      3069     	; Clear pwm on flag
0127    C262          3070     CLR FLAGS0 . 2 
                      3071     	; Set full PWM (on all the time) if current PWM near max. This will give full power, but at the cost of a small "jump" in power
0129    E57D          3072     	MOV	A, CURRENT_PWM_LIM_DITH_REMAPPED		; Load current pwm and replace with remapped value -Patrick
012B    F4            3073     	CPL	A						; Full pwm?
012C    6038          3074     	JZ	T0_INT_PWM_OFF_FULLPOWER_EXIT	; Yes - exit
                      3075     
                      3076     IF DAMPED_MODE_ENABLE == 1
                      3077     	; Do not execute damped pwm when stopped
012E    306803        3078     JNB FLAGS1 . 0 , T0_INT_PWM_OFF_EXIT_NFETS_OFF 
                      3079     
                      3080     	; If damped operation, set pFETs on in pwm_off
0131    207213        3081     JB FLAGS2 . 2 , T0_INT_PWM_OFF_DAMPED 
                      3082     ENDIF
                      3083     
                      3084     T0_INT_PWM_OFF_EXIT_NFETS_OFF: 	
                      3085     	; Separate exit commands here for minimum delay
0134    758B00        3086     	MOV	TL1, #0		; Reset timer1	
                      3087     IF MCU_48MHZ == 1
0137    758D00        3088     	MOV	TH1, #0		
                      3089     ENDIF
013A    D0E0          3090     	POP	ACC			; Restore preserved registers
013C    D0D0          3091     	POP	PSW
                      3092     	ALL_NFETS_OFF 		; Switch off all nfets
013E    C293          3092+1   CLR P1 . 3 
0140    C297          3092+1   CLR P1 . 7 
0142    C294          3092+1   CLR P1 . 4 
0144    D2AF          3093     	SETB	EA			; Enable all interrupts
0146    32            3094     	RETI
                      3095     
                      3096     T0_INT_PWM_OFF_DAMPED: 
                      3097     IF PFETON_DELAY < 128
                      3098     	ALL_NFETS_OFF 				; Switch off all nfets
0147    C293          3098+1   CLR P1 . 3 
0149    C297          3098+1   CLR P1 . 7 
014B    C294          3098+1   CLR P1 . 4 
014D    206E09        3099     JB FLAGS1 . 6 , T0_INT_PWM_OFF_DAMP_DONE 
                      3100     IF PFETON_DELAY NE 0
0150    740C          3101     MOV A , # 12 
0152    D5E0FD        3102     	DJNZ	ACC, $	
                      3103     ENDIF
                      3104     	DAMPING_FET_ON
0155    E57B          3104+1   MOV A , DAMPINGFET 
0157    4290          3104+1   ORL P1 , A 
                      3105     T0_INT_PWM_OFF_DAMP_DONE: 
                      3106     ENDIF
                      3107     IF PFETON_DELAY >= 128			; "Negative", 1's complement
                               	JB	FLAGS1.SKIP_DAMP_ON, T0_INT_PWM_OFF_DAMP_DONE
                               	DAMPING_FET_ON				; Damping fet on
                               	MOV	A, #PFETON_DELAY
                               	CPL	A
                               T0_INT_PWM_OFF_DAMP_DONE:
                               	ALL_NFETS_OFF 				; Switch off all nfets
                               ENDIF
                      3115     T0_INT_PWM_OFF_EXIT: 	
0159    758B00        3116     	MOV	TL1, #0		; Reset timer1	
                      3117     IF MCU_48MHZ == 1
015C    758D00        3118     	MOV	TH1, #0		
                      3119     ENDIF
015F    D0E0          3120     	POP	ACC			; Restore preserved registers
0161    D0D0          3121     	POP	PSW
0163    D2AF          3122     	SETB	EA			; Enable all interrupts
0165    32            3123     	RETI
                      3124     
                      3125     T0_INT_PWM_OFF_FULLPOWER_EXIT: 
0166    758A00        3126     	MOV	TL0, #0		; Set long time till next interrupt
                      3127     IF MCU_48MHZ == 1
0169    D263          3128     SETB FLAGS0 . 3 
016B    757900        3129     	MOV	TIMER0_OVERFLOW_VALUE, #0
                      3130     ENDIF
016E    C28D          3131     	CLR	TF0			; Clear interrupt flag
0170    D262          3132     SETB FLAGS0 . 2 
0172    2159          3133     	AJMP	T0_INT_PWM_OFF_EXIT
                      3134     
                      3135     
                      3136     PWM_NOFET: 	; Dummy pwm on cycle
0174    01F5          3137     	AJMP	T0_INT_PWM_ON_EXIT
                      3138     
                      3139     PWM_AFET: 		; Pwm on cycle afet on
0176    306805        3140     JNB FLAGS1 . 0 , PWM_AFET_EXIT 
0179    206602        3141     JB FLAGS0 . 6 , PWM_AFET_EXIT 
                      3142     	ANFET_ON	
017C    D293          3142+1   SETB P1 . 3 
                      3143     PWM_AFET_EXIT: 
017E    01F5          3144     	AJMP	T0_INT_PWM_ON_EXIT
                      3145     
                      3146     PWM_BFET: 		; Pwm on cycle bfet on
0180    306805        3147     JNB FLAGS1 . 0 , PWM_BFET_EXIT 
0183    206602        3148     JB FLAGS0 . 6 , PWM_BFET_EXIT 
                      3149     	BNFET_ON
0186    D294          3149+1   SETB P1 . 4 
                      3150     PWM_BFET_EXIT: 
0188    01F5          3151     	AJMP	T0_INT_PWM_ON_EXIT
                      3152     
                      3153     PWM_CFET: 		; Pwm on cycle cfet on
018A    306805        3154     JNB FLAGS1 . 0 , PWM_CFET_EXIT 
018D    206602        3155     JB FLAGS0 . 6 , PWM_CFET_EXIT 
                      3156     	CNFET_ON
0190    D297          3156+1   SETB P1 . 7 
                      3157     PWM_CFET_EXIT: 
0192    01F5          3158     	AJMP	T0_INT_PWM_ON_EXIT
                      3159     
                      3160     PWM_AFET_DAMPED: 	
                      3161     	APFET_OFF
0194    C292          3161+1   CLR P1 . 2 
0196    30680A        3162     JNB FLAGS1 . 0 , PWM_AFET_DAMPED_EXIT 
0199    206607        3163     JB FLAGS0 . 6 , PWM_AFET_DAMPED_EXIT 
                      3164     IF NFETON_DELAY NE 0
019C    740C          3165     MOV A , # 12 
019E    D5E0FD        3166     	DJNZ ACC,	$
                      3167     ENDIF
                      3168     PWM_AFET_DAMPED_DONE: 
                      3169     	ANFET_ON								; Switch nFET
01A1    D293          3169+1   SETB P1 . 3 
                      3170     PWM_AFET_DAMPED_EXIT: 
01A3    01F5          3171     	AJMP	T0_INT_PWM_ON_EXIT
                      3172     
                      3173     PWM_BFET_DAMPED: 
                      3174     	BPFET_OFF
01A5    C295          3174+1   CLR P1 . 5 
01A7    30680A        3175     JNB FLAGS1 . 0 , PWM_BFET_DAMPED_EXIT 
01AA    206607        3176     JB FLAGS0 . 6 , PWM_BFET_DAMPED_EXIT 
                      3177     IF NFETON_DELAY NE 0
01AD    740C          3178     MOV A , # 12 
01AF    D5E0FD        3179     	DJNZ ACC,	$
                      3180     ENDIF
                      3181     PWM_BFET_DAMPED_DONE: 
                      3182     	BNFET_ON								; Switch nFET
01B2    D294          3182+1   SETB P1 . 4 
                      3183     PWM_BFET_DAMPED_EXIT: 
01B4    01F5          3184     	AJMP	T0_INT_PWM_ON_EXIT
                      3185     
                      3186     PWM_CFET_DAMPED: 	
                      3187     	CPFET_OFF
01B6    C296          3187+1   CLR P1 . 6 
01B8    30680A        3188     JNB FLAGS1 . 0 , PWM_CFET_DAMPED_EXIT 
01BB    206607        3189     JB FLAGS0 . 6 , PWM_CFET_DAMPED_EXIT 
                      3190     IF NFETON_DELAY NE 0
01BE    740C          3191     MOV A , # 12 
01C0    D5E0FD        3192     	DJNZ ACC,	$
                      3193     ENDIF
                      3194     PWM_CFET_DAMPED_DONE: 
                      3195     	CNFET_ON								; Switch nFET
01C3    D297          3195+1   SETB P1 . 7 
                      3196     PWM_CFET_DAMPED_EXIT:  
01C5    01F5          3197     	AJMP	T0_INT_PWM_ON_EXIT
                      3198     
                      3199     
                      3200     ;**** **** **** **** **** **** **** **** **** **** **** **** ****
                      3201     ;
                      3202     ; Timer2 interrupt routine
                      3203     ;
                      3204     ; No assumptions
                      3205     ;
                      3206     ;**** **** **** **** **** **** **** **** **** **** **** **** ****
                      3207     T2_INT: 	; Happens every 128us for low byte and every 32ms for high byte
01C7    C2AF          3208     	CLR	EA
01C9    C2AD          3209     	CLR	ET2			; Disable timer2 interrupts
01CB    53E6EF        3210     	ANL	EIE1, #0EFH	; Disable PCA0 interrupts
01CE    C0D0          3211     	PUSH	PSW			; Preserve registers through interrupt
01D0    C0E0          3212     	PUSH	ACC
01D2    D2D3          3213     	SETB	PSW.3		; Select register bank 1 for interrupt routines
01D4    D2AF          3214     	SETB	EA
                      3215     IF MCU_48MHZ == 1
01D6    E57A          3216     	MOV	A, CLOCK_SET_AT_48MHZ
01D8    6009          3217     	JZ 	T2_INT_START
                      3218     
                      3219     	; Check skip variable
01DA    E577          3220     	MOV	A, SKIP_T2_INT
01DC    6005          3221     	JZ	T2_INT_START				; Execute this interrupt
                      3222     
01DE    757700        3223     	MOV	SKIP_T2_INT, #0
01E1    610B          3224     	AJMP	T2_INT_EXIT
                      3225     
                      3226     T2_INT_START: 
01E3    757701        3227     	MOV	SKIP_T2_INT, #1			; Skip next interrupt
                      3228     ENDIF
                      3229     	; Clear low byte interrupt flag
01E6    C2CE          3230     	CLR	TF2L						; Clear interrupt flag
                      3231     	; Check RC pulse timeout counter
01E8    E52A          3232     	MOV	A, RCP_TIMEOUT_CNT			; RC pulse timeout count zero?
01EA    6007          3233     	JZ	T2_INT_PULSES_ABSENT		; Yes - pulses are absent
                      3234     
                      3235     	; Decrement timeout counter (if PWM)
01EC    207449        3236     JB FLAGS2 . 4 , T2_INT_SKIP_START 
                      3237     
01EF    152A          3238     	DEC	RCP_TIMEOUT_CNT			; No - decrement
01F1    4138          3239     	AJMP	T2_INT_SKIP_START
                      3240     
                      3241     T2_INT_PULSES_ABSENT: 
                      3242     	; Timeout counter has reached zero, pulses are absent
01F3    7800          3243     MOV R0 , # 0 
01F5    7900          3244     MOV R1 , # 0 
01F7    20742E        3245     JB FLAGS2 . 4 , T2_INT_PULSES_ABSENT_NO_MAX 
                      3246     
                      3247     	READ_RCP_INT 					; Look at value of Rcp_In
01FA    E580          3247+1   MOV A , P0 
01FC    307E01        3247+1   JNB FLAGS3 . 6 , ( $+4 )  ; IS PWM POLARITY NEGATIVE?
01FF    F4            3247+1   CPL A  ; YES - INVERT
0200    30E502        3248     JNB ACC . 5 , ( $+5 ) 
0203    78FF          3249     MOV R0 , # 255 
                      3250     	RCP_INT_FIRST 					; Set interrupt trig to first again
0205    53DACF        3250+1   ANL PCA0CPM0 , # 0CFH 
0208    207E03        3250+1   JB FLAGS3 . 6 , ( $+6 )  ; IS PWM POLARITY POSITIVE?
020B    43DA20        3250+1   ORL PCA0CPM0 , # 20H  ; CAPTURE RISING EDGE
020E    307E03        3250+1   JNB FLAGS3 . 6 , ( $+6 )  ; IS PWM POLARITY NEGATIVE?
0211    43DA10        3250+1   ORL PCA0CPM0 , # 10H  ; CAPTURE FALLING EDGE
                      3251     	RCP_CLEAR_INT_FLAG 				; Clear interrupt flag
0214    C2D8          3251+1   CLR CCF0  ; CLEAR INTERRUPT FLAG
0216    C271          3252     CLR FLAGS2 . 1 
                      3253     	READ_RCP_INT 					; Look once more at value of Rcp_In
0218    E580          3253+1   MOV A , P0 
021A    307E01        3253+1   JNB FLAGS3 . 6 , ( $+4 )  ; IS PWM POLARITY NEGATIVE?
021D    F4            3253+1   CPL A  ; YES - INVERT
021E    30E502        3254     JNB ACC . 5 , ( $+5 ) 
0221    79FF          3255     MOV R1 , # 255 
0223    C3            3256     	CLR	C
0224    E8            3257     MOV A , R0 
0225    99            3258     SUBB A , R1 
0226    70CB          3259     	JNZ 	T2_INT_PULSES_ABSENT		; Go back if they are not equal
                      3260     
                      3261     T2_INT_PULSES_ABSENT_NO_MAX: 
0228    306103        3262     JNB FLAGS0 . 1 , ( $+6 ) 
                      3263     
022B    752A18        3264     MOV RCP_TIMEOUT_CNT , # 24 
                      3265     
022E    207403        3266     JB FLAGS2 . 4 , T2_INT_PPM_TIMEOUT_SET 
                      3267     
0231    752A18        3268     MOV RCP_TIMEOUT_CNT , # 24 
                      3269     
                      3270     T2_INT_PPM_TIMEOUT_SET: 
0234    885C          3271     MOV NEW_RCP , R0 
0236    D270          3272     SETB FLAGS2 . 0 
                      3273     
                      3274     T2_INT_SKIP_START: 
0238    20740D        3275     JB FLAGS2 . 4 , T2_INT_RCP_UPDATE_START 
                      3276     
                      3277     	; Check RC pulse skip counter
023B    E52B          3278     	MOV	A, RCP_SKIP_CNT			
023D    6004          3279     	JZ 	T2_INT_SKIP_END			; If RC pulse skip count is zero - end skipping RC pulse detection
                      3280     	
                      3281     	; Decrement skip counter (only if edge counter is zero)
023F    152B          3282     	DEC	RCP_SKIP_CNT				; Decrement
0241    4148          3283     	AJMP	T2_INT_RCP_UPDATE_START
                      3284     
                      3285     T2_INT_SKIP_END: 
                      3286     	; Skip counter has reached zero, start looking for RC pulses again
                      3287     	RCP_INT_ENABLE 				; Enable RC pulse interrupt
0243    43DA01        3287+1   ORL PCA0CPM0 , # 01H  ; INTERRUPT ENABLED
                      3288     	RCP_CLEAR_INT_FLAG 				; Clear interrupt flag
0246    C2D8          3288+1   CLR CCF0  ; CLEAR INTERRUPT FLAG
                      3289     	
                      3290     T2_INT_RCP_UPDATE_START: 
                      3291     	; Process updated RC pulse
0248    207002        3292     JB FLAGS2 . 0 , ( $+5 ) 
024B    41A4          3293     	AJMP	T2_INT_CURRENT_PWM_UPDATE	; No - update pwm limits and exit
                      3294     
024D    A85C          3295     MOV R0 , NEW_RCP 
024F    206102        3296     JB FLAGS0 . 1 , ( $+5 ) 
                      3297     
0252    C270          3298     CLR FLAGS2 . 0 
                      3299     
                      3300     	; Use a gain of 1.0625x for pwm input if not governor mode
0254    207436        3301     JB FLAGS2 . 4 , T2_INT_PWM_MIN_RUN 
                      3302     
                      3303     IF MODE == 0	; Main - do not adjust gain
                               	AJMP	T2_INT_PWM_MIN_RUN
                               ELSE
                      3306     
                      3307     IF MODE == 2	; Multi 
0257    7982          3308     MOV R1 , # PGM_GOV_MODE 
0259    B70431        3309     CJNE @ R1 , # 4 , T2_INT_PWM_MIN_RUN 
                      3310     ENDIF
                      3311     
                      3312     	; Limit the maximum value to avoid wrap when scaled to pwm range
025C    C3            3313     	CLR	C
025D    E8            3314     MOV A , R0 
025E    94F0          3315     	SUBB	A, #240			; 240 = (255/1.0625) Needs to be updated according to multiplication factor below		
0260    4003          3316     	JC	T2_INT_RCP_UPDATE_MULT
                      3317     
0262    74F0          3318     	MOV	A, #240			; Set requested pwm to max
0264    F8            3319     MOV R0 , A 
                      3320     
                      3321     T2_INT_RCP_UPDATE_MULT: 	
                      3322     	; Multiply by 1.0625 (optional adjustment gyro gain)
0265    E8            3323     MOV A , R0 
0266    C4            3324     	SWAP	A			; After this "0.0625"
0267    540F          3325     	ANL	A, #0FH
0269    28            3326     ADD A , R0 
026A    F8            3327     MOV R0 , A 
                      3328     	; Adjust tail gain
026B    7984          3329     MOV R1 , # PGM_MOTOR_GAIN 
026D    B70302        3330     CJNE @ R1 , # 3 , ( $+5 ) 
0270    418D          3331     	AJMP	T2_INT_PWM_MIN_RUN			; Yes - skip adjustment
                      3332     
0272    C3            3333     	CLR	C
0273    13            3334     	RRC	A			; After this "0.5"
0274    C3            3335     	CLR	C
0275    13            3336     	RRC	A			; After this "0.25"
0276    8721          3337     MOV BIT_ACCESS_INT , @ R1 
0278    200802        3338     	JB	BIT_ACCESS_INT.0, T2_INT_RCP_GAIN_CORR	; Branch if bit 0 in gain is set
                      3339     
027B    C3            3340     	CLR	C
027C    13            3341     	RRC	A			; After this "0.125"
                      3342     
                      3343     T2_INT_RCP_GAIN_CORR: 
027D    200A06        3344     	JB	BIT_ACCESS_INT.2, T2_INT_RCP_GAIN_POS	; Branch if bit 2 in gain is set
                      3345     
0280    C3            3346     	CLR	C
0281    C8            3347     XCH A , R0 
0282    98            3348     SUBB A , R0 
0283    F8            3349     MOV R0 , A 
0284    418D          3350     	AJMP	T2_INT_PWM_MIN_RUN
                      3351     
                      3352     T2_INT_RCP_GAIN_POS: 
0286    28            3353     ADD A , R0 
0287    F8            3354     MOV R0 , A 
0288    5003          3355     	JNC	T2_INT_PWM_MIN_RUN			; Above max?
                      3356     
028A    74FF          3357     	MOV	A, #0FFH					; Yes - limit
028C    F8            3358     MOV R0 , A 
                      3359     ENDIF
                      3360     
                      3361     T2_INT_PWM_MIN_RUN:  
                      3362     IF MODE == 1	; Tail - limit minimum pwm
                               	; Limit minimum pwm
                               	CLR	C
                               	MOV	A, TEMP1
                               	SUBB	A, PWM_MOTOR_IDLE			; Is requested pwm lower than minimum?
                               	JNC	T2_INT_PWM_UPDATE			; No - branch
                               
                               	MOV	A, PWM_MOTOR_IDLE			; Yes - limit pwm to Pwm_Motor_Idle	
                               	MOV	TEMP1, A
                               ENDIF
                      3372     
                      3373     T2_INT_PWM_UPDATE:  
                      3374     	; Update requested_pwm
028D    8822          3375     MOV REQUESTED_PWM , R0 
                      3376     IF MODE >= 1	; Tail or multi
                      3377     	; Boost pwm during direct start
028F    E52D          3378     	MOV	A, FLAGS1
0291    5406          3379     	ANL	A, #((1 SHL STARTUP_PHASE)+(1 SHL INITIAL_RUN_PHASE))
0293    600F          3380     	JZ	T2_INT_CURRENT_PWM_UPDATE
                      3381     
0295    E533          3382     	MOV	A, STARTUP_CNT				; Add an extra power boost during start
0297    C3            3383     	CLR	C
0298    13            3384     	RRC	A
0299    C3            3385     	CLR	C
029A    13            3386     	RRC	A
029B    2522          3387     	ADD	A, REQUESTED_PWM			
029D    F522          3388     	MOV	REQUESTED_PWM, A
029F    5003          3389     	JNC	($+5)
                      3390     
02A1    7522FF        3391     	MOV	REQUESTED_PWM, #0FFH
                      3392     
                      3393     ENDIF
                      3394     T2_INT_CURRENT_PWM_UPDATE:  
                      3395     IF MODE == 0 OR MODE == 2	; Main or multi
02A4    7882          3396     MOV R0 , # PGM_GOV_MODE 
02A6    B60459        3397     CJNE @ R0 , # 4 , T2_INT_PWM_EXIT 
                      3398     ENDIF
                      3399     
02A9    852224        3400     	MOV	CURRENT_PWM, REQUESTED_PWM	; Set equal as default
                      3401     IF MODE >= 1	; Tail or multi
                      3402     	; Set current_pwm_limited
02AC    A824          3403     MOV R0 , CURRENT_PWM 
02AE    C3            3404     	CLR	C
02AF    E524          3405     	MOV	A, CURRENT_PWM				; Check against limit
02B1    9561          3406     	SUBB	A, PWM_LIMIT
02B3    4002          3407     	JC	($+4)					; If current pwm below limit - branch
                      3408     
02B5    A861          3409     MOV R0 , PWM_LIMIT 
                      3410     
                      3411     IF MODE == 2	; Multi
                      3412     	; Limit pwm for low rpms
02B7    C3            3413     	CLR	C
02B8    E8            3414     MOV A , R0 
02B9    9563          3415     	SUBB	A, PWM_LIMIT_BY_RPM
02BB    4002          3416     	JC	($+4)					; If current pwm below limit - branch
                      3417     
02BD    A863          3418     MOV R0 , PWM_LIMIT_BY_RPM 
                      3419     
                      3420     ENDIF
02BF    8825          3421     MOV CURRENT_PWM_LIMITED , R0 
                      3422     	; Dither
02C1    E566          3423     	MOV	A, PWM_DITHER_DECODED		; Load pwm dither
02C3    7002          3424     	JNZ	($+4)					; If active - branch
02C5    41F5          3425     	AJMP	T2_INT_CURRENT_PWM_NO_DITHER
                      3426     
02C7    C3            3427     	CLR	C
02C8    E8            3428     MOV A , R0 
02C9    AA66          3429     MOV R2 , PWM_DITHER_DECODED 
02CB    9A            3430     SUBB A , R2 
02CC    5003          3431     	JNC	T2_INT_CURRENT_PWM_FULL_DITHER; If pwm more than dither value, then do full dither
                      3432     
02CE    E8            3433     MOV A , R0 
02CF    FA            3434     MOV R2 , A 
02D0    E4            3435     	CLR	A						; Set pwm minus dither
                      3436     
                      3437     T2_INT_CURRENT_PWM_FULL_DITHER: 
02D1    F9            3438     MOV R1 , A 
02D2    EA            3439     MOV A , R2 
02D3    C3            3440     	CLR	C
02D4    33            3441     	RLC	A						; Shift left once
02D5    FB            3442     MOV R3 , A 
02D6    E568          3443     	MOV	A, RANDOM					; Load random number
02D8    F4            3444     	CPL	A						; Invert to create proper DC bias in random code
02D9    5B            3445     ANL A , R3 
02DA    29            3446     ADD A , R1 
02DB    400D          3447     	JC	T2_INT_CURRENT_PWM_DITHER_MAX_EXCESS_POWER	; If dither cause power above max - branch and increase excess 
                      3448     
02DD    2567          3449     	ADD	A, PWM_DITHER_EXCESS_POWER	; Add excess power from previous cycles
02DF    F8            3450     MOV R0 , A 
02E0    E567          3451     	MOV	A, PWM_DITHER_EXCESS_POWER	; Decrement excess power
02E2    6002          3452     	JZ	($+4)
02E4    1567          3453     	DEC	PWM_DITHER_EXCESS_POWER
02E6    400B          3454     	JC	T2_INT_CURRENT_PWM_DITHER_MAX_POWER; If dither cause power above max - branch
                      3455     
02E8    41F5          3456     	AJMP	T2_INT_CURRENT_PWM_NO_DITHER
                      3457     
                      3458     T2_INT_CURRENT_PWM_DITHER_MAX_EXCESS_POWER: 
02EA    0A            3459     INC R2 
02EB    C3            3460     	CLR	C
02EC    E567          3461     	MOV	A, PWM_DITHER_EXCESS_POWER
02EE    9A            3462     SUBB A , R2 
02EF    5002          3463     	JNC	($+4)
02F1    0567          3464     	INC	PWM_DITHER_EXCESS_POWER
                      3465     
                      3466     T2_INT_CURRENT_PWM_DITHER_MAX_POWER: 
02F3    78FF          3467     MOV R0 , # 255 
                      3468     
                      3469     T2_INT_CURRENT_PWM_NO_DITHER: 
02F5    8826          3470     MOV CURRENT_PWM_LIM_DITH , R0 
                      3471     IF DAMPED_MODE_ENABLE == 1
                      3472     	; Skip damping fet switching for high throttle
02F7    C26E          3473     CLR FLAGS1 . 6 
02F9    C3            3474     	CLR	C
02FA    E526          3475     	MOV	A, CURRENT_PWM_LIM_DITH
02FC    94F8          3476     	SUBB	A, #248
02FE    4002          3477     	JC	T2_INT_PWM_EXIT
0300    D26E          3478     SETB FLAGS1 . 6 
                      3479     ENDIF
                      3480     ENDIF
                      3481     T2_INT_PWM_EXIT: 	
                      3482     	; Set demag enabled if pwm is above limit
0302    C3            3483     	CLR	C
0303    E525          3484     	MOV	A, CURRENT_PWM_LIMITED	
0305    9440          3485     	SUBB	A, #40H					; Set if above 25%
0307    4002          3486     	JC	($+4)
                      3487     
0309    D264          3488     SETB FLAGS0 . 4 
                      3489     
                      3490     T2_INT_EXIT: 	
                      3491     	; Check if high byte flag is set
030B    20CF0A        3492     	JB	TF2H, T2H_INT		
030E    D0E0          3493     	POP	ACC			; Restore preserved registers
0310    D0D0          3494     	POP	PSW
0312    43E610        3495     	ORL	EIE1, #10H	; Enable PCA0 interrupts
0315    D2AD          3496     	SETB	ET2			; Enable timer2 interrupts
0317    32            3497     	RETI
                      3498     
                      3499     T2H_INT: 
                      3500     IF MCU_48MHZ == 1
0318    E57A          3501     	MOV	A, CLOCK_SET_AT_48MHZ
031A    6009          3502     	JZ 	T2H_INT_START
                      3503     
                      3504     	; Check skip variable
031C    E578          3505     	MOV	A, SKIP_T2H_INT
031E    6005          3506     	JZ	T2H_INT_START				; Execute this interrupt
                      3507     
0320    757800        3508     	MOV	SKIP_T2H_INT, #0
0323    6152          3509     	AJMP	T2H_INT_EXIT
                      3510     
                      3511     T2H_INT_START: 
0325    757801        3512     	MOV	SKIP_T2H_INT, #1			; Skip next interrupt
                      3513     ENDIF
                      3514     	; High byte interrupt (happens every 32ms)
0328    C2CF          3515     	CLR	TF2H					; Clear interrupt flag
032A    7801          3516     MOV R0 , # 1 
                      3517     	; Check RC pulse timeout counter (used here for PPM only)
032C    E52A          3518     	MOV	A, RCP_TIMEOUT_CNT			; RC pulse timeout count zero?
032E    6005          3519     	JZ	T2H_INT_RCP_STOP_CHECK		; Yes - do not decrement
                      3520     
                      3521     	; Decrement timeout counter (if PPM)
0330    307402        3522     JNB FLAGS2 . 4 , T2H_INT_RCP_STOP_CHECK 
                      3523     
0333    152A          3524     	DEC	RCP_TIMEOUT_CNT			; No flag set (PPM) - decrement
                      3525     
                      3526     T2H_INT_RCP_STOP_CHECK: 
                      3527     	; Check RC pulse against stop value
0335    C3            3528     	CLR	C
0336    E55C          3529     	MOV	A, NEW_RCP				; Load new pulse value
0338    9401          3530     SUBB A , # 1 
033A    4005          3531     	JC	T2H_INT_RCP_STOP
                      3532     
                      3533     	; RC pulse higher than stop value, reset stop counter
033C    755F00        3534     	MOV	RCP_STOP_CNT, #0			; Reset rcp stop counter
033F    6152          3535     	AJMP	T2H_INT_RCP_GOV_PWM
                      3536     
                      3537     T2H_INT_RCP_STOP: 	
                      3538     	; RC pulse less than stop value
0341    756000        3539     	MOV	AUTO_BAILOUT_ARMED, #0		; Disarm bailout		
0344    756900        3540     	MOV	SPOOLUP_LIMIT_CNT, #0
0347    E55F          3541     	MOV	A, RCP_STOP_CNT			; Increment stop counter
0349    2401          3542     	ADD	A, #1
034B    F55F          3543     	MOV	RCP_STOP_CNT, A
034D    5003          3544     	JNC	T2H_INT_RCP_GOV_PWM			; Branch if counter has not wrapped
                      3545     
034F    755FFF        3546     	MOV	RCP_STOP_CNT, #0FFH			; Set stop counter to max
                      3547     
                      3548     T2H_INT_RCP_GOV_PWM: 
                      3549     IF MODE == 0	; Main
                               	; Update governor variables
                               	MOV	TEMP2, #PGM_GOV_MODE			; Governor target by arm mode?
                               	CJNE	@TEMP2, #2, T2H_INT_RCP_GOV_BY_SETUP	; No - branch
                               
                               	JNB	FLAGS1.GOV_ACTIVE, T2H_INT_RCP_GOV_BY_TX; If governor not active - branch (this ensures soft spoolup by tx)
                               
                               	CLR	C
                               	MOV	A, REQUESTED_PWM
                               	SUBB	A, #50						; Is requested pwm below 20%?
                               	JC	T2H_INT_RCP_GOV_BY_TX			; Yes - branch (this enables a soft spooldown)
                               
                               	MOV	REQUESTED_PWM, GOV_ARM_TARGET		; Yes - load arm target
                               
                               T2H_INT_RCP_GOV_BY_SETUP:
                               	MOV	TEMP2, #PGM_GOV_MODE			; Governor target by setup mode?
                               	CJNE	@TEMP2, #3, T2H_INT_RCP_GOV_BY_TX		; No - branch
                               
                               	JNB	FLAGS1.GOV_ACTIVE, T2H_INT_RCP_GOV_BY_TX; If governor not active - branch (this ensures soft spoolup by tx)
                               
                               	CLR	C
                               	MOV	A, REQUESTED_PWM
                               	SUBB	A, #50						; Is requested pwm below 20%?
                               	JC	T2H_INT_RCP_GOV_BY_TX			; Yes - branch (this enables a soft spooldown)
                               
                               	MOV	TEMP2, #PGM_GOV_SETUP_TARGET		; Gov by setup - load setup target
                               	MOV	REQUESTED_PWM, @TEMP2
                               
                               T2H_INT_RCP_GOV_BY_TX:
                               	CLR	C
                               	MOV	A, GOVERNOR_REQ_PWM
                               	SUBB	A, REQUESTED_PWM				; Is governor requested pwm equal to requested pwm?
                               	JZ	T2H_INT_RCP_GOV_PWM_DONE			; Yes - branch
                               
                               	JC	T2H_INT_RCP_GOV_PWM_INC			; No - if lower, then increment
                               
                               	DEC	GOVERNOR_REQ_PWM				; No - if higher, then decrement
                               	AJMP	T2H_INT_RCP_GOV_PWM_DONE
                               
                               T2H_INT_RCP_GOV_PWM_INC:
                               	INC	GOVERNOR_REQ_PWM				; Increment
                               
                               T2H_INT_RCP_GOV_PWM_DONE:
                               	DJNZ	TEMP1, T2H_INT_RCP_GOV_PWM		; If not number of steps processed - go back
                               
                               	INC	SPOOLUP_LIMIT_CNT				; Increment spoolup count
                               	MOV	A, SPOOLUP_LIMIT_CNT
                               	JNZ	($+4)						; Wrapped?
                               
                               	DEC	SPOOLUP_LIMIT_CNT				; Yes - decrement
                               
                               	DJNZ	SPOOLUP_LIMIT_SKIP, T2H_INT_EXIT	; Jump if skip count is not reached
                               
                               	MOV	SPOOLUP_LIMIT_SKIP, #1			; Reset skip count. Default is fast spoolup
                               	MOV	TEMP1, #5						; Default fast increase
                               	CLR	C
                               	MOV	A, SPOOLUP_LIMIT_CNT
                               	SUBB	A, MAIN_SPOOLUP_TIME_3X			; No spoolup until 3*N*32ms
                               
                               	JC	T2H_INT_EXIT
                               
                               	CLR	C
                               	MOV	A, SPOOLUP_LIMIT_CNT
                               	SUBB	A, MAIN_SPOOLUP_TIME_10X			; Slow spoolup until "100"*N*32ms
                               	JNC	T2H_INT_RCP_LIMIT_MIDDLE_RAMP
                               
                               	MOV	TEMP1, #1						; Slow initial spoolup
                               	MOV	SPOOLUP_LIMIT_SKIP, #3			
                               	JMP	T2H_INT_RCP_SET_LIMIT
                               
                               T2H_INT_RCP_LIMIT_MIDDLE_RAMP:
                               	CLR	C
                               	MOV	A, SPOOLUP_LIMIT_CNT
                               	SUBB	A, MAIN_SPOOLUP_TIME_15X			; Faster spoolup until "150"*N*32ms
                               	JNC	T2H_INT_RCP_SET_LIMIT
                               
                               	MOV	TEMP1, #1						; Faster middle spoolup
                               	MOV	SPOOLUP_LIMIT_SKIP, #1			
                               
                               T2H_INT_RCP_SET_LIMIT:
                               	; Do not increment spoolup limit if higher pwm is not requested, unless governor is active
                               	CLR	C
                               	MOV	A, PWM_LIMIT_SPOOLUP
                               	SUBB	A, CURRENT_PWM
                               	JC	T2H_INT_RCP_INC_LIMIT			; If Current_Pwm is larger than Pwm_Limit_Spoolup - branch
                               
                               	MOV	TEMP2, #PGM_GOV_MODE			; Governor mode?
                               	CJNE	@TEMP2, #4, ($+5)
                               	AJMP	T2H_INT_RCP_BAILOUT_ARM			; No - branch
                               
                               	JB	FLAGS1.GOV_ACTIVE, T2H_INT_RCP_INC_LIMIT	; If governor active - branch 
                               
                               	MOV	PWM_LIMIT_SPOOLUP, CURRENT_PWM	; Set limit to what current pwm is
                               	MOV	A, SPOOLUP_LIMIT_CNT			; Check if spoolup limit count is 255. If it is, then this is a "bailout" ramp
                               	INC	A
                               	JZ	($+5)
                               
                               	MOV	SPOOLUP_LIMIT_CNT, MAIN_SPOOLUP_TIME_3X	; Stay in an early part of the spoolup sequence (unless "bailout" ramp)
                               
                               	MOV	SPOOLUP_LIMIT_SKIP, #1			; Set skip count
                               	MOV	GOVERNOR_REQ_PWM, #60			; Set governor requested speed to ensure that it requests higher speed
                               									; 20=Fail on jerk when governor activates
                               									; 30=Ok
                               									; 100=Fail on small governor settling overshoot on low headspeeds
                               									; 200=Fail on governor settling overshoot
                               	JMP	T2H_INT_EXIT					; Exit
                               
                               T2H_INT_RCP_INC_LIMIT:
                               	MOV	A, PWM_LIMIT_SPOOLUP			; Increment spoolup pwm
                               	ADD	A, TEMP1
                               	JNC	T2H_INT_RCP_NO_LIMIT			; If below 255 - branch
                               
                               	MOV	PWM_LIMIT_SPOOLUP, #0FFH
                               	AJMP	T2H_INT_RCP_BAILOUT_ARM
                               
                               T2H_INT_RCP_NO_LIMIT:
                               	MOV	PWM_LIMIT_SPOOLUP, A
                               T2H_INT_RCP_BAILOUT_ARM:
                               	MOV	A, PWM_LIMIT_SPOOLUP
                               	INC	A
                               	JNZ	T2H_INT_EXIT
                               
                               	MOV	AUTO_BAILOUT_ARMED, #255			; Arm bailout
                               	MOV	SPOOLUP_LIMIT_CNT, #255			
                               
                               ENDIF
                      3675     T2H_INT_EXIT: 
0352    D0E0          3676     	POP	ACC			; Restore preserved registers
0354    D0D0          3677     	POP	PSW
0356    43E610        3678     	ORL	EIE1, #10H	; Enable PCA0 interrupts
0359    D2AD          3679     	SETB	ET2			; Enable timer2 interrupts
035B    32            3680     	RETI
                      3681     
                      3682     
                      3683     ;**** **** **** **** **** **** **** **** **** **** **** **** ****
                      3684     ;
                      3685     ; Timer3 interrupt routine
                      3686     ;
                      3687     ; No assumptions
                      3688     ;
                      3689     ;**** **** **** **** **** **** **** **** **** **** **** **** ****
                      3690     T3_INT: 	; Used for commutation timing
035C    C2AF          3691     	CLR 	EA				; Disable all interrupts
035E    C0D0          3692     	PUSH	PSW				; Preserve registers through interrupt
0360    53E67F        3693     	ANL	EIE1, #7FH		; Disable timer3 interrupts
0363    C260          3694     CLR FLAGS0 . 0 
                      3695     	; Set up next wait
0365    759100        3696     	MOV	TMR3CN, #00H		; Timer3 disabled and interrupt flag cleared
0368    855394        3697     	MOV	TMR3L, NEXT_WT_START_L	; Set wait value	
036B    855495        3698     	MOV	TMR3H, NEXT_WT_START_H
036E    759104        3699     	MOV	TMR3CN, #04H		; Timer3 enabled and interrupt flag cleared
0371    D0D0          3700     	POP	PSW
0373    D2AF          3701     	SETB	EA				; Enable all interrupts
0375    32            3702     	RETI
                      3703     
                      3704     
                      3705     ;**** **** **** **** **** **** **** **** **** **** **** **** ****
                      3706     ;
                      3707     ; PCA interrupt routine
                      3708     ;
                      3709     ; No assumptions
                      3710     ;
                      3711     ;**** **** **** **** **** **** **** **** **** **** **** **** ****
                      3712     PCA_INT: 	; Used for RC pulse timing
0376    C2AF          3713     	CLR	EA
0378    53E6EF        3714     	ANL	EIE1, #0EFH	; Disable PCA0 interrupts
037B    C2AD          3715     	CLR	ET2			; Disable timer2 interrupts
037D    C0D0          3716     	PUSH	PSW			; Preserve registers through interrupt
037F    C0E0          3717     	PUSH	ACC
0381    C0F0          3718     	PUSH	B
0383    D2D3          3719     	SETB	PSW.3		; Select register bank 1 for interrupt routines
0385    D2AF          3720     	SETB	EA
                      3721     	; Get the PCA counter values
                      3722     	GET_RCP_CAPTURE_VALUES
0387    A8FB          3722+1   MOV R0 , PCA0CPL0  ; GET PCA CAPTURE VALUES
0389    A9FC          3722+1   MOV R1 , PCA0CPH0 
                      3722+1   IF 1 ==1 
038B    E57A          3722+1   MOV A , CLOCK_SET_AT_48MHZ 
038D    6007          3722+1   JZ GET_RCP_END 
038F    C3            3722+1   CLR C 
0390    E9            3722+1   MOV A , R1 
0391    13            3722+1   RRC A 
0392    F9            3722+1   MOV R1 , A 
0393    E8            3722+1   MOV A , R0 
0394    13            3722+1   RRC A 
0395    F8            3722+1   MOV R0 , A 
                      3722+1   GET_RCP_END:  
                      3722+1   ENDIF 
                      3723     	; Clear interrupt flag
                      3724     	RCP_CLEAR_INT_FLAG 				
0396    C2D8          3724+1   CLR CCF0  ; CLEAR INTERRUPT FLAG
                      3725     	; Check which edge it is
0398    307102        3726     JNB FLAGS2 . 1 , ( $+5 ) 
039B    61E8          3727     	AJMP PCA_INT_SECOND_MEAS_PWM_FREQ	; No - branch to second
                      3728     
                      3729     	RCP_INT_SECOND					; Yes - set second edge trig
039D    53DACF        3729+1   ANL PCA0CPM0 , # 0CFH 
03A0    207E03        3729+1   JB FLAGS3 . 6 , ( $+6 )  ; IS PWM POLARITY POSITIVE?
03A3    43DA10        3729+1   ORL PCA0CPM0 , # 10H  ; CAPTURE FALLING EDGE
03A6    307E03        3729+1   JNB FLAGS3 . 6 , ( $+6 )  ; IS PWM POLARITY NEGATIVE?
03A9    43DA20        3729+1   ORL PCA0CPM0 , # 20H  ; CAPTURE RISING EDGE
03AC    D271          3730     SETB FLAGS2 . 1 
                      3731     	; Read RC signal level
                      3732     	READ_RCP_INT			
03AE    E580          3732+1   MOV A , P0 
03B0    307E01        3732+1   JNB FLAGS3 . 6 , ( $+4 )  ; IS PWM POLARITY NEGATIVE?
03B3    F4            3732+1   CPL A  ; YES - INVERT
                      3733     	; Test RC signal level
03B4    20E502        3734     JB ACC . 5 , ( $+5 ) 
03B7    61BF          3735     	AJMP	PCA_INT_FAIL_MINIMUM		; No - jump to fail minimum
                      3736     
                      3737     	; RC pulse was high, store RC pulse start timestamp
03B9    8827          3738     MOV RCP_PREV_EDGE_L , R0 
03BB    8928          3739     MOV RCP_PREV_EDGE_H , R1 
03BD    C10F          3740     	AJMP	PCA_INT_EXIT				; Exit
                      3741     
                      3742     PCA_INT_FAIL_MINIMUM: 
                      3743     	; Prepare for next interrupt
                      3744     	RCP_INT_FIRST					; Set interrupt trig to first again
03BF    53DACF        3744+1   ANL PCA0CPM0 , # 0CFH 
03C2    207E03        3744+1   JB FLAGS3 . 6 , ( $+6 )  ; IS PWM POLARITY POSITIVE?
03C5    43DA20        3744+1   ORL PCA0CPM0 , # 20H  ; CAPTURE RISING EDGE
03C8    307E03        3744+1   JNB FLAGS3 . 6 , ( $+6 )  ; IS PWM POLARITY NEGATIVE?
03CB    43DA10        3744+1   ORL PCA0CPM0 , # 10H  ; CAPTURE FALLING EDGE
                      3745     	RCP_CLEAR_INT_FLAG 				; Clear interrupt flag
03CE    C2D8          3745+1   CLR CCF0  ; CLEAR INTERRUPT FLAG
03D0    C271          3746     CLR FLAGS2 . 1 
03D2    307402        3747     JNB FLAGS2 . 4 , ( $+5 ) 
                      3748     
03D5    A1FB          3749     	AJMP	PCA_INT_SET_TIMEOUT			; If PPM - ignore trig as noise
                      3750     
03D7    7800          3751     MOV R0 , # 0 
                      3752     	READ_RCP_INT 					; Test RC signal level again
03D9    E580          3752+1   MOV A , P0 
03DB    307E01        3752+1   JNB FLAGS3 . 6 , ( $+4 )  ; IS PWM POLARITY NEGATIVE?
03DE    F4            3752+1   CPL A  ; YES - INVERT
03DF    30E502        3753     JNB ACC . 5 , ( $+5 ) 
                      3754     
03E2    A1FB          3755     	AJMP	PCA_INT_SET_TIMEOUT			; Yes - set new timeout and exit
                      3756     
03E4    885C          3757     MOV NEW_RCP , R0 
03E6    A1E3          3758     	AJMP	PCA_INT_LIMITED			; Set new RC pulse, new timeout and exit
                      3759     
                      3760     PCA_INT_SECOND_MEAS_PWM_FREQ: 
                      3761     	; Prepare for next interrupt
                      3762     	RCP_INT_FIRST 					; Set first edge trig
03E8    53DACF        3762+1   ANL PCA0CPM0 , # 0CFH 
03EB    207E03        3762+1   JB FLAGS3 . 6 , ( $+6 )  ; IS PWM POLARITY POSITIVE?
03EE    43DA20        3762+1   ORL PCA0CPM0 , # 20H  ; CAPTURE RISING EDGE
03F1    307E03        3762+1   JNB FLAGS3 . 6 , ( $+6 )  ; IS PWM POLARITY NEGATIVE?
03F4    43DA10        3762+1   ORL PCA0CPM0 , # 10H  ; CAPTURE FALLING EDGE
03F7    C271          3763     CLR FLAGS2 . 1 
                      3764     	; Check if pwm frequency shall be measured
03F9    206102        3765     JB FLAGS0 . 1 , ( $+5 ) 
03FC    81C1          3766     	AJMP	PCA_INT_FALL				; No - skip measurements
                      3767     
                      3768     	; Set second edge trig only during pwm frequency measurement
                      3769     	RCP_INT_SECOND 				; Set second edge trig
03FE    53DACF        3769+1   ANL PCA0CPM0 , # 0CFH 
0401    207E03        3769+1   JB FLAGS3 . 6 , ( $+6 )  ; IS PWM POLARITY POSITIVE?
0404    43DA10        3769+1   ORL PCA0CPM0 , # 10H  ; CAPTURE FALLING EDGE
0407    307E03        3769+1   JNB FLAGS3 . 6 , ( $+6 )  ; IS PWM POLARITY NEGATIVE?
040A    43DA20        3769+1   ORL PCA0CPM0 , # 20H  ; CAPTURE RISING EDGE
                      3770     	RCP_CLEAR_INT_FLAG 				; Clear interrupt flag
040D    C2D8          3770+1   CLR CCF0  ; CLEAR INTERRUPT FLAG
040F    D271          3771     SETB FLAGS2 . 1 
                      3772     	; Store edge data to RAM
0411    8857          3773     MOV RCP_EDGE_L , R0 
0413    8958          3774     MOV RCP_EDGE_H , R1 
                      3775     	; Calculate pwm frequency
0415    C3            3776     	CLR	C
0416    E8            3777     MOV A , R0 
0417    9555          3778     	SUBB	A, RCP_PREPREV_EDGE_L	
0419    F8            3779     MOV R0 , A 
041A    E9            3780     MOV A , R1 
041B    9556          3781     	SUBB	A, RCP_PREPREV_EDGE_H
041D    F9            3782     MOV R1 , A 
041E    7B00          3783     MOV R3 , # 0 
0420    7E08          3784     MOV R6 , # 8 
0422    7A00          3785     MOV R2 , # 0 
                      3786     	; Check if pulse is too short
0424    C3            3787     	CLR	C
0425    E8            3788     MOV A , R0 
0426    948C          3789     	SUBB	A, #LOW(140)				; If pulse below 70us, not accepted
0428    E9            3790     MOV A , R1 
0429    9400          3791     	SUBB	A, #HIGH(140)
042B    5005          3792     	JNC	PCA_INT_CHECK_12KHZ
                      3793     
042D    755B00        3794     	MOV	RCP_PERIOD_DIFF_ACCEPTED, #0	; Set not accepted 
0430    81B3          3795     	AJMP	PCA_INT_STORE_DATA
                      3796     
                      3797     PCA_INT_CHECK_12KHZ: 
0432    8821          3798     MOV BIT_ACCESS_INT , R0 
0434    78A2          3799     MOV R0 , # PGM_ENABLE_PWM_INPUT 
0436    E6            3800     MOV A , @ R0 
0437    A821          3801     MOV R0 , BIT_ACCESS_INT 
0439    6055          3802     	JZ	PCA_INT_RESTORE_EDGE		; If it is not - branch
                      3803     
                      3804     	; Check if pwm frequency is 12kHz
043B    C3            3805     	CLR	C
043C    E8            3806     MOV A , R0 
043D    94C8          3807     	SUBB	A, #LOW(200)				; If below 100us, 12kHz pwm is assumed
043F    E9            3808     MOV A , R1 
0440    9400          3809     	SUBB	A, #HIGH(200)
0442    5008          3810     	JNC	PCA_INT_CHECK_8KHZ
                      3811     
0444    E4            3812     	CLR	A
0445    D2E4          3813     SETB ACC . 4 
0447    FB            3814     MOV R3 , A 
0448    7A0A          3815     MOV R2 , # 10 
044A    818E          3816     	AJMP	PCA_INT_RESTORE_EDGE_SET_MSB
                      3817     
                      3818     PCA_INT_CHECK_8KHZ: 
                      3819     	; Check if pwm frequency is 8kHz
044C    C3            3820     	CLR	C
044D    E8            3821     MOV A , R0 
044E    9468          3822     	SUBB	A, #LOW(360)				; If below 180us, 8kHz pwm is assumed
0450    E9            3823     MOV A , R1 
0451    9401          3824     	SUBB	A, #HIGH(360)
0453    5008          3825     	JNC	PCA_INT_CHECK_4KHZ
                      3826     
0455    E4            3827     	CLR	A
0456    D2E3          3828     SETB ACC . 3 
0458    FB            3829     MOV R3 , A 
0459    7A0F          3830     MOV R2 , # 15 
045B    818E          3831     	AJMP	PCA_INT_RESTORE_EDGE_SET_MSB
                      3832     
                      3833     PCA_INT_CHECK_4KHZ: 
                      3834     	; Check if pwm frequency is 4kHz
045D    C3            3835     	CLR	C
045E    E8            3836     MOV A , R0 
045F    94D0          3837     	SUBB	A, #LOW(720)				; If below 360us, 4kHz pwm is assumed
0461    E9            3838     MOV A , R1 
0462    9402          3839     	SUBB	A, #HIGH(720)
0464    5008          3840     	JNC	PCA_INT_CHECK_2KHZ
                      3841     
0466    E4            3842     	CLR	A
0467    D2E2          3843     SETB ACC . 2 
0469    FB            3844     MOV R3 , A 
046A    7A1E          3845     MOV R2 , # 30 
046C    818E          3846     	AJMP	PCA_INT_RESTORE_EDGE_SET_MSB
                      3847     
                      3848     PCA_INT_CHECK_2KHZ: 
                      3849     	; Check if pwm frequency is 2kHz
046E    C3            3850     	CLR	C
046F    E8            3851     MOV A , R0 
0470    94A0          3852     	SUBB	A, #LOW(1440)				; If below 720us, 2kHz pwm is assumed
0472    E9            3853     MOV A , R1 
0473    9405          3854     	SUBB	A, #HIGH(1440)
0475    5008          3855     	JNC	PCA_INT_CHECK_1KHZ
                      3856     
0477    E4            3857     	CLR	A
0478    D2E1          3858     SETB ACC . 1 
047A    FB            3859     MOV R3 , A 
047B    7A3C          3860     MOV R2 , # 60 
047D    818E          3861     	AJMP	PCA_INT_RESTORE_EDGE_SET_MSB
                      3862     
                      3863     PCA_INT_CHECK_1KHZ: 
                      3864     	; Check if pwm frequency is 1kHz
047F    C3            3865     	CLR	C
0480    E8            3866     MOV A , R0 
0481    9498          3867     	SUBB	A, #LOW(2200)				; If below 1100us, 1kHz pwm is assumed
0483    E9            3868     MOV A , R1 
0484    9408          3869     	SUBB	A, #HIGH(2200)
0486    5008          3870     	JNC	PCA_INT_RESTORE_EDGE
                      3871     
0488    E4            3872     	CLR	A
0489    D2E0          3873     SETB ACC . 0 
048B    FB            3874     MOV R3 , A 
048C    7A78          3875     MOV R2 , # 120 
                      3876     
                      3877     PCA_INT_RESTORE_EDGE_SET_MSB: 
048E    7E00          3878     MOV R6 , # 0 
                      3879     PCA_INT_RESTORE_EDGE: 
                      3880     	; Calculate difference between this period and previous period
0490    C3            3881     	CLR	C
0491    E8            3882     MOV A , R0 
0492    9559          3883     	SUBB	A, RCP_PREV_PERIOD_L
0494    FC            3884     MOV R4 , A 
0495    E9            3885     MOV A , R1 
0496    955A          3886     	SUBB	A, RCP_PREV_PERIOD_H
0498    FD            3887     MOV R5 , A 
                      3888     	; Make positive
0499    30E70A        3889     	JNB	ACC.7, PCA_INT_CHECK_DIFF
049C    EC            3890     MOV A , R4 
049D    F4            3891     	CPL	A
049E    2401          3892     	ADD	A, #1
04A0    FC            3893     MOV R4 , A 
04A1    ED            3894     MOV A , R5 
04A2    F4            3895     	CPL	A
04A3    3400          3896     	ADDC	A, #0
04A5    FD            3897     MOV R5 , A 
                      3898     
                      3899     PCA_INT_CHECK_DIFF: 
                      3900     	; Check difference
04A6    755B00        3901     	MOV	RCP_PERIOD_DIFF_ACCEPTED, #0		; Set not accepted as default
04A9    C3            3902     	CLR	C
04AA    EC            3903     MOV A , R4 
04AB    9A            3904     SUBB A , R2 
04AC    ED            3905     MOV A , R5 
04AD    9E            3906     SUBB A , R6 
04AE    5003          3907     	JNC	PCA_INT_STORE_DATA
                      3908     
04B0    755B01        3909     	MOV	RCP_PERIOD_DIFF_ACCEPTED, #1		; Set accepted
                      3910     
                      3911     PCA_INT_STORE_DATA: 
                      3912     	; Store previous period
04B3    8859          3913     MOV RCP_PREV_PERIOD_L , R0 
04B5    895A          3914     MOV RCP_PREV_PERIOD_H , R1 
                      3915     	; Store pre previous edge
04B7    855755        3916     	MOV	RCP_PREPREV_EDGE_L, RCP_EDGE_L
04BA    855856        3917     	MOV	RCP_PREPREV_EDGE_H, RCP_EDGE_H
04BD    7802          3918     MOV R0 , # 2 
04BF    A1E3          3919     	AJMP	PCA_INT_LIMITED
                      3920     
                      3921     PCA_INT_FALL: 
                      3922     	; RC pulse edge was second, calculate new pulse length
04C1    C3            3923     	CLR	C
04C2    E8            3924     MOV A , R0 
04C3    9527          3925     	SUBB	A, RCP_PREV_EDGE_L	
04C5    F8            3926     MOV R0 , A 
04C6    E9            3927     MOV A , R1 
04C7    9528          3928     	SUBB	A, RCP_PREV_EDGE_H
04C9    F9            3929     MOV R1 , A 
04CA    307C02        3930     JNB FLAGS3 . 4 , ( $+5 ) 
04CD    A1C7          3931     	AJMP	PCA_INT_PWM_DIVIDE_DONE			; Yes - branch forward
                      3932     
04CF    307B02        3933     JNB FLAGS3 . 3 , ( $+5 ) 
04D2    A1C7          3934     	AJMP	PCA_INT_PWM_DIVIDE_DONE			; Yes - branch forward
                      3935     
04D4    307A02        3936     JNB FLAGS3 . 2 , ( $+5 ) 
04D7    A1C0          3937     	AJMP	PCA_INT_PWM_DIVIDE				; Yes - branch forward
                      3938     
04D9    207502        3939     JB FLAGS2 . 5 , ( $+5 ) 
04DC    81E4          3940     	AJMP	PCA_INT_FALL_NOT_ONESHOT
                      3941     
04DE    E9            3942     MOV A , R1 
04DF    FD            3943     MOV R5 , A 
04E0    E8            3944     MOV A , R0 
04E1    FC            3945     MOV R4 , A 
04E2    A103          3946     	AJMP	PCA_INT_FALL_CHECK_RANGE
                      3947     
                      3948     PCA_INT_FALL_NOT_ONESHOT: 
04E4    E9            3949     MOV A , R1 
04E5    C3            3950     	CLR	C
04E6    13            3951     	RRC	A
04E7    F9            3952     MOV R1 , A 
04E8    E8            3953     MOV A , R0 
04E9    13            3954     	RRC	A
04EA    F8            3955     MOV R0 , A 
                      3956     
04EB    307902        3957     JNB FLAGS3 . 1 , ( $+5 ) 
04EE    A1C0          3958     	AJMP	PCA_INT_PWM_DIVIDE				; Yes - branch forward
                      3959     
04F0    E9            3960     MOV A , R1 
04F1    C3            3961     	CLR	C
04F2    13            3962     	RRC	A
04F3    F9            3963     MOV R1 , A 
04F4    E8            3964     MOV A , R0 
04F5    13            3965     	RRC	A
04F6    F8            3966     MOV R0 , A 
                      3967     
04F7    307802        3968     JNB FLAGS3 . 0 , ( $+5 ) 
04FA    A1C0          3969     	AJMP	PCA_INT_PWM_DIVIDE				; Yes - branch forward
                      3970     
04FC    E9            3971     MOV A , R1 
04FD    C3            3972     	CLR	C
04FE    13            3973     	RRC	A
04FF    FD            3974     MOV R5 , A 
0500    E8            3975     MOV A , R0 
0501    13            3976     	RRC	A
0502    FC            3977     MOV R4 , A 
                      3978     PCA_INT_FALL_CHECK_RANGE: 
                      3979     	; Skip range limitation if pwm frequency measurement
0503    206126        3980     JB FLAGS0 . 1 , PCA_INT_PPM_CHECK_FULL_RANGE 
                      3981     
                      3982     	; Check if 2160us or above (in order to ignore false pulses)
0506    C3            3983     	CLR	C
0507    EC            3984     MOV A , R4 
0508    941C          3985     	SUBB	A, #28
050A    ED            3986     MOV A , R5 
050B    9402          3987     	SUBB A, #2
050D    4002          3988     	JC	($+4)						; No - proceed
                      3989     
050F    A11A          3990     	AJMP	PCA_INT_PPM_OUTSIDE_RANGE		; Yes - ignore pulse
                      3991     
                      3992     PCA_INT_PPM_BELOW_FULL_RANGE: 
                      3993     	; Check if below 800us (in order to ignore false pulses)
0511    ED            3994     MOV A , R5 
0512    7018          3995     	JNZ	PCA_INT_PPM_CHECK_FULL_RANGE
                      3996     
0514    C3            3997     	CLR	C
0515    EC            3998     MOV A , R4 
0516    94C8          3999     	SUBB	A, #200
0518    5012          4000     	JNC	PCA_INT_PPM_CHECK_FULL_RANGE		; No - proceed
                      4001     
                      4002     PCA_INT_PPM_OUTSIDE_RANGE: 
051A    0529          4003     	INC	RCP_OUTSIDE_RANGE_CNT
051C    C3            4004     	CLR	C
051D    E529          4005     	MOV	A, RCP_OUTSIDE_RANGE_CNT
051F    940A          4006     	SUBB	A, #10						; Allow a given number of outside pulses
0521    5002          4007     	JNC	($+4)			
0523    A1FB          4008     	AJMP	PCA_INT_SET_TIMEOUT				; If below limit - ignore pulse
                      4009     
0525    755C00        4010     	MOV	NEW_RCP, #0					; Set pulse length to zero
0528    D270          4011     SETB FLAGS2 . 0 
052A    A1FB          4012     	AJMP	PCA_INT_SET_TIMEOUT			
                      4013     
                      4014     PCA_INT_PPM_CHECK_FULL_RANGE: 
052C    E529          4015     	MOV	A, RCP_OUTSIDE_RANGE_CNT
052E    6002          4016     	JZ	($+4)
                      4017     
0530    1529          4018     	DEC	RCP_OUTSIDE_RANGE_CNT
                      4019     
                      4020     	; Calculate "1000us" plus throttle minimum
                      4021     IF MODE >= 1	; Tail or multi
0532    7888          4022     MOV R0 , # PGM_DIRECTION 
0534    E6            4023     MOV A , @ R0 
0535    F9            4024     MOV R1 , A 
                      4025     ENDIF
0536    7400          4026     	MOV	A, #0						; Set 1000us as default minimum
0538    207F08        4027     JB FLAGS3 . 7 , PCA_INT_PPM_CALCULATE 
                      4028     
053B    7896          4029     MOV R0 , # PGM_PPM_MIN_THROTTLE 
                      4030     IF MODE >= 1	; Tail or multi
053D    B90302        4031     CJNE R1 , # 3 , ( $+5 ) 
                      4032     
0540    789E          4033     MOV R0 , # PGM_PPM_CENTER_THROTTLE 
                      4034     ENDIF
0542    E6            4035     MOV A , @ R0 
                      4036     
                      4037     PCA_INT_PPM_CALCULATE: 
0543    24FA          4038     	ADD	A, #250						; Add 1000us to minimum
0545    FE            4039     MOV R6 , A 
0546    E4            4040     	CLR	A
0547    3400          4041     	ADDC	A, #0
0549    FF            4042     MOV R7 , A 
                      4043     
054A    C3            4044     	CLR	C
054B    EC            4045     MOV A , R4 
054C    9E            4046     SUBB A , R6 
054D    FC            4047     MOV R4 , A 
054E    ED            4048     MOV A , R5 
054F    9F            4049     SUBB A , R7 
0550    FD            4050     MOV R5 , A 
                      4051     IF MODE >= 1	; Tail or multi
0551    9208          4052     	MOV	BIT_ACCESS_INT.0, C
0553    B90310        4053     CJNE R1 , # 3 , PCA_INT_PPM_BIDIR_DIR_SET 
                      4054     
0556    A208          4055     	MOV	C, BIT_ACCESS_INT.0
0558    5007          4056     	JNC	PCA_INT_PPM_BIDIR_FWD			; If result is positive - branch				
                      4057     
                      4058     PCA_INT_PPM_BIDIR_REV: 
055A    207609        4059     JB FLAGS2 . 6 , PCA_INT_PPM_BIDIR_DIR_SET 
                      4060     
055D    D276          4061     SETB FLAGS2 . 6 
055F    A166          4062     	AJMP	PCA_INT_PPM_BIDIR_DIR_SET
                      4063     
                      4064     PCA_INT_PPM_BIDIR_FWD: 
0561    307602        4065     JNB FLAGS2 . 6 , PCA_INT_PPM_BIDIR_DIR_SET 
                      4066     
0564    C276          4067     CLR FLAGS2 . 6 
                      4068     
                      4069     PCA_INT_PPM_BIDIR_DIR_SET: 
0566    A208          4070     	MOV	C, BIT_ACCESS_INT.0
                      4071     ENDIF
0568    5016          4072     	JNC	PCA_INT_PPM_NEG_CHECKED			; If result is positive - branch
                      4073     
                      4074     IF MODE >= 1	; Tail or multi
056A    B9030D        4075     CJNE R1 , # 3 , PCA_INT_PPM_UNIDIR_NEG 
                      4076     
056D    EC            4077     MOV A , R4 
056E    F4            4078     	CPL	A
056F    2401          4079     	ADD	A, #1
0571    FC            4080     MOV R4 , A 
0572    ED            4081     MOV A , R5 
0573    F4            4082     	CPL	A
0574    3400          4083     	ADDC	A, #0
0576    FD            4084     MOV R5 , A 
0577    020580        4085     	JMP	PCA_INT_PPM_NEG_CHECKED
                      4086     
                      4087     PCA_INT_PPM_UNIDIR_NEG: 
                      4088     ENDIF
057A    7800          4089     MOV R0 , # 0 
057C    7900          4090     MOV R1 , # 0 
057E    A1C7          4091     	AJMP	PCA_INT_PWM_DIVIDE_DONE
                      4092     
                      4093     PCA_INT_PPM_NEG_CHECKED: 
                      4094     IF MODE >= 1	; Tail or multi
0580    B90315        4095     CJNE R1 , # 3 , PCA_INT_PPM_BIDIR_DONE 
                      4096     
0583    EC            4097     MOV A , R4 
0584    33            4098     	RLC	A
0585    FC            4099     MOV R4 A 
0586    ED            4100     MOV A , R5 
0587    33            4101     	RLC	A
0588    FD            4102     MOV R5 A 
0589    C3            4103     	CLR	C							; Subtract deadband
058A    EC            4104     MOV A , R4 
058B    940A          4105     	SUBB	A, #10		
058D    FC            4106     MOV R4 , A 
058E    ED            4107     MOV A , R5 
058F    9400          4108     	SUBB	A, #0
0591    FD            4109     MOV R5 , A 
0592    5004          4110     	JNC	PCA_INT_PPM_BIDIR_DONE
                      4111     
0594    7C00          4112     MOV R4 , # 0 
0596    7D00          4113     MOV R5 , # 0 
                      4114     
                      4115     PCA_INT_PPM_BIDIR_DONE: 
                      4116     ENDIF
0598    C3            4117     	CLR	C							; Check that RC pulse is within legal range (max 255)
0599    EC            4118     MOV A , R4 
059A    94FF          4119     SUBB A , # 255 
059C    ED            4120     MOV A , R5 
059D    9400          4121     	SUBB	A, #0
059F    4006          4122     	JC	PCA_INT_PPM_MAX_CHECKED
                      4123     
05A1    78FF          4124     MOV R0 , # 255 
05A3    7900          4125     MOV R1 , # 0 
05A5    A1C7          4126     	AJMP	PCA_INT_PWM_DIVIDE_DONE
                      4127     
                      4128     PCA_INT_PPM_MAX_CHECKED: 
05A7    EC            4129     MOV A , R4 
05A8    8572F0        4130     	MOV	B, PPM_THROTTLE_GAIN
05AB    A4            4131     	MUL	AB
05AC    C5F0          4132     	XCH	A, B
05AE    A2F7          4133     	MOV	C, B.7						; Multiply result by 2 (unity gain is 128)
05B0    33            4134     	RLC	A
05B1    F8            4135     MOV R0 , A 
05B2    7900          4136     MOV R1 , # 0 
05B4    4003          4137     	JC	PCA_INT_PPM_LIMIT_AFTER_MULT
                      4138     	
05B6    0205E3        4139     	JMP	PCA_INT_LIMITED			
                      4140     
                      4141     PCA_INT_PPM_LIMIT_AFTER_MULT: 
05B9    78FF          4142     MOV R0 , # 255 
05BB    7900          4143     MOV R1 , # 0 
05BD    0205E3        4144     	JMP	PCA_INT_LIMITED			
                      4145     
                      4146     PCA_INT_PWM_DIVIDE: 
05C0    E9            4147     MOV A , R1 
05C1    C3            4148     	CLR	C
05C2    13            4149     	RRC	A
05C3    F9            4150     MOV R1 , A 
05C4    E8            4151     MOV A , R0 
05C5    13            4152     	RRC	A
05C6    F8            4153     MOV R0 , A 
                      4154     
                      4155     PCA_INT_PWM_DIVIDE_DONE: 
05C7    307C0E        4156     JNB FLAGS3 . 4 , PCA_INT_CHECK_LEGAL_RANGE 
05CA    E9            4157     MOV A , R1 
05CB    6002          4158     	JZ	($+4)
                      4159     
05CD    78FF          4160     MOV R0 , # 255 
                      4161     
05CF    C3            4162     	CLR	C
05D0    E8            4163     MOV A , R0 
05D1    13            4164     	RRC	A
05D2    38            4165     ADDC A , R0 
05D3    F8            4166     MOV R0 , A 
05D4    E4            4167     	CLR	A
05D5    3400          4168     	ADDC	A, #0
05D7    F9            4169     MOV R1 , A 
                      4170     
                      4171     PCA_INT_CHECK_LEGAL_RANGE: 
                      4172     	; Check that RC pulse is within legal range
05D8    C3            4173     	CLR	C
05D9    E8            4174     MOV A , R0 
05DA    94FF          4175     SUBB A , # 255 
05DC    E9            4176     MOV A , R1 
05DD    9400          4177     	SUBB	A, #0
05DF    4002          4178     	JC	PCA_INT_LIMITED
                      4179     
05E1    78FF          4180     MOV R0 , # 255 
                      4181     
                      4182     PCA_INT_LIMITED: 
                      4183     	; RC pulse value accepted
05E3    885C          4184     MOV NEW_RCP , R0 
05E5    D270          4185     SETB FLAGS2 . 0 
05E7    206102        4186     JB FLAGS0 . 1 , ( $+5 ) 
                      4187     
05EA    A1FB          4188     	AJMP	PCA_INT_SET_TIMEOUT			; No - skip measurements
                      4189     
05EC    741F          4190     	MOV	A, #((1 SHL RCP_PWM_FREQ_1KHZ)+(1 SHL RCP_PWM_FREQ_2KHZ)+(1 SHL RCP_PWM_FREQ_4KHZ)+(1 SHL RCP_PWM_FREQ_8KHZ)+(1 SHL RCP_PWM_FREQ_12KHZ))
05EE    F4            4191     	CPL	A
05EF    552F          4192     	ANL	A, FLAGS3					; Clear all pwm frequency flags
05F1    4B            4193     ORL A , R3 
05F2    F52F          4194     	MOV	FLAGS3, A
05F4    C274          4195     CLR FLAGS2 . 4 
05F6    EB            4196     MOV A , R3 
05F7    7002          4197     	JNZ	PCA_INT_SET_TIMEOUT
                      4198     
05F9    D274          4199     SETB FLAGS2 . 4 
                      4200     
                      4201     PCA_INT_SET_TIMEOUT: 
05FB    752A18        4202     MOV RCP_TIMEOUT_CNT , # 24 
05FE    307403        4203     JNB FLAGS2 . 4 , PCA_INT_PPM_TIMEOUT_SET 
                      4204     
0601    752A0A        4205     MOV RCP_TIMEOUT_CNT , # 10 
                      4206     
                      4207     PCA_INT_PPM_TIMEOUT_SET: 
0604    306102        4208     JNB FLAGS0 . 1 , ( $+5 ) 
                      4209     
0607    C10F          4210     	AJMP PCA_INT_EXIT				; Yes - exit
                      4211     
0609    207403        4212     JB FLAGS2 . 4 , PCA_INT_EXIT 
                      4213     
                      4214     	RCP_INT_DISABLE 				; Disable RC pulse interrupt
060C    53DAFE        4214+1   ANL PCA0CPM0 , # 0FEH  ; INTERRUPT DISABLED
                      4215     
                      4216     PCA_INT_EXIT: 	; Exit interrupt routine	
060F    207403        4217     JB FLAGS2 . 4 , ( $+6 ) 
                      4218     
0612    752B06        4219     MOV RCP_SKIP_CNT , # 6 
                      4220     
0615    D0F0          4221     	POP	B			; Restore preserved registers
0617    D0E0          4222     	POP	ACC			
0619    D0D0          4223     	POP	PSW
061B    D2AD          4224     	SETB	ET2			; Enable timer2 interrupts
061D    43E610        4225     	ORL	EIE1, #10H	; Enable PCA0 interrupts
0620    32            4226     	RETI
                      4227     
                      4228     
                      4229     
                      4230     
                      4231     ;**** **** **** **** **** **** **** **** **** **** **** **** ****
                      4232     ;
                      4233     ; Wait xms ~(x*4*250)  (Different entry points)	
                      4234     ;
                      4235     ; No assumptions
                      4236     ;
                      4237     ;**** **** **** **** **** **** **** **** **** **** **** **** ****
                      4238     WAIT1MS: 	
0621    7901          4239     MOV R1 , # 1 
0623    02063F        4240     	JMP	WAITXMS_O
                      4241     
                      4242     WAIT3MS: 	
0626    7903          4243     MOV R1 , # 3 
0628    02063F        4244     	JMP	WAITXMS_O
                      4245     
                      4246     WAIT10MS: 	
062B    790A          4247     MOV R1 , # 10 
062D    02063F        4248     	JMP	WAITXMS_O
                      4249     
                      4250     WAIT30MS: 	
0630    791E          4251     MOV R1 , # 30 
0632    02063F        4252     	JMP	WAITXMS_O
                      4253     
                      4254     WAIT100MS: 	
0635    7964          4255     MOV R1 , # 100 
0637    02063F        4256     	JMP	WAITXMS_O
                      4257     
                      4258     WAIT200MS: 	
063A    79C8          4259     MOV R1 , # 200 
063C    02063F        4260     	JMP	WAITXMS_O
                      4261     
                      4262     WAITXMS_O: 	; Outer loop
063F    7817          4263     MOV R0 , # 23 
                      4264     WAITXMS_M: 	; Middle loop
0641    E4            4265     	CLR	A
0642    D5E0FD        4266      	DJNZ	ACC, $	; Inner loop (42.7us - 1024 cycles)
0645    D8FA          4267     DJNZ R0 , WAITXMS_M 
0647    D9F6          4268     DJNZ R1 , WAITXMS_O 
0649    22            4269     	RET
                      4270     
                      4271     
                      4272     ;**** **** **** **** **** **** **** **** **** **** **** **** ****
                      4273     ;
                      4274     ; Beeper routines (4 different entry points) 
                      4275     ;
                      4276     ; No assumptions
                      4277     ;
                      4278     ;**** **** **** **** **** **** **** **** **** **** **** **** ****
                      4279     BEEP_F1: 	; Entry point 1, load beeper frequency 1 settings
064A    7A14          4280     MOV R2 , # 20 
064C    7B78          4281     MOV R3 , # 120 
064E    020666        4282     	JMP	BEEP
                      4283     
                      4284     BEEP_F2: 	; Entry point 2, load beeper frequency 2 settings
0651    7A10          4285     MOV R2 , # 16 
0653    7B8C          4286     MOV R3 , # 140 
0655    020666        4287     	JMP	BEEP
                      4288     
                      4289     BEEP_F3: 	; Entry point 3, load beeper frequency 3 settings
0658    7A0D          4290     MOV R2 , # 13 
065A    7BB4          4291     MOV R3 , # 180 
065C    020666        4292     	JMP	BEEP
                      4293     
                      4294     BEEP_F4: 	; Entry point 4, load beeper frequency 4 settings
065F    7A0B          4295     MOV R2 , # 11 
0661    7BC8          4296     MOV R3 , # 200 
0663    020666        4297     	JMP	BEEP
                      4298     
                      4299     BEEP: 	; Beep loop start
0666    7902          4300     MOV R1 , # 2 
                      4301     BEEP_ONOFF: 
0668    B27D          4302     CPL FLAGS3 . 5 
066A    E4            4303     	CLR	A
                      4304     	BPFET_OFF			; BpFET off
066B    C295          4304+1   CLR P1 . 5 
066D    D5E0FD        4305     	DJNZ	ACC, $		; Allow some time after pfet is turned off
                      4306     	BNFET_ON			; BnFET on (in order to charge the driver of the BpFET)
0670    D294          4306+1   SETB P1 . 4 
0672    D5E0FD        4307     	DJNZ	ACC, $		; Let the nfet be turned on a while
                      4308     	BNFET_OFF			; BnFET off again
0675    C294          4308+1   CLR P1 . 4 
0677    D5E0FD        4309     	DJNZ	ACC, $		; Allow some time after nfet is turned off
                      4310     	BPFET_ON			; BpFET on
067A    D295          4310+1   SETB P1 . 5 
067C    D5E0FD        4311     	DJNZ	ACC, $		; Allow some time after pfet is turned on
                      4312     	; Turn on nfet
                      4313     	ANFET_ON			; AnFET on
067F    D293          4313+1   SETB P1 . 3 
0681    E573          4314     	MOV	A, BEEP_STRENGTH
0683    D5E0FD        4315     	DJNZ	ACC, $		
                      4316     	; Turn off nfet
                      4317     	ANFET_OFF			; AnFET off
0686    C293          4317+1   CLR P1 . 3 
0688    7496          4318     	MOV	A, #150		; 25s off
068A    D5E0FD        4319     	DJNZ	ACC, $		
068D    D9D9          4320     DJNZ R1 , BEEP_ONOFF 
                      4321     	; Copy variable
068F    EA            4322     MOV A , R2 
0690    F8            4323     MOV R0 , A 
                      4324     BEEP_OFF: 		; Fets off loop
0691    D5E0FD        4325     	DJNZ	ACC, $
0694    D8FB          4326     DJNZ R0 , BEEP_OFF 
0696    DBCE          4327     DJNZ R3 , BEEP 
                      4328     	BPFET_OFF			; BpFET off
0698    C295          4328+1   CLR P1 . 5 
069A    22            4329     	RET
                      4330     
                      4331     
                      4332     ;**** **** **** **** **** **** **** **** **** **** **** **** ****
                      4333     ;
                      4334     ; Division 16bit unsigned by 16bit unsigned
                      4335     ;
                      4336     ; Dividend shall be in Temp2/Temp1, divisor in Temp4/Temp3
                      4337     ; Result will be in Temp2/Temp1
                      4338     ;
                      4339     ;**** **** **** **** **** **** **** **** **** **** **** **** ****
                      4340     DIV_U16_BY_U16: 	
069B    C3            4341     	CLR	C       
069C    7C00          4342     MOV R4 , # 0 
069E    7D00          4343     MOV R5 , # 0 
06A0    75F000        4344     	MOV	B, #0
                      4345     DIV_U16_BY_U16_DIV1: 
06A3    05F0          4346     	INC	B      			; Increment counter for each left shift
06A5    EA            4347     MOV A , R2 
06A6    33            4348     	RLC	A      		
06A7    FA            4349     MOV R2 , A 
06A8    EB            4350     MOV A , R3 
06A9    33            4351     	RLC	A      	  	
06AA    FB            4352     MOV R3 , A 
06AB    50F6          4353     	JNC	DIV_U16_BY_U16_DIV1	; Repeat until carry flag is set from high-byte
                      4354     DIV_U16_BY_U16_DIV2:         
06AD    EB            4355     MOV A , R3 
06AE    13            4356     	RRC	A      
06AF    FB            4357     MOV R3 , A 
06B0    EA            4358     MOV A , R2 
06B1    13            4359     	RRC	A      
06B2    FA            4360     MOV R2 , A 
06B3    C3            4361     	CLR	C      
06B4    E9            4362     MOV A , R1 
06B5    FF            4363     MOV R7 , A 
06B6    E8            4364     MOV A , R0 
06B7    FE            4365     MOV R6 , A 
06B8    E8            4366     MOV A , R0 
06B9    9A            4367     SUBB A , R2 
06BA    F8            4368     MOV R0 , A 
06BB    E9            4369     MOV A , R1 
06BC    9B            4370     SUBB A , R3 
06BD    F9            4371     MOV R1 , A 
06BE    5004          4372     	JNC	DIV_U16_BY_U16_DIV3	; If carry flag is NOT set, result is 1
06C0    EF            4373     MOV A , R7 
06C1    F9            4374     MOV R1 , A 
06C2    EE            4375     MOV A , R6 
06C3    F8            4376     MOV R0 , A 
                      4377     DIV_U16_BY_U16_DIV3: 
06C4    B3            4378     	CPL	C      			; Invert carry, so it can be directly copied into result
06C5    EC            4379     MOV A , R4 
06C6    33            4380     	RLC	A      			; Shift carry flag into temporary result
06C7    FC            4381     MOV R4 , A 
06C8    ED            4382     MOV A , R5 
06C9    33            4383     	RLC	A
06CA    FD            4384     MOV R5 , A 
06CB    D5F0DF        4385     	DJNZ	B, DIV_U16_BY_U16_DIV2 	;Now count backwards and repeat until "B" is zero
06CE    ED            4386     MOV A , R5 
06CF    F9            4387     MOV R1 , A 
06D0    EC            4388     MOV A , R4 
06D1    F8            4389     MOV R0 , A 
06D2    22            4390     	RET
                      4391     
                      4392     
                      4393     ;**** **** **** **** **** **** **** **** **** **** **** **** ****
                      4394     ;
                      4395     ; Multiplication 16bit signed by 8bit unsigned
                      4396     ;
                      4397     ; Multiplicand shall be in Temp2/Temp1, multiplicator in Temp3
                      4398     ; Result will be in Temp2/Temp1. Result will divided by 16
                      4399     ;
                      4400     ;**** **** **** **** **** **** **** **** **** **** **** **** ****
                      4401     MULT_S16_BY_U8_DIV_16: 
06D3    E8            4402     MOV A , R0 
06D4    89F0          4403     MOV B , R1 
06D6    8A20          4404     MOV BIT_ACCESS , R2 
06D8    D2D4          4405     	SETB	PSW.4		; Select register bank 2 for math routines
06DA    F8            4406     MOV R0 , A 
06DB    A9F0          4407     MOV R1 , B 
06DD    7B00          4408     MOV R3 , # 0 
06DF    30F70B        4409     	JNB	B.7, MULT_S16_BY_U8_POSITIVE	
                      4410     
06E2    7BFF          4411     MOV R3 , # 0FFH 
06E4    F4            4412     	CPL	A
06E5    2401          4413     	ADD	A, #1
06E7    F8            4414     MOV R0 , A 
06E8    E9            4415     MOV A , R1 
06E9    F4            4416     	CPL	A
06EA    3400          4417     	ADDC	A, #0
06EC    F9            4418     MOV R1 , A 
                      4419     MULT_S16_BY_U8_POSITIVE: 
06ED    E8            4420     MOV A , R0 
06EE    8520F0        4421     	MOV	B, BIT_ACCESS
06F1    A4            4422     	MUL	AB
06F2    ADF0          4423     MOV R5 , B 
06F4    F8            4424     MOV R0 , A 
06F5    E9            4425     MOV A , R1 
06F6    8520F0        4426     	MOV	B, BIT_ACCESS
06F9    A4            4427     	MUL	AB
06FA    AFF0          4428     MOV R7 , B 
06FC    FE            4429     MOV R6 , A 
06FD    ED            4430     MOV A , R5 
06FE    2E            4431     ADD A , R6 
06FF    F9            4432     MOV R1 , A 
0700    7400          4433     	MOV	A, #0
0702    3F            4434     ADDC A , R7 
0703    FA            4435     MOV R2 , A 
0704    7C04          4436     MOV R4 , # 4 
                      4437     MULT_S16_BY_U8_DIV_LOOP: 
0706    C3            4438     	CLR	C			; Rotate right 
0707    EA            4439     MOV A , R2 
0708    13            4440     	RRC	A
0709    FA            4441     MOV R2 , A 
070A    E9            4442     MOV A , R1 
070B    13            4443     	RRC	A
070C    F9            4444     MOV R1 , A 
070D    E8            4445     MOV A , R0 
070E    13            4446     	RRC	A
070F    F8            4447     MOV R0 , A 
0710    DCF4          4448     DJNZ R4 , MULT_S16_BY_U8_DIV_LOOP 
                      4449     
0712    8BF0          4450     MOV B , R3 
0714    30F70A        4451     	JNB	B.7, MULT_S16_BY_U8_EXIT	
                      4452     
0717    E8            4453     MOV A , R0 
0718    F4            4454     	CPL	A
0719    2401          4455     	ADD	A, #1
071B    F8            4456     MOV R0 , A 
071C    E9            4457     MOV A , R1 
071D    F4            4458     	CPL	A
071E    3400          4459     	ADDC	A, #0
0720    F9            4460     MOV R1 , A 
                      4461     
                      4462     MULT_S16_BY_U8_EXIT: 
0721    E8            4463     MOV A , R0 
0722    89F0          4464     MOV B , R1 
0724    C2D4          4465     	CLR	PSW.4		; Select normal register bank
0726    F8            4466     MOV R0 , A 
0727    A9F0          4467     MOV R1 , B 
0729    22            4468     	RET
                      4469     
                      4470     
                      4471     ;**** **** **** **** **** **** **** **** **** **** **** **** ****
                      4472     ;
                      4473     ; Calculate governor routines
                      4474     ;
                      4475     ; No assumptions
                      4476     ;
                      4477     ; Governs headspeed based upon the Comm_Period4x variable and pwm
                      4478     ; The governor task is split into several routines in order to distribute processing time
                      4479     ;
                      4480     ;**** **** **** **** **** **** **** **** **** **** **** **** ****
                      4481     ; First governor routine - calculate governor target
                      4482     IF MODE == 0	; Main
                               CALC_GOVERNOR_TARGET:
                               	MOV	TEMP1, #PGM_GOV_MODE			; Governor mode?
                               	CJNE	@TEMP1, #4, GOVERNOR_SPEED_CHECK	; Yes
                               	JMP	CALC_GOVERNOR_TARGET_EXIT		; No
                               
                               GOVERNOR_SPEED_CHECK:
                               	; Stop governor for stop RC pulse	
                               	CLR	C
                               	MOV	A, NEW_RCP				; Check RC pulse against stop value
                               	SUBB	A, #(RCP_MAX/10)			; Is pulse below stop value?
                               	JC	GOVERNOR_DEACTIVATE			; Yes - deactivate
                               
                               	MOV	A, FLAGS1
                               	ANL	A, #((1 SHL STARTUP_PHASE)+(1 SHL INITIAL_RUN_PHASE))
                               	JNZ	GOVERNOR_DEACTIVATE			; Deactivate if any startup phase set
                               
                               	; Skip speed check if governor is already active
                               	JB	FLAGS1.GOV_ACTIVE, GOVERNOR_TARGET_CALC
                               
                               	; Check speed (do not run governor for low speeds)
                               	MOV	TEMP1, #05H				; Default high range activation limit value (~62500 eRPM)
                               	MOV	TEMP2, #PGM_GOV_RANGE
                               	MOV	A, @TEMP2					; Check if high range (Temp2 has #Pgm_Gov_Range)
                               	DEC	A
                               	JZ	GOVERNOR_ACT_LIM_SET		; If high range - branch
                               
                               	MOV	TEMP1, #0AH				; Middle range activation limit value (~31250 eRPM)
                               	DEC	A
                               	JZ	GOVERNOR_ACT_LIM_SET		; If middle range - branch
                               	
                               	MOV	TEMP1, #12H				; Low range activation limit value (~17400 eRPM)
                               
                               GOVERNOR_ACT_LIM_SET:
                               	CLR	C
                               	MOV	A, COMM_PERIOD4X_H
                               	SUBB	A, TEMP1
                               	JC	GOVERNOR_ACTIVATE			; If speed above min limit  - run governor
                               
                               GOVERNOR_DEACTIVATE:
                               	JNB	FLAGS1.GOV_ACTIVE, GOVERNOR_FIRST_DEACTIVATE_DONE; This code is executed continuously. Only execute the code below the first time
                                
                               	MOV	PWM_LIMIT_SPOOLUP, PWM_SPOOLUP_BEG
                               	MOV	SPOOLUP_LIMIT_CNT, #255
                               	MOV	SPOOLUP_LIMIT_SKIP, #1			
                               
                               GOVERNOR_FIRST_DEACTIVATE_DONE:
                               	MOV	CURRENT_PWM, REQUESTED_PWM	; Set current pwm to requested
                               	CLR	A
                               	MOV	GOV_TARGET_L, A			; Set target to zero
                               	MOV	GOV_TARGET_H, A
                               	MOV	GOV_INTEGRAL_L, A			; Set integral to zero
                               	MOV	GOV_INTEGRAL_H, A
                               	MOV	GOV_INTEGRAL_X, A
                               	CLR	FLAGS1.GOV_ACTIVE
                               	JMP	CALC_GOVERNOR_TARGET_EXIT
                               
                               GOVERNOR_ACTIVATE:
                               	SETB	FLAGS1.GOV_ACTIVE
                               
                               GOVERNOR_TARGET_CALC:
                               	; Governor calculations
                               	MOV	TEMP2, #PGM_GOV_RANGE
                               	MOV	A, @TEMP2				; Check high, middle or low range
                               	DEC	A
                               	JNZ	CALC_GOVERNOR_TARGET_MIDDLE
                               
                               	MOV	A, GOVERNOR_REQ_PWM		; Load governor requested pwm
                               	CPL	A					; Calculate 255-pwm (invert pwm) 
                               	; Calculate comm period target (1 + 2*((255-Requested_Pwm)/256) - 0.25)
                               	RLC	A					; Msb to carry
                               	RLC	A					; To bit0
                               	MOV	TEMP2, A				; Now 1 lsb is valid for H
                               	RRC	A					
                               	MOV	TEMP1, A				; Now 7 msbs are valid for L
                               	MOV	A, TEMP2
                               	ANL	A, #01H				; Calculate H byte
                               	INC	A					; Add 1
                               	MOV	TEMP2, A
                               	MOV	A, TEMP1
                               	ANL	A, #0FEH				; Calculate L byte
                               	JMP	CALC_GOVERNOR_SUBTRACT_025
                               
                               CALC_GOVERNOR_TARGET_MIDDLE:
                               	MOV	A, @TEMP2				; Check middle or low range (Temp2 has #Pgm_Gov_Range)
                               	DEC	A
                               	DEC	A
                               	JNZ	CALC_GOVERNOR_TARGET_LOW
                               
                               	MOV	A, GOVERNOR_REQ_PWM		; Load governor requested pwm
                               	CPL	A					; Calculate 255-pwm (invert pwm) 
                               	; Calculate comm period target (1 + 4*((255-Requested_Pwm)/256))
                               	RLC	A					; Msb to carry
                               	RLC	A					; To bit0
                               	RLC	A					; To bit1
                               	MOV	TEMP2, A				; Now 2 lsbs are valid for H
                               	RRC	A					
                               	MOV	TEMP1, A				; Now 6 msbs are valid for L
                               	MOV	A, TEMP2
                               	ANL	A, #03H				; Calculate H byte
                               	INC	A					; Add 1
                               	MOV	TEMP2, A
                               	MOV	A, TEMP1
                               	ANL	A, #0FCH				; Calculate L byte
                               	JMP	CALC_GOVERNOR_STORE_TARGET
                               
                               CALC_GOVERNOR_TARGET_LOW:
                               	MOV	A, GOVERNOR_REQ_PWM		; Load governor requested pwm
                               	CPL	A					; Calculate 255-pwm (invert pwm) 
                               	; Calculate comm period target (2 + 8*((255-Requested_Pwm)/256) - 0.25)
                               	RLC	A					; Msb to carry
                               	RLC	A					; To bit0
                               	RLC	A					; To bit1
                               	RLC	A					; To bit2
                               	MOV	TEMP2, A				; Now 3 lsbs are valid for H
                               	RRC	A					
                               	MOV	TEMP1, A				; Now 5 msbs are valid for L
                               	MOV	A, TEMP2
                               	ANL	A, #07H				; Calculate H byte
                               	INC	A					; Add 1
                               	INC	A					; Add 1 more
                               	MOV	TEMP2, A
                               	MOV	A, TEMP1
                               	ANL	A, #0F8H				; Calculate L byte
                               CALC_GOVERNOR_SUBTRACT_025:
                               	CLR	C
                               	SUBB	A, #40H				; Subtract 0.25
                               	MOV	TEMP1, A
                               	MOV	A, TEMP2
                               	SUBB	A, #0
                               	MOV	TEMP2, A
                               CALC_GOVERNOR_STORE_TARGET:
                               	; Store governor target
                               	MOV	GOV_TARGET_L, TEMP1
                               	MOV	GOV_TARGET_H, TEMP2
                               CALC_GOVERNOR_TARGET_EXIT:
                               	RET						
                               ENDIF
                      4620     IF MODE == 1	; Tail
                               CALC_GOVERNOR_TARGET:
                               	RET						
                               ENDIF
                      4624     IF MODE == 2	; Multi
                      4625     CALC_GOVERNOR_TARGET: 
072A    7882          4626     MOV R0 , # PGM_GOV_MODE 
072C    B60403        4627     CJNE @ R0 , # 4 , GOVERNOR_TARGET_CALC 
072F    020785        4628     	JMP	CALC_GOVERNOR_TARGET_EXIT		; No
                      4629     
                      4630     GOVERNOR_TARGET_CALC: 
                      4631     	; Stop governor for stop RC pulse	
0732    C3            4632     	CLR	C
0733    E55C          4633     	MOV	A, NEW_RCP				; Check RC pulse against stop value
0735    9401          4634     SUBB A , # 1 
0737    4003          4635     	JC	GOVERNOR_DEACTIVATE			; Yes - deactivate
                      4636     
0739    02074F        4637     	JMP	GOVERNOR_ACTIVATE			; No - activate
                      4638     
                      4639     GOVERNOR_DEACTIVATE: 
073C    852224        4640     	MOV	CURRENT_PWM, REQUESTED_PWM	; Set current pwm to requested
073F    E4            4641     	CLR	A
0740    F542          4642     	MOV	GOV_TARGET_L, A			; Set target to zero
0742    F543          4643     	MOV	GOV_TARGET_H, A
0744    F544          4644     	MOV	GOV_INTEGRAL_L, A			; Set integral to zero
0746    F545          4645     	MOV	GOV_INTEGRAL_H, A
0748    F546          4646     	MOV	GOV_INTEGRAL_X, A
074A    C26D          4647     CLR FLAGS1 . 5 
074C    020785        4648     	JMP	CALC_GOVERNOR_TARGET_EXIT
                      4649     
                      4650     GOVERNOR_ACTIVATE: 
074F    7882          4651     MOV R0 , # PGM_GOV_MODE 
0751    E6            4652     MOV A , @ R0 
0752    FC            4653     MOV R4 , A 
0753    D26D          4654     SETB FLAGS1 . 5 
0755    E522          4655     	MOV	A, REQUESTED_PWM			; Load requested pwm
0757    F523          4656     	MOV	GOVERNOR_REQ_PWM, A			; Set governor requested pwm
                      4657     	; Calculate comm period target 2*(51000/Requested_Pwm)
0759    7838          4658     MOV R0 , # 38H 
075B    79C7          4659     MOV R1 , # 0C7H 
075D    AA3D          4660     MOV R2 , COMM_PERIOD4X_L 
075F    AB3E          4661     MOV R3 , COMM_PERIOD4X_H 
                      4662     	; Set speed range 
0761    C3            4663     	CLR	C
0762    EB            4664     MOV A , R3 
0763    13            4665     	RRC	A
0764    FB            4666     MOV R3 , A 
0765    EA            4667     MOV A , R2 
0766    13            4668     	RRC	A
0767    FA            4669     MOV R2 , A 
                      4670     	; Check range
0768    EC            4671     MOV A , R4 
0769    14            4672     	DEC	A
076A    6013          4673     	JZ	GOVERNOR_ACTIVATE_RANGE_SET	; 200k eRPM? - branch
                      4674     GOVERNOR_ACTIVATE_100K: 
076C    C3            4675     	CLR	C
076D    EB            4676     MOV A , R3 
076E    13            4677     	RRC	A
076F    FB            4678     MOV R3 , A 
0770    EA            4679     MOV A , R2 
0771    13            4680     	RRC	A
0772    FA            4681     MOV R2 , A 
0773    EC            4682     MOV A , R4 
0774    14            4683     	DEC	A
0775    14            4684     	DEC	A
0776    6007          4685     	JZ	GOVERNOR_ACTIVATE_RANGE_SET	; 100k eRPM? - branch
                      4686     GOVERNOR_ACTIVATE_50K: 
0778    C3            4687     	CLR	C
0779    EB            4688     MOV A , R3 
077A    13            4689     	RRC	A
077B    FB            4690     MOV R3 , A 
077C    EA            4691     MOV A , R2 
077D    13            4692     	RRC	A
077E    FA            4693     MOV R2 , A 
                      4694     GOVERNOR_ACTIVATE_RANGE_SET: 
077F    D19B          4695     	CALL	DIV_U16_BY_U16
                      4696     	; Store governor target
0781    8842          4697     MOV GOV_TARGET_L , R0 
0783    8943          4698     MOV GOV_TARGET_H , R1 
                      4699     CALC_GOVERNOR_TARGET_EXIT: 
0785    22            4700     	RET						
                      4701     ENDIF
                      4702     
                      4703     
                      4704     ; Second governor routine - calculate governor proportional error
                      4705     CALC_GOVERNOR_PROP_ERROR: 
                      4706     IF MODE <= 1	; Main or tail
                               	; Load comm period and divide by 2
                               	CLR	C
                               	MOV	A, COMM_PERIOD4X_H
                               	RRC	A
                               	MOV	TEMP2, A
                               	MOV	A, COMM_PERIOD4X_L
                               	RRC	A
                               	MOV	TEMP1, A
                               	; Calculate error
                               	CLR	C
                               	MOV	A, GOV_TARGET_L
                               	SUBB	A, TEMP1
                               	MOV	TEMP1, A
                               	MOV	A, GOV_TARGET_H
                               	SUBB	A, TEMP2
                               	MOV	TEMP2, A
                               ENDIF
                      4724     IF MODE == 2	; Multi
                      4725     	; Calculate error
0786    C3            4726     	CLR	C
0787    E542          4727     	MOV	A, GOV_TARGET_L
0789    9523          4728     	SUBB	A, GOVERNOR_REQ_PWM
078B    F8            4729     MOV R0 , A 
078C    E543          4730     	MOV	A, GOV_TARGET_H
078E    9400          4731     	SUBB	A, #0
0790    F9            4732     MOV R1 , A 
                      4733     ENDIF
                      4734     	; Check error and limit
0791    500C          4735     	JNC	GOVERNOR_CHECK_PROP_LIMIT_POS	; Check carry
                      4736     
0793    C3            4737     	CLR	C
0794    E8            4738     MOV A , R0 
0795    9480          4739     	SUBB	A, #80H					; Is error too negative?
0797    E9            4740     MOV A , R1 
0798    94FF          4741     	SUBB	A, #0FFH
079A    4016          4742     	JC	GOVERNOR_LIMIT_PROP_ERROR_NEG	; Yes - limit
079C    0207B6        4743     	JMP	GOVERNOR_STORE_PROP_ERROR
                      4744     
                      4745     GOVERNOR_CHECK_PROP_LIMIT_POS: 
079F    C3            4746     	CLR	C
07A0    E8            4747     MOV A , R0 
07A1    947F          4748     	SUBB	A, #7FH					; Is error too positive?
07A3    E9            4749     MOV A , R1 
07A4    9400          4750     	SUBB	A, #00H
07A6    5003          4751     	JNC	GOVERNOR_LIMIT_PROP_ERROR_POS	; Yes - limit
07A8    0207B6        4752     	JMP	GOVERNOR_STORE_PROP_ERROR
                      4753     
                      4754     GOVERNOR_LIMIT_PROP_ERROR_POS: 
07AB    787F          4755     MOV R0 , # 7FH 
07AD    7900          4756     MOV R1 , # 00H 
07AF    0207B6        4757     	JMP	GOVERNOR_STORE_PROP_ERROR
                      4758     
                      4759     GOVERNOR_LIMIT_PROP_ERROR_NEG: 
07B2    7880          4760     MOV R0 , # 80H 
07B4    79FF          4761     MOV R1 , # 0FFH 
                      4762     
                      4763     GOVERNOR_STORE_PROP_ERROR: 
                      4764     	; Store proportional
07B6    8847          4765     MOV GOV_PROPORTIONAL_L , R0 
07B8    8948          4766     MOV GOV_PROPORTIONAL_H , R1 
                      4767     CALC_GOVERNOR_PROP_ERROR_EXIT: 
07BA    22            4768     	RET						
                      4769     
                      4770     
                      4771     ; Third governor routine - calculate governor integral error
                      4772     CALC_GOVERNOR_INT_ERROR: 
                      4773     	; Add proportional to integral
07BB    E547          4774     	MOV	A, GOV_PROPORTIONAL_L
07BD    2544          4775     	ADD	A, GOV_INTEGRAL_L
07BF    F8            4776     MOV R0 , A 
07C0    E548          4777     	MOV	A, GOV_PROPORTIONAL_H
07C2    3545          4778     	ADDC	A, GOV_INTEGRAL_H
07C4    F9            4779     MOV R1 , A 
07C5    854820        4780     	MOV	BIT_ACCESS, GOV_PROPORTIONAL_H		; Sign extend high byte
07C8    E4            4781     	CLR	A
07C9    300701        4782     	JNB	BIT_ACCESS.7, ($+4)			
07CC    F4            4783     	CPL	A
07CD    3546          4784     	ADDC	A, GOV_INTEGRAL_X
07CF    FA            4785     MOV R2 , A 
                      4786     	; Check integral and limit
07D0    30E709        4787     	JNB	ACC.7, GOVERNOR_CHECK_INT_LIMIT_POS	; Check sign bit
                      4788     
07D3    C3            4789     	CLR	C
07D4    EA            4790     MOV A , R2 
07D5    94F0          4791     	SUBB	A, #0F0H					; Is error too negative?
07D7    4015          4792     	JC	GOVERNOR_LIMIT_INT_ERROR_NEG	; Yes - limit
07D9    0207F4        4793     	JMP	GOVERNOR_CHECK_PWM
                      4794     
                      4795     GOVERNOR_CHECK_INT_LIMIT_POS: 
07DC    C3            4796     	CLR	C
07DD    EA            4797     MOV A , R2 
07DE    940F          4798     	SUBB	A, #0FH					; Is error too positive?
07E0    5003          4799     	JNC	GOVERNOR_LIMIT_INT_ERROR_POS	; Yes - limit
07E2    0207F4        4800     	JMP	GOVERNOR_CHECK_PWM
                      4801     
                      4802     GOVERNOR_LIMIT_INT_ERROR_POS: 
07E5    78FF          4803     MOV R0 , # 0FFH 
07E7    79FF          4804     MOV R1 , # 0FFH 
07E9    7A0F          4805     MOV R2 , # 0FH 
07EB    0207F4        4806     	JMP	GOVERNOR_CHECK_PWM
                      4807     
                      4808     GOVERNOR_LIMIT_INT_ERROR_NEG: 
07EE    7800          4809     MOV R0 , # 00H 
07F0    7900          4810     MOV R1 , # 00H 
07F2    7AF0          4811     MOV R2 , # 0F0H 
                      4812     
                      4813     GOVERNOR_CHECK_PWM: 
                      4814     	; Check current pwm
07F4    C3            4815     	CLR	C
07F5    E524          4816     	MOV	A, CURRENT_PWM
07F7    9561          4817     	SUBB	A, PWM_LIMIT				; Is current pwm at or above pwm limit?
07F9    500A          4818     	JNC	GOVERNOR_INT_MAX_PWM		; Yes - branch
                      4819     
07FB    C3            4820     	CLR	C
07FC    7401          4821     	MOV	A, #1
07FE    9524          4822     	SUBB	A, CURRENT_PWM				; Is current pwm at minimum?
0800    500B          4823     	JNC	GOVERNOR_INT_MIN_PWM		; Yes - branch
                      4824     
0802    020812        4825     	JMP	GOVERNOR_STORE_INT_ERROR		; No - store integral error
                      4826     
                      4827     GOVERNOR_INT_MAX_PWM: 
0805    E548          4828     	MOV	A, GOV_PROPORTIONAL_H
0807    20E70E        4829     	JB	ACC.7, CALC_GOVERNOR_INT_ERROR_EXIT	; Is proportional error negative - branch (high byte is always zero)
                      4830     
080A    020812        4831     	JMP	GOVERNOR_STORE_INT_ERROR		; Positive - store integral error
                      4832     
                      4833     GOVERNOR_INT_MIN_PWM: 
080D    E548          4834     	MOV	A, GOV_PROPORTIONAL_H
080F    30E706        4835     	JNB	ACC.7, CALC_GOVERNOR_INT_ERROR_EXIT	; Is proportional error positive - branch (high byte is always zero)
                      4836     
                      4837     GOVERNOR_STORE_INT_ERROR: 
                      4838     	; Store integral
0812    8844          4839     MOV GOV_INTEGRAL_L , R0 
0814    8945          4840     MOV GOV_INTEGRAL_H , R1 
0816    8A46          4841     MOV GOV_INTEGRAL_X , R2 
                      4842     CALC_GOVERNOR_INT_ERROR_EXIT: 
0818    22            4843     	RET						
                      4844     
                      4845     
                      4846     ; Fourth governor routine - calculate governor proportional correction
                      4847     CALC_GOVERNOR_PROP_CORRECTION: 
                      4848     	; Load proportional gain
0819    78A4          4849     MOV R0 , # PGM_GOV_P_GAIN_DECODED 
081B    E6            4850     MOV A , @ R0 
081C    FA            4851     MOV R2 , A 
                      4852     	; Load proportional
081D    C3            4853     	CLR	C
081E    E547          4854     	MOV	A, GOV_PROPORTIONAL_L		; Nominal multiply by 2
0820    33            4855     	RLC	A
0821    F8            4856     MOV R0 , A 
0822    E548          4857     	MOV	A, GOV_PROPORTIONAL_H
0824    33            4858     	RLC	A
0825    F9            4859     MOV R1 , A 
                      4860     	; Apply gain
0826    1206D3        4861     	CALL	MULT_S16_BY_U8_DIV_16
                      4862     	; Check error and limit (to low byte)
0829    E9            4863     MOV A , R1 
082A    30E70B        4864     	JNB	ACC.7, GOVERNOR_CHECK_PROP_CORR_LIMIT_POS	; Check sign bit
                      4865     
082D    C3            4866     	CLR	C
082E    E8            4867     MOV A , R0 
082F    9480          4868     	SUBB	A, #80H					; Is error too negative?
0831    E9            4869     MOV A , R1 
0832    94FF          4870     	SUBB	A, #0FFH
0834    4013          4871     	JC	GOVERNOR_LIMIT_PROP_CORR_NEG	; Yes - limit
0836    014D          4872     	AJMP	GOVERNOR_APPLY_PROP_CORR
                      4873     
                      4874     GOVERNOR_CHECK_PROP_CORR_LIMIT_POS: 
0838    C3            4875     	CLR	C
0839    E8            4876     MOV A , R0 
083A    947F          4877     	SUBB	A, #7FH					; Is error too positive?
083C    E9            4878     MOV A , R1 
083D    9400          4879     	SUBB	A, #00H
083F    5002          4880     	JNC	GOVERNOR_LIMIT_PROP_CORR_POS	; Yes - limit
0841    014D          4881     	AJMP	GOVERNOR_APPLY_PROP_CORR
                      4882     
                      4883     GOVERNOR_LIMIT_PROP_CORR_POS: 
0843    787F          4884     MOV R0 , # 7FH 
0845    7900          4885     MOV R1 , # 00H 
0847    014D          4886     	AJMP	GOVERNOR_APPLY_PROP_CORR
                      4887     
                      4888     GOVERNOR_LIMIT_PROP_CORR_NEG: 
0849    7880          4889     MOV R0 , # 80H 
084B    79FF          4890     MOV R1 , # 0FFH 
                      4891     
                      4892     GOVERNOR_APPLY_PROP_CORR: 
                      4893     	; Test proportional sign
084D    E8            4894     MOV A , R0 
084E    20E715        4895     	JB	ACC.7, GOVERNOR_CORR_NEG_PROP	; If proportional negative - go to correct negative
                      4896     
                      4897     	; Subtract positive proportional
0851    C3            4898     	CLR	C
0852    E523          4899     	MOV	A, GOVERNOR_REQ_PWM
0854    98            4900     SUBB A , R0 
0855    F8            4901     MOV R0 , A 
                      4902     	; Check result
0856    4009          4903     	JC	GOVERNOR_CORR_PROP_MIN_PWM	; Is result negative?
                      4904     
0858    C3            4905     	CLR	C
0859    E8            4906     MOV A , R0 
085A    9401          4907     	SUBB	A, #1
085C    4003          4908     	JC	GOVERNOR_CORR_PROP_MIN_PWM	; Yes
085E    020874        4909     	JMP	GOVERNOR_STORE_PROP_CORR		; No - store proportional correction
                      4910     
                      4911     GOVERNOR_CORR_PROP_MIN_PWM: 
0861    7801          4912     MOV R0 , # 1 
0863    020874        4913     	JMP	GOVERNOR_STORE_PROP_CORR
                      4914     
                      4915     GOVERNOR_CORR_NEG_PROP: 
                      4916     	; Add negative proportional
0866    E8            4917     MOV A , R0 
0867    F4            4918     	CPL	A
0868    2401          4919     	ADD	A, #1
086A    2523          4920     	ADD	A, GOVERNOR_REQ_PWM
086C    F8            4921     MOV R0 , A 
                      4922     	; Check result
086D    4003          4923     	JC	GOVERNOR_CORR_PROP_MAX_PWM	; Is result above max?
086F    020874        4924     	JMP	GOVERNOR_STORE_PROP_CORR		; No - store proportional correction
                      4925     
                      4926     GOVERNOR_CORR_PROP_MAX_PWM: 
0872    78FF          4927     MOV R0 , # 255 
                      4928     GOVERNOR_STORE_PROP_CORR: 
                      4929     	; Store proportional pwm
0874    8849          4930     MOV GOV_PROP_PWM , R0 
                      4931     CALC_GOVERNOR_PROP_CORR_EXIT: 
0876    22            4932     	RET
                      4933     
                      4934     
                      4935     ; Fifth governor routine - calculate governor integral correction
                      4936     CALC_GOVERNOR_INT_CORRECTION: 
                      4937     	; Load integral gain
0877    78A5          4938     MOV R0 , # PGM_GOV_I_GAIN_DECODED 
0879    E6            4939     MOV A , @ R0 
087A    FA            4940     MOV R2 , A 
                      4941     	; Load integral
087B    A845          4942     MOV R0 , GOV_INTEGRAL_H 
087D    A946          4943     MOV R1 , GOV_INTEGRAL_X 
                      4944     	; Apply gain
087F    1206D3        4945     	CALL	MULT_S16_BY_U8_DIV_16
                      4946     	; Check integral and limit
0882    E9            4947     MOV A , R1 
0883    30E70C        4948     	JNB	ACC.7, GOVERNOR_CHECK_INT_CORR_LIMIT_POS	; Check sign bit
                      4949     
0886    C3            4950     	CLR	C
0887    E8            4951     MOV A , R0 
0888    9401          4952     	SUBB	A, #01H					; Is integral too negative?
088A    E9            4953     MOV A , R1 
088B    94FF          4954     	SUBB	A, #0FFH
088D    4016          4955     	JC	GOVERNOR_LIMIT_INT_CORR_NEG	; Yes - limit
088F    0208A9        4956     	JMP	GOVERNOR_APPLY_INT_CORR
                      4957     
                      4958     GOVERNOR_CHECK_INT_CORR_LIMIT_POS: 
0892    C3            4959     	CLR	C
0893    E8            4960     MOV A , R0 
0894    94FF          4961     	SUBB	A, #0FFH					; Is integral too positive?
0896    E9            4962     MOV A , R1 
0897    9400          4963     	SUBB	A, #00H
0899    5003          4964     	JNC	GOVERNOR_LIMIT_INT_CORR_POS	; Yes - limit
089B    0208A9        4965     	JMP	GOVERNOR_APPLY_INT_CORR
                      4966     
                      4967     GOVERNOR_LIMIT_INT_CORR_POS: 
089E    78FF          4968     MOV R0 , # 0FFH 
08A0    7900          4969     MOV R1 , # 00H 
08A2    0208A9        4970     	JMP	GOVERNOR_APPLY_INT_CORR
                      4971     
                      4972     GOVERNOR_LIMIT_INT_CORR_NEG: 
08A5    7801          4973     MOV R0 , # 01H 
08A7    79FF          4974     MOV R1 , # 0FFH 
                      4975     
                      4976     GOVERNOR_APPLY_INT_CORR: 
                      4977     	; Test integral sign
08A9    E9            4978     MOV A , R1 
08AA    20E715        4979     	JB	ACC.7, GOVERNOR_CORR_NEG_INT	; If integral negative - go to correct negative
                      4980     
                      4981     	; Subtract positive integral
08AD    C3            4982     	CLR	C
08AE    E549          4983     	MOV	A, GOV_PROP_PWM
08B0    98            4984     SUBB A , R0 
08B1    F8            4985     MOV R0 , A 
                      4986     	; Check result
08B2    4009          4987     	JC	GOVERNOR_CORR_INT_MIN_PWM	; Is result negative?
                      4988     
08B4    C3            4989     	CLR	C
08B5    E8            4990     MOV A , R0 
08B6    9401          4991     	SUBB	A, #1
08B8    4003          4992     	JC	GOVERNOR_CORR_INT_MIN_PWM	; Yes
08BA    0208D0        4993     	JMP	GOVERNOR_STORE_INT_CORR		; No - store correction
                      4994     
                      4995     GOVERNOR_CORR_INT_MIN_PWM: 
08BD    7801          4996     MOV R0 , # 1 
08BF    0208D0        4997     	JMP	GOVERNOR_STORE_INT_CORR
                      4998     
                      4999     GOVERNOR_CORR_NEG_INT: 
                      5000     	; Add negative integral
08C2    E8            5001     MOV A , R0 
08C3    F4            5002     	CPL	A
08C4    2401          5003     	ADD	A, #1
08C6    2549          5004     	ADD	A, GOV_PROP_PWM
08C8    F8            5005     MOV R0 , A 
                      5006     	; Check result
08C9    4003          5007     	JC	GOVERNOR_CORR_INT_MAX_PWM	; Is result above max?
08CB    0208D0        5008     	JMP	GOVERNOR_STORE_INT_CORR		; No - store correction
                      5009     
                      5010     GOVERNOR_CORR_INT_MAX_PWM: 
08CE    78FF          5011     MOV R0 , # 255 
                      5012     GOVERNOR_STORE_INT_CORR: 
                      5013     	; Store current pwm
08D0    8824          5014     MOV CURRENT_PWM , R0 
                      5015     CALC_GOVERNOR_INT_CORR_EXIT: 
08D2    22            5016     	RET
                      5017     
                      5018     
                      5019     ;**** **** **** **** **** **** **** **** **** **** **** **** ****
                      5020     ;
                      5021     ; Set pwm limit low rpm
                      5022     ;
                      5023     ; No assumptions
                      5024     ;
                      5025     ; Sets power limit for low rpms and disables demag for low rpms
                      5026     ;
                      5027     ;**** **** **** **** **** **** **** **** **** **** **** **** ****
                      5028     SET_PWM_LIMIT_LOW_RPM: 
                      5029     	; Set pwm limit and demag disable for low rpms
08D3    78FF          5030     MOV R0 , # 0FFH 
08D5    C264          5031     CLR FLAGS0 . 4 
08D7    20693D        5032     JB FLAGS1 . 1 , SET_PWM_LIMIT_LOW_RPM_EXIT 
08DA    206A12        5033     JB FLAGS1 . 2 , SET_PWM_DEMAG_DONE 
                      5034     
08DD    D264          5035     SETB FLAGS0 . 4 
08DF    C3            5036     	CLR	C
08E0    E53E          5037     	MOV	A, COMM_PERIOD4X_H
08E2    940A          5038     	SUBB	A, #0AH						; ~31250 eRPM
08E4    4009          5039     	JC	SET_PWM_DEMAG_DONE				; If speed above - branch
                      5040     
08E6    C3            5041     	CLR	C
08E7    E525          5042     	MOV	A, CURRENT_PWM_LIMITED	
08E9    9440          5043     	SUBB	A, #40H						; Do not disable if pwm above 25%
08EB    5002          5044     	JNC	SET_PWM_DEMAG_DONE
                      5045     
08ED    C264          5046     CLR FLAGS0 . 4 
                      5047     
                      5048     SET_PWM_DEMAG_DONE: 
08EF    79A1          5049     MOV R1 , # PGM_ENABLE_POWER_PROT 
08F1    E7            5050     MOV A , @ R1 
08F2    6023          5051     	JZ	SET_PWM_LIMIT_LOW_RPM_EXIT		; Exit if disabled
                      5052     
08F4    E53E          5053     	MOV	A, COMM_PERIOD4X_H
08F6    601F          5054     	JZ	SET_PWM_LIMIT_LOW_RPM_EXIT		; Avoid divide by zero
                      5055     
08F8    74FF          5056     	MOV	A, #255						; Divide 255 by Comm_Period4x_H
08FA    853EF0        5057     	MOV	B, COMM_PERIOD4X_H
08FD    84            5058     	DIV	AB
08FE    8538F0        5059     	MOV	B, LOW_RPM_PWR_SLOPE			; Multiply by slope
0901    306A03        5060     JNB FLAGS1 . 2 , ( $+6 ) 
0904    75F005        5061     	MOV	B, #5
0907    A4            5062     	MUL	AB
0908    F8            5063     MOV R0 , A 
0909    C5F0          5064     	XCH	A, B
090B    6002          5065     	JZ	($+4)						; Limit to max
                      5066     	
090D    78FF          5067     MOV R0 , # 0FFH 
                      5068     
090F    C3            5069     	CLR	C
0910    E8            5070     MOV A , R0 
0911    9564          5071     	SUBB	A, PWM_SPOOLUP_BEG
0913    5002          5072     	JNC	SET_PWM_LIMIT_LOW_RPM_EXIT
                      5073     
0915    A864          5074     MOV R0 , PWM_SPOOLUP_BEG 
                      5075     
                      5076     SET_PWM_LIMIT_LOW_RPM_EXIT: 
0917    8863          5077     MOV PWM_LIMIT_BY_RPM , R0 
0919    22            5078     	RET
                      5079     	
                      5080     
                      5081     ;**** **** **** **** **** **** **** **** **** **** **** **** ****
                      5082     ;
                      5083     ; Set pwm limit high rpm
                      5084     ;
                      5085     ; No assumptions
                      5086     ;
                      5087     ; Sets power limit for high rpms
                      5088     ;
                      5089     ;**** **** **** **** **** **** **** **** **** **** **** **** ****
                      5090     SET_PWM_LIMIT_HIGH_RPM: 
                      5091     IF MCU_48MHZ == 1
091A    C3            5092     	CLR	C
091B    E53D          5093     	MOV	A, COMM_PERIOD4X_L
091D    94C8          5094     	SUBB	A, #0C8H				; Limit Comm_Period to 200, which is 400k erpm
091F    E53E          5095     	MOV	A, COMM_PERIOD4X_H
0921    9400          5096     	SUBB	A, #00H
                      5097     ELSE
                               	CLR	C
                               	MOV	A, COMM_PERIOD4X_L
                               	SUBB	A, #40H				; Limit Comm_Period to 320, which is 250k erpm
                               	MOV	A, COMM_PERIOD4X_H
                               	SUBB	A, #01H
                               ENDIF
0923    E563          5104     	MOV	A, PWM_LIMIT_BY_RPM
0925    5003          5105     	JNC	SET_PWM_LIMIT_HIGH_RPM_INC_LIMIT
                      5106     	
0927    14            5107     	DEC	A
0928    212B          5108     	AJMP	SET_PWM_LIMIT_HIGH_RPM_STORE
                      5109     	
                      5110     SET_PWM_LIMIT_HIGH_RPM_INC_LIMIT: 
092A    04            5111     	INC	A
                      5112     SET_PWM_LIMIT_HIGH_RPM_STORE: 
092B    6002          5113     	JZ	($+4)
                      5114     
092D    F563          5115     	MOV	PWM_LIMIT_BY_RPM, A
                      5116     
092F    22            5117     	RET
                      5118     
                      5119     
                      5120     ;**** **** **** **** **** **** **** **** **** **** **** **** ****
                      5121     ;
                      5122     ; Measure lipo cells
                      5123     ;
                      5124     ; No assumptions
                      5125     ;
                      5126     ; Measure voltage and calculate lipo cells
                      5127     ;
                      5128     ;**** **** **** **** **** **** **** **** **** **** **** **** ****
                      5129     MEASURE_LIPO_CELLS: 
                      5130     IF MODE >= 1	; Tail or multi
                      5131     	; If not supported, then exit
0930    020933        5132     	JMP	MEASURE_LIPO_EXIT
                      5133     ENDIF
                      5134     IF MODE == 0	; Main
                               	; Load programmed low voltage limit
                               	MOV	TEMP1, #PGM_LOW_VOLTAGE_LIM	; Load limit
                               	MOV	A, @TEMP1				
                               	MOV	BIT_ACCESS, A				; Store in Bit_Access
                               	; Set commutation to BpFET on
                               	CALL	COMM5COMM6			
                               	; Start adc
                               	START_ADC 
                               	; Wait for ADC reference to settle, and then start again
                               	CALL	WAIT1MS
                               	START_ADC
                               	; Wait for ADC conversion to complete
                               MEASURE_LIPO_WAIT_ADC:
                               	GET_ADC_STATUS 
                               	JB	AD0BUSY, MEASURE_LIPO_WAIT_ADC
                               	; Read ADC result
                               	READ_ADC_RESULT
                               	; Stop ADC
                               	STOP_ADC
                               	; Switch power off
                               	CALL	SWITCH_POWER_OFF		
                               	; Set limit step
                               	MOV	LIPO_ADC_LIMIT_L, #ADC_LIMIT_L
                               	MOV	LIPO_ADC_LIMIT_H, #ADC_LIMIT_H
                               	CLR	C
                               	MOV	A, #ADC_LIMIT_H		; Divide 3.0V value by 2
                               	RRC	A
                               	MOV	TEMP6, A
                               	MOV	A, #ADC_LIMIT_L
                               	JZ	MEASURE_LIPO_EXIT		; Exit if disabled
                               
                               	RRC	A
                               	MOV	TEMP5, A
                               	MOV	A, #ADC_LIMIT_L		; Calculate 1.5*3.0V=4.5V value
                               	ADD	A, TEMP5
                               	MOV	TEMP5, A
                               	MOV	A, #ADC_LIMIT_H		
                               	ADDC	A, TEMP6
                               	MOV	TEMP6, A
                               	MOV	A, TEMP5				; Copy step
                               	MOV	TEMP3, A
                               	MOV	A, TEMP6	
                               	MOV	TEMP4, A
                               MEASURE_LIPO_CELL_LOOP:
                               	; Check voltage against xS lower limit
                               	CLR	C
                               	MOV	A, TEMP1
                               	SUBB	A, TEMP3				; Voltage above limit?
                               	MOV	A, TEMP2
                               	SUBB A, TEMP4
                               	JC	MEASURE_LIPO_ADJUST		; No - branch
                               
                               	; Set xS voltage limit
                               	MOV	A, LIPO_ADC_LIMIT_L		
                               	ADD	A, #ADC_LIMIT_L
                               	MOV	LIPO_ADC_LIMIT_L, A
                               	MOV	A, LIPO_ADC_LIMIT_H		
                               	ADDC	A, #ADC_LIMIT_H
                               	MOV	LIPO_ADC_LIMIT_H, A
                               	; Set (x+1)S lower limit
                               	MOV	A, TEMP3
                               	ADD	A, TEMP5				; Add step
                               	MOV	TEMP3, A
                               	MOV	A, TEMP4
                               	ADDC	A, TEMP6
                               	MOV	TEMP4, A
                               	JMP	MEASURE_LIPO_CELL_LOOP	; Check for one more battery cell
                               
                               MEASURE_LIPO_ADJUST:
                               	MOV	TEMP7, LIPO_ADC_LIMIT_L
                               	MOV	TEMP8, LIPO_ADC_LIMIT_H
                               	; Calculate 3.125%
                               	CLR	C
                               	MOV	A, LIPO_ADC_LIMIT_H
                               	RRC	A
                               	MOV	TEMP2, A
                               	MOV	A, LIPO_ADC_LIMIT_L	
                               	RRC	A
                               	MOV	TEMP1, A			; After this 50%
                               	CLR	C
                               	MOV	A, TEMP2
                               	RRC	A
                               	MOV	TEMP2, A
                               	MOV	A, TEMP1	
                               	RRC	A
                               	MOV	TEMP1, A			; After this 25%
                               	; Divide three times to get to 3.125%
                               	MOV	TEMP3, #3
                               MEASURE_LIPO_DIVIDE_LOOP:
                               	CLR	C
                               	MOV	A, TEMP2
                               	RRC	A
                               	MOV	TEMP2, A
                               	MOV	A, TEMP1	
                               	RRC	A
                               	MOV	TEMP1, A			
                               	DJNZ	TEMP3, MEASURE_LIPO_DIVIDE_LOOP
                               
                               	; Add the programmed number of 0.1V (or 3.125% increments)
                               	MOV	TEMP3, BIT_ACCESS		; Load programmed limit (Bit_Access has Pgm_Low_Voltage_Lim)
                               	DEC	TEMP3
                               	JNZ	MEASURE_LIPO_LIMIT_ON	; Is low voltage limiting on?
                               
                               	MOV	LIPO_ADC_LIMIT_L, #0	; No - set limit to zero
                               	MOV	LIPO_ADC_LIMIT_H, #0
                               	JMP	MEASURE_LIPO_EXIT	
                               
                               MEASURE_LIPO_LIMIT_ON:
                               	DEC	TEMP3
                               	MOV	A, TEMP3
                               	JZ	MEASURE_LIPO_UPDATE
                               
                               MEASURE_LIPO_ADD_LOOP:
                               	MOV	A, TEMP7			; Add 3.125%
                               	ADD	A, TEMP1
                               	MOV	TEMP7, A
                               	MOV	A, TEMP8
                               	ADDC	A, TEMP2
                               	MOV	TEMP8, A
                               	DJNZ	TEMP3, MEASURE_LIPO_ADD_LOOP
                               
                               MEASURE_LIPO_UPDATE:
                               	; Set ADC limit
                               	MOV	LIPO_ADC_LIMIT_L, TEMP7
                               	MOV	LIPO_ADC_LIMIT_H, TEMP8
                               ENDIF
                      5261     MEASURE_LIPO_EXIT: 
0933    22            5262     	RET
                      5263     
                      5264     
                      5265     ;**** **** **** **** **** **** **** **** **** **** **** **** ****
                      5266     ;
                      5267     ; Start ADC conversion
                      5268     ;
                      5269     ; No assumptions
                      5270     ;
                      5271     ; Start conversion used for measuring power supply voltage
                      5272     ;
                      5273     ;**** **** **** **** **** **** **** **** **** **** **** **** ****
                      5274     START_ADC_CONVERSION: 
                      5275     	; Start adc
                      5276     	START_ADC 
0934    75E890        5276+1   MOV ADC0CN , # 90H  ; ADC START
0937    22            5277     	RET
                      5278     
                      5279     
                      5280     ;**** **** **** **** **** **** **** **** **** **** **** **** ****
                      5281     ;
                      5282     ; Check temperature, power supply voltage and limit power
                      5283     ;
                      5284     ; No assumptions
                      5285     ;
                      5286     ; Used to limit main motor power in order to maintain the required voltage
                      5287     ;
                      5288     ;**** **** **** **** **** **** **** **** **** **** **** **** ****
                      5289     CHECK_TEMP_VOLTAGE_AND_LIMIT_POWER: 
                      5290     	; Load programmed low voltage limit
0938    7883          5291     MOV R0 , # PGM_LOW_VOLTAGE_LIM 
093A    E6            5292     MOV A , @ R0 
093B    FF            5293     MOV R7 , A 
                      5294     	; Wait for ADC conversion to complete
                      5295     	GET_ADC_STATUS 
093C    E5E8          5295+1   MOV A , ADC0CN 
093E    20ECF7        5296     	JB	AD0BUSY, CHECK_TEMP_VOLTAGE_AND_LIMIT_POWER
                      5297     	; Read ADC result
                      5298     	READ_ADC_RESULT
0941    A8BD          5298+1   MOV R0 , ADC0L 
0943    A9BE          5298+1   MOV R1 , ADC0H 
                      5299     	; Stop ADC
                      5300     	STOP_ADC
                      5301     
0945    0570          5302     	INC	ADC_CONVERSION_CNT			; Increment conversion counter
0947    C3            5303     	CLR	C
0948    E570          5304     	MOV	A, ADC_CONVERSION_CNT		; Is conversion count equal to temp rate?
094A    9408          5305     SUBB A , # 8 
094C    4052          5306     	JC	CHECK_VOLTAGE_START			; No - check voltage
                      5307     
094E    757000        5308     	MOV	ADC_CONVERSION_CNT, #0		; Yes - temperature check. Reset counter
0951    E9            5309     MOV A , R1 
0952    FA            5310     MOV R2 , A 
0953    79A0          5311     MOV R1 , # PGM_ENABLE_TEMP_PROT 
0955    E7            5312     MOV A , @ R1 
0956    6044          5313     	JZ	TEMP_CHECK_EXIT			; No - branch
                      5314     
0958    EA            5315     MOV A , R2 
0959    7007          5316     	JNZ	TEMP_AVERAGE_INC_DEC		; No - proceed
                      5317     
095B    E571          5318     	MOV	A, CURRENT_AVERAGE_TEMP		; Yes -  decrement average
095D    601B          5319     	JZ	TEMP_AVERAGE_UPDATED		; Already zero - no change
095F    02096E        5320     	JMP	TEMP_AVERAGE_DEC			; Decrement 
                      5321     
                      5322     TEMP_AVERAGE_INC_DEC: 
0962    C3            5323     	CLR	C
0963    E8            5324     MOV A , R0 
0964    9571          5325     	SUBB	A, CURRENT_AVERAGE_TEMP
0966    6010          5326     	JZ	TEMP_AVERAGE_UPDATED_LOAD_ACC	; Equal - no change
                      5327     
0968    E571          5328     	MOV	A, CURRENT_AVERAGE_TEMP		; Above - increment average
096A    5006          5329     	JNC	TEMP_AVERAGE_INC				
                      5330     
096C    600C          5331     	JZ	TEMP_AVERAGE_UPDATED		; Below - decrement average if average is not already zero
                      5332     TEMP_AVERAGE_DEC: 
096E    14            5333     	DEC	A						; Decrement average
096F    02097A        5334     	JMP	TEMP_AVERAGE_UPDATED
                      5335     
                      5336     TEMP_AVERAGE_INC: 
0972    04            5337     	INC	A						; Increment average
0973    60F9          5338     	JZ	TEMP_AVERAGE_DEC
0975    02097A        5339     	JMP	TEMP_AVERAGE_UPDATED
                      5340     
                      5341     TEMP_AVERAGE_UPDATED_LOAD_ACC: 
0978    E571          5342     	MOV	A, CURRENT_AVERAGE_TEMP
                      5343     TEMP_AVERAGE_UPDATED: 
097A    F571          5344     	MOV	CURRENT_AVERAGE_TEMP, A
097C    C3            5345     	CLR	C
097D    9472          5346     SUBB A , # 114 
097F    401B          5347     	JC	TEMP_CHECK_EXIT			; Yes - exit
                      5348     
0981    7561C0        5349     	MOV  PWM_LIMIT, #192			; No - limit pwm
                      5350     
0984    C3            5351     	CLR	C
0985    9404          5352     SUBB A , # 4 
0987    4013          5353     	JC	TEMP_CHECK_EXIT			; Yes - exit
                      5354     
0989    756180        5355     	MOV  PWM_LIMIT, #128			; No - limit pwm
                      5356     
098C    C3            5357     	CLR	C
098D    9404          5358     SUBB A , # 4 
098F    400B          5359     	JC	TEMP_CHECK_EXIT			; Yes - exit
                      5360     
0991    756140        5361     	MOV  PWM_LIMIT, #64				; No - limit pwm
                      5362     
0994    C3            5363     	CLR	C
0995    9404          5364     SUBB A , # 4 
0997    4003          5365     	JC	TEMP_CHECK_EXIT			; Yes - exit
                      5366     
0999    756100        5367     	MOV  PWM_LIMIT, #0				; No - limit pwm
                      5368     
                      5369     TEMP_CHECK_EXIT: 
                      5370     	SET_ADC_IP_VOLT				; Select adc input for next conversion
099C    75BB09        5370+1   MOV AMX0P , # ( 8+ADC_IP )  ; SELECT POSITIVE INPUT
099F    22            5371     	RET
                      5372     
                      5373     CHECK_VOLTAGE_START: 
                      5374     IF MODE == 0	; Main 
                               	; Check if low voltage limiting is enabled
                               	MOV	A, TEMP8
                               	CLR	C
                               	SUBB	A, #1					; Is low voltage limit disabled?
                               	JZ	CHECK_VOLTAGE_GOOD			; Yes - voltage declared good
                               
                               	MOV	A, #ADC_LIMIT_L			; Is low voltage limit zero (ESC does not support it)?
                               	JZ	CHECK_VOLTAGE_GOOD			; Yes - voltage declared good
                               
                               	; Check if ADC is saturated
                               	CLR	C
                               	MOV	A, TEMP1
                               	SUBB	A, #0FFH
                               	MOV	A, TEMP2
                               	SUBB	A, #03H
                               	JNC	CHECK_VOLTAGE_GOOD			; ADC saturated, can not make judgement
                               
                               	; Check voltage against limit
                               	CLR	C
                               	MOV	A, TEMP1
                               	SUBB	A, LIPO_ADC_LIMIT_L
                               	MOV	A, TEMP2
                               	SUBB	A, LIPO_ADC_LIMIT_H
                               	JNC	CHECK_VOLTAGE_GOOD			; If voltage above limit - branch
                               
                               	; Decrease pwm limit
                               	MOV  A, PWM_LIMIT
                               	JZ	CHECK_VOLTAGE_LIM			; If limit zero - branch
                               
                               	DEC	PWM_LIMIT					; Decrement limit
                               	JMP	CHECK_VOLTAGE_LIM
                               
                               CHECK_VOLTAGE_GOOD:
                               	; Increase pwm limit
                               	MOV  A, PWM_LIMIT
                               	CPL	A			
                               	JZ	CHECK_VOLTAGE_LIM			; If limit max - branch
                               
                               	INC	PWM_LIMIT					; Increment limit
                               
                               CHECK_VOLTAGE_LIM:
                               	MOV	TEMP1, PWM_LIMIT			; Set limit
                               	CLR	C
                               	MOV	A, CURRENT_PWM
                               	SUBB	A, TEMP1
                               	JNC	CHECK_VOLTAGE_SPOOLUP_LIM	; If current pwm above limit - branch and limit	
                               
                               	MOV	TEMP1, CURRENT_PWM			; Set current pwm (no limiting)
                               
                               CHECK_VOLTAGE_SPOOLUP_LIM:
                               	; Slow spoolup
                               	CLR	C
                               	MOV	A, TEMP1
                               	SUBB	A, PWM_LIMIT_SPOOLUP
                               	JC	CHECK_VOLTAGE_EXIT			; If current pwm below limit - branch	
                               
                               	MOV	TEMP1, PWM_LIMIT_SPOOLUP
                               	MOV	A, PWM_LIMIT_SPOOLUP		; Check if spoolup limit is max
                               	CPL	A
                               	JZ	CHECK_VOLTAGE_EXIT			; If max - branch
                                
                               	MOV	PWM_LIMIT, PWM_LIMIT_SPOOLUP	; Set pwm limit to spoolup limit during ramp (to avoid governor integral buildup)
                               
                               CHECK_VOLTAGE_EXIT:
                               	MOV  CURRENT_PWM_LIMITED, TEMP1
                               	MOV	CURRENT_PWM_LIM_DITH, TEMP1
                               ENDIF
                      5442     IF MODE == 1	; Tail
                               	; Increase pwm limit
                               	MOV  A, PWM_LIMIT
                               	CPL	A			
                               	JZ	CHECK_VOLTAGE_LIM			; If limit max - branch
                               
                               	INC	PWM_LIMIT					; Increment limit
                               
                               CHECK_VOLTAGE_LIM:
                               ENDIF
                      5452     IF MODE == 2	; Multi
                      5453     	; Increase pwm limit
09A0    E561          5454     	MOV  A, PWM_LIMIT
09A2    2410          5455     	ADD	A, #16			
09A4    5002          5456     	JNC	($+4)					; If not max - branch
                      5457     
09A6    74FF          5458     	MOV	A, #255
                      5459     
09A8    F561          5460     	MOV	PWM_LIMIT, A				; Increment limit 
                      5461     	; Set current pwm limited if closed loop mode
09AA    7982          5462     MOV R1 , # PGM_GOV_MODE 
09AC    B70402        5463     CJNE @ R1 , # 4 , ( $+5 ) 
09AF    21C7          5464     	AJMP	CHECK_VOLTAGE_PWM_DONE		; No - branch
                      5465     
09B1    C3            5466     	CLR	C
09B2    A861          5467     MOV R0 , PWM_LIMIT 
09B4    E524          5468     	MOV	A, CURRENT_PWM
09B6    98            5469     SUBB A , R0 
09B7    5002          5470     	JNC	CHECK_VOLTAGE_LOW_RPM		; If current pwm above limit - branch and limit	
                      5471     
09B9    A824          5472     MOV R0 , CURRENT_PWM 
                      5473     
                      5474     CHECK_VOLTAGE_LOW_RPM: 
                      5475     	; Limit pwm for low rpms
09BB    C3            5476     	CLR	C
09BC    E8            5477     MOV A , R0 
09BD    9563          5478     	SUBB	A, PWM_LIMIT_BY_RPM
09BF    4002          5479     	JC	($+4)					; If current pwm below limit - branch
                      5480     
09C1    A863          5481     MOV R0 , PWM_LIMIT_BY_RPM 
                      5482     
09C3    8825          5483     MOV CURRENT_PWM_LIMITED , R0 
09C5    8826          5484     MOV CURRENT_PWM_LIM_DITH , R0 
                      5485     CHECK_VOLTAGE_PWM_DONE: 
                      5486     ENDIF
                      5487     	; Set adc mux for next conversion
09C7    E570          5488     	MOV	A, ADC_CONVERSION_CNT		; Is next conversion for temperature?
09C9    B40703        5489     	CJNE	A, #(TEMP_CHECK_RATE-1), CHECK_VOLTAGE_RET
                      5490     
                      5491     	SET_ADC_IP_TEMP				; Select temp sensor for next conversion
09CC    75BB10        5491+1   MOV AMX0P , # 10H  ; SELECT TEMP SENSOR INPUT
                      5492     
                      5493     CHECK_VOLTAGE_RET: 
09CF    22            5494     	RET
                      5495     
                      5496     
                      5497     ;**** **** **** **** **** **** **** **** **** **** **** **** ****
                      5498     ;
                      5499     ; Set startup PWM routine
                      5500     ;
                      5501     ; Either the SETTLE_PHASE or the STEPPER_PHASE flag must be set
                      5502     ;
                      5503     ; Used for pwm control during startup
                      5504     ;
                      5505     ;**** **** **** **** **** **** **** **** **** **** **** **** ****
                      5506     SET_STARTUP_PWM: 	
                      5507     	; Adjust startup power
09D0    7432          5508     MOV A , # 50 
09D2    79A6          5509     MOV R1 , # PGM_STARTUP_PWR_DECODED 
09D4    87F0          5510     MOV B , @ R1 
09D6    A4            5511     	MUL	AB
09D7    C5F0          5512     	XCH	A, B
09D9    A2F7          5513     	MOV	C, B.7						; Multiply result by 2 (unity gain is 128)
09DB    33            5514     	RLC	A
09DC    F8            5515     MOV R0 , A 
09DD    C3            5516     	CLR	C
09DE    E8            5517     MOV A , R0 
09DF    9561          5518     	SUBB	A, PWM_LIMIT	
09E1    4002          5519     	JC	STARTUP_PWM_SET_PWM				; If pwm below limit - branch
                      5520     
09E3    A861          5521     MOV R0 , PWM_LIMIT 
                      5522     
                      5523     STARTUP_PWM_SET_PWM: 
                      5524     	; Set pwm variables
09E5    8822          5525     MOV REQUESTED_PWM , R0 
09E7    8824          5526     MOV CURRENT_PWM , R0 
09E9    8825          5527     MOV CURRENT_PWM_LIMITED , R0 
09EB    8826          5528     MOV CURRENT_PWM_LIM_DITH , R0 
09ED    8864          5529     MOV PWM_SPOOLUP_BEG , R0 
09EF    22            5530     	RET
                      5531     
                      5532     
                      5533     ;**** **** **** **** **** **** **** **** **** **** **** **** ****
                      5534     ;
                      5535     ; Initialize timing routine
                      5536     ;
                      5537     ; No assumptions
                      5538     ;
                      5539     ; Part of initialization before motor start
                      5540     ;
                      5541     ;**** **** **** **** **** **** **** **** **** **** **** **** ****
                      5542     INITIALIZE_TIMING:  
09F0    753D00        5543     	MOV	COMM_PERIOD4X_L, #00H				; Set commutation period registers
09F3    753EF0        5544     	MOV	COMM_PERIOD4X_H, #0F0H
09F6    22            5545     	RET
                      5546     
                      5547     
                      5548     ;**** **** **** **** **** **** **** **** **** **** **** **** ****
                      5549     ;
                      5550     ; Calculate next commutation timing routine
                      5551     ;
                      5552     ; No assumptions
                      5553     ;
                      5554     ; Called immediately after each commutation
                      5555     ; Also sets up timer 3 to wait advance timing
                      5556     ; Two entry points are used
                      5557     ;
                      5558     ;**** **** **** **** **** **** **** **** **** **** **** **** ****
                      5559     CALC_NEXT_COMM_TIMING: 		; Entry point for run phase
                      5560     	; Read commutation time
09F7    75C820        5561     	MOV	TMR2CN, #20H		; Timer2 disabled
09FA    A8CC          5562     MOV R0 , TMR2L 
09FC    A9CD          5563     MOV R1 , TMR2H 
09FE    75C824        5564     	MOV	TMR2CN, #24H		; Timer2 enabled
                      5565     IF MCU_48MHZ == 1
0A01    C3            5566     	CLR	C
0A02    E9            5567     MOV A , R1 
0A03    13            5568     	RRC	A
0A04    F9            5569     MOV R1 , A 
0A05    E8            5570     MOV A , R0 
0A06    13            5571     	RRC	A
0A07    F8            5572     MOV R0 , A 
                      5573     ENDIF
                      5574     	; Calculate this commutation time
0A08    AA39          5575     MOV R2 , PREV_COMM_L 
0A0A    AB3A          5576     MOV R3 , PREV_COMM_H 
0A0C    8839          5577     MOV PREV_COMM_L , R0 
0A0E    893A          5578     MOV PREV_COMM_H , R1 
0A10    C3            5579     	CLR	C
0A11    E8            5580     MOV A , R0 
0A12    9A            5581     SUBB A , R2 
0A13    F8            5582     MOV R0 , A 
0A14    E9            5583     MOV A , R1 
0A15    9B            5584     SUBB A , R3 
                      5585     IF MCU_48MHZ == 1
0A16    547F          5586     	ANL	A, #7FH
                      5587     ENDIF
0A18    F9            5588     MOV R1 , A 
0A19    306702        5589     JNB FLAGS0 . 7 , ( $+5 ) 
0A1C    41F6          5590     	AJMP	CALC_NEXT_COMM_TIMING_FAST
                      5591     
0A1E    306933        5592     JNB FLAGS1 . 1 , CALC_NEXT_COMM_STARTUP_DONE 
                      5593     
0A21    AC3B          5594     MOV R4 , PREV_PREV_COMM_L 
0A23    AD3C          5595     MOV R5 , PREV_PREV_COMM_H 
0A25    8A3B          5596     MOV PREV_PREV_COMM_L , R2 
0A27    8B3C          5597     MOV PREV_PREV_COMM_H , R3 
0A29    C3            5598     	CLR	C
0A2A    EB            5599     MOV A , R3 
0A2B    9D            5600     SUBB A , R5 
                      5601     IF MCU_48MHZ == 1
0A2C    547F          5602     	ANL	A, #7FH
                      5603     ENDIF
0A2E    FB            5604     MOV R3 , A 
0A2F    C3            5605     	CLR	C
0A30    E9            5606     MOV A , R1 
0A31    9B            5607     SUBB A , R3 
0A32    F53F          5608     	MOV	COMM_DIFF, A
0A34    A839          5609     MOV R0 , PREV_COMM_L 
0A36    A93A          5610     MOV R1 , PREV_COMM_H 
0A38    C3            5611     	CLR	C
0A39    E8            5612     MOV A , R0 
0A3A    9C            5613     SUBB A , R4 
0A3B    F8            5614     MOV R0 , A 
0A3C    E9            5615     MOV A , R1 
0A3D    9D            5616     SUBB A , R5 
                      5617     IF MCU_48MHZ == 1
0A3E    547F          5618     	ANL	A, #7FH
                      5619     ENDIF
0A40    F9            5620     MOV R1 , A 
                      5621     
0A41    C3            5622     	CLR	C
0A42    E53E          5623     	MOV	A, COMM_PERIOD4X_H		; Average with previous and save
0A44    13            5624     	RRC	A
0A45    FB            5625     MOV R3 , A 
0A46    E53D          5626     	MOV	A, COMM_PERIOD4X_L
0A48    13            5627     	RRC	A
0A49    FA            5628     MOV R2 , A 
0A4A    E8            5629     MOV A , R0 
0A4B    2A            5630     ADD A , R2 
0A4C    F53D          5631     	MOV	COMM_PERIOD4X_L, A
0A4E    E9            5632     MOV A , R1 
0A4F    3B            5633     ADDC A , R3 
0A50    F53E          5634     	MOV	COMM_PERIOD4X_H, A
0A52    419E          5635     	AJMP	CALC_NEW_WAIT_TIMES_SETUP
                      5636     
                      5637     CALC_NEXT_COMM_STARTUP_DONE: 
                      5638     	; Calculate new commutation time 
0A54    AA3D          5639     MOV R2 , COMM_PERIOD4X_L 
0A56    AB3E          5640     MOV R3 , COMM_PERIOD4X_H 
0A58    AC3D          5641     MOV R4 , COMM_PERIOD4X_L 
0A5A    AD3E          5642     MOV R5 , COMM_PERIOD4X_H 
0A5C    7E04          5643     MOV R6 , # 4 
0A5E    7F02          5644     MOV R7 , # 2 
0A60    C3            5645     	CLR	C
0A61    EB            5646     MOV A , R3 
0A62    9404          5647     	SUBB	A, #04H
0A64    4002          5648     	JC	($+4)
                      5649     
0A66    1E            5650     DEC R6 
0A67    1F            5651     DEC R7 
                      5652     
0A68    C3            5653     	CLR	C
0A69    EB            5654     MOV A , R3 
0A6A    9408          5655     	SUBB	A, #08H
0A6C    4002          5656     	JC	($+4)
                      5657     
0A6E    1E            5658     DEC R6 
0A6F    1F            5659     DEC R7 
                      5660     
                      5661     CALC_NEXT_COMM_AVG_PERIOD_DIV: 
0A70    C3            5662     	CLR	C
0A71    ED            5663     MOV A , R5 
0A72    13            5664     	RRC	A					; Divide by 2
0A73    FD            5665     MOV R5 , A 
0A74    EC            5666     MOV A , R4 
0A75    13            5667     	RRC	A
0A76    FC            5668     MOV R4 , A 
0A77    DEF7          5669     DJNZ R6 , CALC_NEXT_COMM_AVG_PERIOD_DIV 
                      5670     
0A79    C3            5671     	CLR	C
0A7A    EA            5672     MOV A , R2 
0A7B    9C            5673     SUBB A , R4 
0A7C    FA            5674     MOV R2 , A 
0A7D    EB            5675     MOV A , R3 
0A7E    9D            5676     SUBB A , R5 
0A7F    FB            5677     MOV R3 , A 
0A80    EF            5678     MOV A , R7 
0A81    6009          5679     	JZ	CALC_NEXT_COMM_NEW_PERIOD_DIV_DONE
                      5680     
                      5681     CALC_NEXT_COMM_NEW_PERIOD_DIV: 
0A83    C3            5682     	CLR	C
0A84    E9            5683     MOV A , R1 
0A85    13            5684     	RRC	A					; Divide by 2
0A86    F9            5685     MOV R1 , A 
0A87    E8            5686     MOV A , R0 
0A88    13            5687     	RRC	A
0A89    F8            5688     MOV R0 , A 
0A8A    DFF7          5689     DJNZ R7 , CALC_NEXT_COMM_NEW_PERIOD_DIV 
                      5690     
                      5691     CALC_NEXT_COMM_NEW_PERIOD_DIV_DONE: 
0A8C    EA            5692     MOV A , R2 
0A8D    28            5693     ADD A , R0 
0A8E    FA            5694     MOV R2 , A 
0A8F    EB            5695     MOV A , R3 
0A90    39            5696     ADDC A , R1 
0A91    FB            5697     MOV R3 , A 
0A92    8A3D          5698     MOV COMM_PERIOD4X_L , R2 
0A94    8B3E          5699     MOV COMM_PERIOD4X_H , R3 
0A96    5006          5700     	JNC	CALC_NEW_WAIT_TIMES_SETUP; If period larger than 0xffff - go to slow case
                      5701     
0A98    7BFF          5702     MOV R3 , # 0FFH 
0A9A    8B3D          5703     MOV COMM_PERIOD4X_L , R3 
0A9C    8B3E          5704     MOV COMM_PERIOD4X_H , R3 
                      5705     
                      5706     CALC_NEW_WAIT_TIMES_SETUP: 	
                      5707     	; Set high rpm bit (if above 156k erpm)
0A9E    C3            5708     	CLR	C
0A9F    EB            5709     MOV A , R3 
0AA0    9402          5710     	SUBB	A, #2
0AA2    5002          5711     	JNC	($+4)
                      5712     
0AA4    D267          5713     SETB FLAGS0 . 7 
                      5714     	
                      5715     	; Load programmed commutation timing
0AA6    306904        5716     JNB FLAGS1 . 1 , CALC_NEW_WAIT_PER_STARTUP_DONE 
                      5717     
0AA9    7F03          5718     MOV R7 , # 3 
0AAB    41C9          5719     	AJMP	CALC_NEW_WAIT_PER_DEMAG_DONE
                      5720     
                      5721     CALC_NEW_WAIT_PER_STARTUP_DONE: 
0AAD    7892          5722     MOV R0 , # PGM_COMM_TIMING 
0AAF    E6            5723     MOV A , @ R0 
0AB0    FF            5724     MOV R7 , A 
0AB1    C3            5725     	CLR	C
0AB2    E536          5726     	MOV	A, DEMAG_DETECTED_METRIC	; Check demag metric
0AB4    9482          5727     	SUBB	A, #130
0AB6    4011          5728     	JC	CALC_NEW_WAIT_PER_DEMAG_DONE
                      5729     
0AB8    0F            5730     INC R7 
                      5731     
0AB9    C3            5732     	CLR	C
0ABA    E536          5733     	MOV	A, DEMAG_DETECTED_METRIC
0ABC    94A0          5734     	SUBB	A, #160
0ABE    4001          5735     	JC	($+3)
                      5736     
0AC0    0F            5737     INC R7 
                      5738     
0AC1    C3            5739     	CLR	C
0AC2    EF            5740     MOV A , R7 
0AC3    9406          5741     	SUBB	A, #6
0AC5    4002          5742     	JC	($+4)
                      5743     
0AC7    7F05          5744     MOV R7 , # 5 
                      5745     
                      5746     CALC_NEW_WAIT_PER_DEMAG_DONE: 
                      5747     	; Set timing reduction
                      5748     IF MCU_48MHZ == 0
                               	MOV	TEMP7, #4
                               ELSE
0AC9    7E01          5751     MOV R6 , # 1 
                      5752     ENDIF
                      5753     	; Load current commutation timing
0ACB    E53E          5754     	MOV	A, COMM_PERIOD4X_H		; Divide 4 times
0ACD    C4            5755     	SWAP	A
0ACE    540F          5756     	ANL	A, #00FH
0AD0    F9            5757     MOV R1 , A 
0AD1    E53E          5758     	MOV	A, COMM_PERIOD4X_H
0AD3    C4            5759     	SWAP	A
0AD4    54F0          5760     	ANL	A, #0F0H
0AD6    F8            5761     MOV R0 , A 
0AD7    E53D          5762     	MOV	A, COMM_PERIOD4X_L
0AD9    C4            5763     	SWAP	A
0ADA    540F          5764     	ANL	A, #00FH
0ADC    28            5765     ADD A , R0 
0ADD    F8            5766     MOV R0 , A 
                      5767     
0ADE    C3            5768     	CLR	C
0ADF    E8            5769     MOV A , R0 
0AE0    9E            5770     SUBB A , R6 
0AE1    FA            5771     MOV R2 , A 
0AE2    E9            5772     MOV A , R1 
0AE3    9400          5773     	SUBB	A, #0
0AE5    FB            5774     MOV R3 , A 
0AE6    4009          5775     	JC	LOAD_MIN_TIME			; Check that result is still positive
                      5776     
0AE8    C3            5777     	CLR	C
0AE9    EA            5778     MOV A , R2 
0AEA    9402          5779     	SUBB	A, #(COMM_TIME_MIN SHL 1)
0AEC    EB            5780     MOV A , R3 
0AED    9400          5781     	SUBB	A, #0
0AEF    5004          5782     	JNC	CALC_NEW_WAIT_TIMES_EXIT	; Check that result is still above minumum
                      5783     
                      5784     LOAD_MIN_TIME: 
0AF1    7A02          5785     MOV R2 , # ( COMM_TIME_MIN SHL 1 ) 
0AF3    E4            5786     	CLR	A
0AF4    FB            5787     MOV R3 , A 
                      5788     
                      5789     CALC_NEW_WAIT_TIMES_EXIT: 	
0AF5    22            5790     	RET
                      5791     
                      5792     
                      5793     ; Fast calculation (Comm_Period4x_H less than 2)
                      5794     CALC_NEXT_COMM_TIMING_FAST: 			
                      5795     	; Calculate new commutation time
0AF6    AA3D          5796     MOV R2 , COMM_PERIOD4X_L 
0AF8    AB3E          5797     MOV R3 , COMM_PERIOD4X_H 
0AFA    EB            5798     MOV A , R3 
0AFB    C4            5799     	SWAP	A
0AFC    FE            5800     MOV R6 , A 
0AFD    EA            5801     MOV A , R2 
0AFE    C4            5802     	SWAP A
0AFF    540F          5803     	ANL	A, #0FH
0B01    4E            5804     ORL A , R6 
0B02    FC            5805     MOV R4 , A 
0B03    C3            5806     	CLR	C
0B04    EA            5807     MOV A , R2 
0B05    9C            5808     SUBB A , R4 
0B06    FA            5809     MOV R2 , A 
0B07    EB            5810     MOV A , R3 
0B08    9400          5811     	SUBB	A, #0
0B0A    FB            5812     MOV R3 , A 
0B0B    C3            5813     	CLR	C
0B0C    E8            5814     MOV A , R0 
0B0D    13            5815     	RRC	A					; Divide by 2 2 times
0B0E    C3            5816     	CLR	C
0B0F    13            5817     	RRC	A
0B10    F8            5818     MOV R0 , A 
0B11    EA            5819     MOV A , R2 
0B12    28            5820     ADD A , R0 
0B13    FA            5821     MOV R2 , A 
0B14    EB            5822     MOV A , R3 
0B15    3400          5823     	ADDC	A, #0
0B17    FB            5824     MOV R3 , A 
0B18    8A3D          5825     MOV COMM_PERIOD4X_L , R2 
0B1A    8B3E          5826     MOV COMM_PERIOD4X_H , R3 
0B1C    C3            5827     	CLR	C
0B1D    EB            5828     MOV A , R3 
0B1E    9402          5829     	SUBB	A, #2
0B20    4002          5830     	JC	($+4)
                      5831     
0B22    C267          5832     CLR FLAGS0 . 7 
                      5833     	
                      5834     IF MCU_48MHZ == 0
                               	MOV	TEMP1, #4				; Set timing reduction
                               ELSE
0B24    7801          5837     MOV R0 , # 1 
                      5838     ENDIF
0B26    EB            5839     MOV A , R3 
0B27    C4            5840     	SWAP	A
0B28    FE            5841     MOV R6 , A 
0B29    7B00          5842     MOV R3 , # 0 
0B2B    EA            5843     MOV A , R2 
0B2C    C4            5844     	SWAP A
0B2D    540F          5845     	ANL	A, #0FH
0B2F    4E            5846     ORL A , R6 
0B30    FA            5847     MOV R2 , A 
0B31    C3            5848     	CLR	C
0B32    EA            5849     MOV A , R2 
0B33    98            5850     SUBB A , R0 
0B34    FA            5851     MOV R2 , A 
0B35    4005          5852     	JC	LOAD_MIN_TIME_FAST		; Check that result is still positive
                      5853     
0B37    C3            5854     	CLR	C
0B38    9402          5855     	SUBB	A, #(COMM_TIME_MIN SHL 1)
0B3A    5002          5856     	JNC	CALC_NEW_WAIT_TIMES_FAST_DONE	; Check that result is still above minumum
                      5857     
                      5858     LOAD_MIN_TIME_FAST: 
0B3C    7A02          5859     MOV R2 , # ( COMM_TIME_MIN SHL 1 ) 
                      5860     
                      5861     CALC_NEW_WAIT_TIMES_FAST_DONE: 	
0B3E    7892          5862     MOV R0 , # PGM_COMM_TIMING 
0B40    E6            5863     MOV A , @ R0 
0B41    FF            5864     MOV R7 , A 
0B42    22            5865     	RET
                      5866     
                      5867     
                      5868     ;**** **** **** **** **** **** **** **** **** **** **** **** ****
                      5869     ;
                      5870     ; Wait advance timing routine
                      5871     ;
                      5872     ; No assumptions
                      5873     ; NOTE: Be VERY careful if using temp registers. They are passed over this routine
                      5874     ;
                      5875     ; Waits for the advance timing to elapse and sets up the next zero cross wait
                      5876     ;
                      5877     ;**** **** **** **** **** **** **** **** **** **** **** **** ****
                      5878     WAIT_ADVANCE_TIMING: 	
0B43    306002        5879     JNB FLAGS0 . 0 , ( $+5 ) 
0B46    6143          5880     	AJMP	WAIT_ADVANCE_TIMING
                      5881     
                      5882     	; Setup next wait time
0B48    854F53        5883     	MOV	NEXT_WT_START_L, WT_ZC_TOUT_START_L
0B4B    855054        5884     	MOV	NEXT_WT_START_H, WT_ZC_TOUT_START_H
0B4E    D260          5885     SETB FLAGS0 . 0 
0B50    43E680        5886     	ORL	EIE1, #80H	; Enable timer3 interrupts
0B53    22            5887     	RET
                      5888     
                      5889     
                      5890     ;**** **** **** **** **** **** **** **** **** **** **** **** ****
                      5891     ;
                      5892     ; Calculate new wait times routine
                      5893     ;
                      5894     ; No assumptions
                      5895     ;
                      5896     ; Calculates new wait times
                      5897     ;
                      5898     ;**** **** **** **** **** **** **** **** **** **** **** **** ****
                      5899     CALC_NEW_WAIT_TIMES: 	
0B54    C3            5900     	CLR	C
0B55    E4            5901     	CLR	A
0B56    9A            5902     SUBB A , R2 
0B57    F8            5903     MOV R0 , A 
0B58    E4            5904     	CLR	A
0B59    9B            5905     SUBB A , R3 
0B5A    F9            5906     MOV R1 , A 
                      5907     IF MCU_48MHZ == 1
0B5B    C3            5908     	CLR	C
0B5C    E8            5909     MOV A , R0 
0B5D    33            5910     	RLC	A
0B5E    F8            5911     MOV R0 , A 
0B5F    E9            5912     MOV A , R1 
0B60    33            5913     	RLC	A
0B61    F9            5914     MOV R1 , A 
                      5915     ENDIF
0B62    306702        5916     JNB FLAGS0 . 7 , ( $+5 ) 
0B65    61E3          5917     	AJMP	CALC_NEW_WAIT_TIMES_FAST
                      5918     
0B67    E8            5919     MOV A , R0 
0B68    FA            5920     MOV R2 , A 
0B69    E9            5921     MOV A , R1 
0B6A    FB            5922     MOV R3 , A 
0B6B    D3            5923     	SETB	C					; Negative numbers - set carry
0B6C    E9            5924     MOV A , R1 
0B6D    13            5925     	RRC	A					; Divide by 2
0B6E    FD            5926     MOV R5 , A 
0B6F    E8            5927     MOV A , R0 
0B70    13            5928     	RRC	A
0B71    FC            5929     MOV R4 , A 
0B72    884F          5930     MOV WT_ZC_TOUT_START_L , R0 
0B74    8950          5931     MOV WT_ZC_TOUT_START_H , R1 
0B76    C3            5932     	CLR	C
0B77    EF            5933     MOV A , R7 
0B78    9403          5934     	SUBB	A, #3				; Is timing normal?
0B7A    6037          5935     	JZ	STORE_TIMES_DECREASE	; Yes - branch
                      5936     
0B7C    EF            5937     MOV A , R7 
0B7D    20E00D        5938     	JB	ACC.0, ADJUST_TIMING_TWO_STEPS	; If an odd number - branch
                      5939     
0B80    E8            5940     MOV A , R0 
0B81    2C            5941     ADD A , R4 
0B82    F8            5942     MOV R0 , A 
0B83    E9            5943     MOV A , R1 
0B84    3D            5944     ADDC A , R5 
0B85    F9            5945     MOV R1 , A 
0B86    EC            5946     MOV A , R4 
0B87    FA            5947     MOV R2 , A 
0B88    ED            5948     MOV A , R5 
0B89    FB            5949     MOV R3 , A 
0B8A    020BA0        5950     	JMP	STORE_TIMES_UP_OR_DOWN
                      5951     
                      5952     ADJUST_TIMING_TWO_STEPS: 
0B8D    E8            5953     MOV A , R0 
0B8E    28            5954     ADD A , R0 
0B8F    F8            5955     MOV R0 , A 
0B90    E9            5956     MOV A , R1 
0B91    39            5957     ADDC A , R1 
0B92    F9            5958     MOV R1 , A 
0B93    C3            5959     	CLR	C
0B94    E8            5960     MOV A , R0 
0B95    2402          5961     	ADD	A, #(COMM_TIME_MIN SHL 1)
0B97    F8            5962     MOV R0 , A 
0B98    E9            5963     MOV A , R1 
0B99    3400          5964     	ADDC	A, #0
0B9B    F9            5965     MOV R1 , A 
0B9C    7AFE          5966     MOV R2 , # - ( COMM_TIME_MIN SHL 1 ) 
0B9E    7BFF          5967     MOV R3 , # 0FFH 
                      5968     
                      5969     STORE_TIMES_UP_OR_DOWN: 
0BA0    C3            5970     	CLR	C
0BA1    EF            5971     MOV A , R7 
0BA2    9403          5972     	SUBB	A, #3					; Is timing higher than normal?
0BA4    400D          5973     	JC	STORE_TIMES_DECREASE		; No - branch
                      5974     
                      5975     STORE_TIMES_INCREASE: 
0BA6    8A51          5976     MOV WT_COMM_START_L , R2 
0BA8    8B52          5977     MOV WT_COMM_START_H , R3 
0BAA    884B          5978     MOV WT_ADV_START_L , R0 
0BAC    894C          5979     MOV WT_ADV_START_H , R1 
0BAE    8C4D          5980     MOV WT_ZC_SCAN_START_L , R4 
0BB0    8D4E          5981     MOV WT_ZC_SCAN_START_H , R5 
0BB2    22            5982     	RET
                      5983     
                      5984     STORE_TIMES_DECREASE: 
0BB3    8851          5985     MOV WT_COMM_START_L , R0 
0BB5    8952          5986     MOV WT_COMM_START_H , R1 
0BB7    8A4B          5987     MOV WT_ADV_START_L , R2 
0BB9    8B4C          5988     MOV WT_ADV_START_H , R3 
0BBB    8C4D          5989     MOV WT_ZC_SCAN_START_L , R4 
0BBD    8D4E          5990     MOV WT_ZC_SCAN_START_H , R5 
0BBF    306920        5991     JNB FLAGS1 . 1 , STORE_TIMES_EXIT 
                      5992     
0BC2    C3            5993     	CLR	C
0BC3    E533          5994     	MOV	A, STARTUP_CNT			
0BC5    9403          5995     	SUBB	A, #3
0BC7    4019          5996     	JC	STORE_TIMES_EXIT
                      5997     
0BC9    E53F          5998     	MOV	A, COMM_DIFF			; Compensate commutation wait for comparator offset
0BCB    A2E7          5999     	MOV	C, ACC.7
0BCD    13            6000     	RRC	A
0BCE    F8            6001     MOV R0 , A 
0BCF    E552          6002     	MOV	A, WT_COMM_START_H
0BD1    F4            6003     	CPL	A
0BD2    2401          6004     	ADD	A, #1
0BD4    38            6005     ADDC A , R0 
0BD5    400B          6006     	JC	STORE_TIMES_EXIT
0BD7    20E708        6007     	JB	ACC.7, STORE_TIMES_EXIT
                      6008     
0BDA    7551FF        6009     	MOV	WT_COMM_START_L, #0FFH
0BDD    F4            6010     	CPL	A
0BDE    2401          6011     	ADD	A, #1
0BE0    F552          6012     	MOV	WT_COMM_START_H, A 
                      6013     
                      6014     STORE_TIMES_EXIT: 
0BE2    22            6015     	RET
                      6016     
                      6017     
                      6018     CALC_NEW_WAIT_TIMES_FAST: 	
0BE3    E8            6019     MOV A , R0 
0BE4    FA            6020     MOV R2 , A 
0BE5    D3            6021     	SETB	C					; Negative numbers - set carry
0BE6    E8            6022     MOV A , R0 
0BE7    13            6023     	RRC	A
0BE8    FC            6024     MOV R4 , A 
0BE9    884F          6025     MOV WT_ZC_TOUT_START_L , R0 
0BEB    C3            6026     	CLR	C
0BEC    EF            6027     MOV A , R7 
0BED    9403          6028     	SUBB	A, #3				; Is timing normal?
0BEF    601F          6029     	JZ	STORE_TIMES_DECREASE_FAST; Yes - branch
                      6030     
0BF1    EF            6031     MOV A , R7 
0BF2    20E007        6032     	JB	ACC.0, ADJUST_TIMING_TWO_STEPS_FAST	; If an odd number - branch
                      6033     
0BF5    E8            6034     MOV A , R0 
0BF6    2C            6035     ADD A , R4 
0BF7    F8            6036     MOV R0 , A 
0BF8    EC            6037     MOV A , R4 
0BF9    FA            6038     MOV R2 , A 
0BFA    8103          6039     	AJMP	STORE_TIMES_UP_OR_DOWN_FAST
                      6040     
                      6041     ADJUST_TIMING_TWO_STEPS_FAST: 
0BFC    E8            6042     MOV A , R0 
0BFD    28            6043     ADD A , R0 
0BFE    2402          6044     	ADD	A, #(COMM_TIME_MIN SHL 1)
0C00    F8            6045     MOV R0 , A 
0C01    7AFE          6046     MOV R2 , # - ( COMM_TIME_MIN SHL 1 ) 
                      6047     
                      6048     STORE_TIMES_UP_OR_DOWN_FAST: 
0C03    C3            6049     	CLR	C
0C04    EF            6050     MOV A , R7 
0C05    9403          6051     	SUBB	A, #3				; Is timing higher than normal?
0C07    4007          6052     	JC	STORE_TIMES_DECREASE_FAST; No - branch
                      6053     
                      6054     STORE_TIMES_INCREASE_FAST: 
0C09    8A51          6055     MOV WT_COMM_START_L , R2 
0C0B    884B          6056     MOV WT_ADV_START_L , R0 
0C0D    8C4D          6057     MOV WT_ZC_SCAN_START_L , R4 
0C0F    22            6058     	RET
                      6059     
                      6060     STORE_TIMES_DECREASE_FAST: 
0C10    8851          6061     MOV WT_COMM_START_L , R0 
0C12    8A4B          6062     MOV WT_ADV_START_L , R2 
0C14    8C4D          6063     MOV WT_ZC_SCAN_START_L , R4 
0C16    22            6064     	RET
                      6065     
                      6066     
                      6067     ;**** **** **** **** **** **** **** **** **** **** **** **** ****
                      6068     ;
                      6069     ; Wait before zero cross scan routine
                      6070     ;
                      6071     ; No assumptions
                      6072     ;
                      6073     ; Waits for the zero cross scan wait time to elapse
                      6074     ; Also sets up timer 3 for the zero cross scan timeout time
                      6075     ;
                      6076     ;**** **** **** **** **** **** **** **** **** **** **** **** ****
                      6077     WAIT_BEFORE_ZC_SCAN: 	
                      6078     	; Calculate random number
0C17    E568          6079     	MOV	A, RANDOM
0C19    C3            6080     	CLR	C
0C1A    33            6081     	RLC	A
0C1B    5002          6082     	JNC	WAIT_BEFORE_ZC_SCAN_RAND
                      6083     
0C1D    646B          6084     	XRL	A, #06BH		; Sequence length of 35, when initialized to 1
                      6085     
                      6086     WAIT_BEFORE_ZC_SCAN_RAND:           
0C1F    F568          6087     	MOV	RANDOM, A
                      6088     
                      6089     WAIT_BEFORE_ZC_SCAN_WAIT:           
0C21    306002        6090     JNB FLAGS0 . 0 , ( $+5 ) 
0C24    8121          6091     	AJMP	WAIT_BEFORE_ZC_SCAN_WAIT
                      6092     
0C26    D260          6093     SETB FLAGS0 . 0 
0C28    43E680        6094     	ORL	EIE1, #80H			; Enable timer3 interrupts
0C2B    E52D          6095     	MOV	A, FLAGS1
0C2D    5406          6096     	ANL	A, #((1 SHL STARTUP_PHASE)+(1 SHL INITIAL_RUN_PHASE))
0C2F    6029          6097     	JZ	WAIT_BEFORE_ZC_SCAN_EXIT		
                      6098     
0C31    A83D          6099     MOV R0 , COMM_PERIOD4X_L 
0C33    A93E          6100     MOV R1 , COMM_PERIOD4X_H 
0C35    C3            6101     	CLR	C
0C36    E9            6102     MOV A , R1 
0C37    13            6103     	RRC	A
0C38    F9            6104     MOV R1 , A 
0C39    E8            6105     MOV A , R0 
0C3A    13            6106     	RRC	A
0C3B    F8            6107     MOV R0 , A 
                      6108     IF MCU_48MHZ == 1
0C3C    C3            6109     	CLR	C
0C3D    E8            6110     MOV A , R0 
0C3E    33            6111     	RLC	A
0C3F    F8            6112     MOV R0 , A 
0C40    E9            6113     MOV A , R1 
0C41    33            6114     	RLC	A
0C42    F9            6115     MOV R1 , A 
                      6116     ENDIF
0C43    53E67F        6117     	ANL	EIE1, #7FH			; Disable timer3 interrupts
0C46    759100        6118     	MOV	TMR3CN, #00H			; Timer3 disabled and interrupt flag cleared
0C49    C3            6119     	CLR	C
0C4A    E4            6120     	CLR	A
0C4B    98            6121     SUBB A , R0 
0C4C    F594          6122     	MOV	TMR3L, A
0C4E    E4            6123     	CLR	A
0C4F    99            6124     SUBB A , R1 
0C50    F595          6125     	MOV	TMR3H, A
0C52    759104        6126     	MOV	TMR3CN, #04H			; Timer3 enabled and interrupt flag cleared
                      6127     
0C55    D260          6128     SETB FLAGS0 . 0 
0C57    43E680        6129     	ORL	EIE1, #80H			; Enable timer3 interrupts
                      6130     
                      6131     WAIT_BEFORE_ZC_SCAN_EXIT:           
0C5A    22            6132     	RET
                      6133     
                      6134     
                      6135     ;**** **** **** **** **** **** **** **** **** **** **** **** ****
                      6136     ;
                      6137     ; Wait for comparator to go low/high routines
                      6138     ;
                      6139     ; No assumptions
                      6140     ;
                      6141     ; Waits for the zero cross scan wait time to elapse
                      6142     ; Then scans for comparator going low/high
                      6143     ;
                      6144     ;**** **** **** **** **** **** **** **** **** **** **** **** ****
                      6145     WAIT_FOR_COMP_OUT_LOW: 
0C5B    D265          6146     SETB FLAGS0 . 5 
0C5D    754100        6147     	MOV	COMPARATOR_READ_CNT, #0		; Reset number of comparator reads
0C60    752000        6148     	MOV	BIT_ACCESS, #00H			; Desired comparator output
0C63    306B03        6149     JNB FLAGS1 . 3 , ( $+6 ) 
0C66    752040        6150     	MOV	BIT_ACCESS, #40H		
0C69    020C7A        6151     	JMP	WAIT_FOR_COMP_OUT_START
                      6152     
                      6153     WAIT_FOR_COMP_OUT_HIGH: 
0C6C    D265          6154     SETB FLAGS0 . 5 
0C6E    754100        6155     	MOV	COMPARATOR_READ_CNT, #0		; Reset number of comparator reads
0C71    752040        6156     	MOV	BIT_ACCESS, #40H			; Desired comparator output
0C74    306B03        6157     JNB FLAGS1 . 3 , ( $+6 ) 
0C77    752000        6158     	MOV	BIT_ACCESS, #00H		
                      6159     
                      6160     WAIT_FOR_COMP_OUT_START: 
0C7A    D2AF          6161     	SETB	EA						; Enable interrupts
                      6162     	; Set number of comparator readings
0C7C    7801          6163     MOV R0 , # 1 
0C7E    206722        6164     JB FLAGS0 . 7 , COMP_WAIT_ON_COMP_ABLE 
                      6165     
0C81    E52D          6166     	MOV	A, FLAGS1					; Clear demag detected flag if start phases
0C83    5406          6167     	ANL	A, #((1 SHL STARTUP_PHASE)+(1 SHL INITIAL_RUN_PHASE))
0C85    6002          6168     	JZ	($+4)
                      6169     		
0C87    C265          6170     CLR FLAGS0 . 5 
                      6171     
0C89    C3            6172     	CLR	C						; Set number of readings higher for lower speeds
0C8A    E53E          6173     	MOV 	A, COMM_PERIOD4X_H			
0C8C    9405          6174     	SUBB	A, #05H
0C8E    4013          6175     	JC	COMP_WAIT_ON_COMP_ABLE
                      6176     
0C90    7802          6177     MOV R0 , # 2 
                      6178     
0C92    9405          6179     	SUBB	A, #05H
0C94    4008          6180     	JC	COMP_WAIT_NO_OF_READINGS
                      6181     
0C96    7803          6182     MOV R0 , # 3 
                      6183     
0C98    9405          6184     	SUBB	A, #05H					; Set number of consecutive readings higher for lower speeds
0C9A    4002          6185     	JC	COMP_WAIT_NO_OF_READINGS
                      6186     
0C9C    7806          6187     MOV R0 , # 6 
                      6188     
                      6189     COMP_WAIT_NO_OF_READINGS: 
0C9E    306902        6190     JNB FLAGS1 . 1 , ( $+5 ) 
0CA1    780A          6191     MOV R0 , # 10 
                      6192     
                      6193     COMP_WAIT_ON_COMP_ABLE: 
0CA3    206009        6194     JB FLAGS0 . 0 , COMP_WAIT_ON_COMP_ABLE_NOT_TIMED_OUT 
                      6195     
0CA6    E541          6196     	MOV	A, COMPARATOR_READ_CNT			; Check that comparator has been read
0CA8    6005          6197     	JZ	COMP_WAIT_ON_COMP_ABLE_NOT_TIMED_OUT	; If not read - branch
                      6198     
0CAA    D2AF          6199     	SETB	EA							; Enable interrupts
0CAC    D26C          6200     SETB FLAGS1 . 4 
0CAE    22            6201     	RET								; Yes - return
                      6202     
                      6203     
                      6204     COMP_WAIT_ON_COMP_ABLE_NOT_TIMED_OUT: 
0CAF    D2AF          6205     	SETB	EA							; Enable interrupts
0CB1    00            6206     	NOP								; Allocate only just enough time to capture interrupt
0CB2    00            6207     	NOP
0CB3    C2AF          6208     	CLR	EA							; Disable interrupts
0CB5    20672A        6209     JB FLAGS0 . 7 , COMP_WAIT_READ_COMP 
                      6210     
0CB8    E53E          6211     	MOV	A, COMM_PERIOD4X_H				; Reduce required distance to pwm transition for higher speeds
0CBA    C3            6212     	CLR	C
0CBB    FB            6213     MOV R3 , A 
0CBC    940F          6214     	SUBB	A, #0FH
0CBE    4002          6215     	JC	($+4)
                      6216     
0CC0    7B0F          6217     MOV R3 , # 0FH 
                      6218     
0CC2    EB            6219     MOV A , R3 
0CC3    2405          6220     	ADD	A, #5
0CC5    307301        6221     JNB FLAGS2 . 3 , ( $+4 ) 
                      6222     
0CC8    23            6223     	RL	A
                      6224     
0CC9    306A02        6225     JNB FLAGS1 . 2 , ( $+5 ) 
0CCC    7428          6226     	MOV	A, #40
                      6227     
0CCE    206201        6228     JB FLAGS0 . 2 , ( $+4 ) 
                      6229     
0CD1    23            6230     	RL	A
                      6231     
0CD2    F9            6232     MOV R1 , A 
0CD3    306902        6233     JNB FLAGS1 . 1 , ( $+5 ) 
0CD6    7982          6234     MOV R1 , # 130 
                      6235     
                      6236     IF MCU_48MHZ == 0
                               	MOV	A, TL1
                               ELSE
0CD8    E58D          6239     	MOV	A, TH1
0CDA    13            6240     	RRC	A
0CDB    E58B          6241     	MOV	A, TL1
0CDD    13            6242     	RRC	A
                      6243     ENDIF
0CDE    C3            6244     	CLR	C
0CDF    99            6245     SUBB A , R1 
0CE0    40C1          6246     	JC	COMP_WAIT_ON_COMP_ABLE		; Re-evaluate pwm cycle
                      6247     
                      6248     COMP_WAIT_READ_COMP: 
0CE2    0541          6249     	INC	COMPARATOR_READ_CNT			; Increment comparator read count
                      6250     	READ_COMP_OUT					; Read comparator output
0CE4    E59B          6250+1   MOV A , CPT0CN  ; READ COMPARATOR OUTPUT
0CE6    F4            6250+1   CPL A 
0CE7    5440          6251     	ANL	A, #40H
0CE9    B52002        6252     	CJNE	A, BIT_ACCESS, COMP_READ_WRONG
0CEC    A13B          6253     	AJMP	COMP_READ_OK
                      6254     	
                      6255     COMP_READ_WRONG: 
0CEE    306914        6256     JNB FLAGS1 . 1 , COMP_READ_WRONG_NOT_STARTUP 
                      6257     
0CF1    08            6258     INC R0 
0CF2    C3            6259     	CLR	C
0CF3    E8            6260     MOV A , R0 
0CF4    940A          6261     	SUBB	A, #10					; If above initial requirement - go back and restart
0CF6    4002          6262     	JC	($+4)
0CF8    817A          6263     	AJMP	WAIT_FOR_COMP_OUT_START
                      6264     
0CFA    C3            6265     	CLR	C
0CFB    E533          6266     	MOV	A, STARTUP_CNT				; For the first commutations - go back and restart
0CFD    9406          6267     	SUBB	A, #6
0CFF    5002          6268     	JNC	($+4)
0D01    817A          6269     	AJMP	WAIT_FOR_COMP_OUT_START
                      6270     
0D03    81A3          6271     	AJMP	COMP_WAIT_ON_COMP_ABLE		; If below initial requirement - continue to look for good ones
                      6272     
                      6273     COMP_READ_WRONG_NOT_STARTUP: 
0D05    206502        6274     JB FLAGS0 . 5 , ( $+5 ) 
0D08    817A          6275     	AJMP	WAIT_FOR_COMP_OUT_START		; If comparator output is not correct, and timeout already extended - go back and restart
                      6276     
0D0A    C265          6277     CLR FLAGS0 . 5 
0D0C    53E67F        6278     	ANL	EIE1, #7FH				; Disable timer3 interrupts
0D0F    759100        6279     	MOV	TMR3CN, #00H				; Timer3 disabled and interrupt flag cleared
0D12    306710        6280     JNB FLAGS0 . 7 , COMP_READ_WRONG_LOW_RPM 
                      6281     
0D15    759400        6282     	MOV	TMR3L, #00H				; Set timeout to 256us
                      6283     IF MCU_48MHZ == 1
0D18    7595FC        6284     	MOV	TMR3H, #0FCH
                      6285     ELSE
                               	MOV	TMR3H, #0FEH
                               ENDIF
                      6288     COMP_READ_WRONG_TIMEOUT_SET: 
0D1B    759104        6289     	MOV	TMR3CN, #04H				; Timer3 enabled and interrupt flag cleared
0D1E    D260          6290     SETB FLAGS0 . 0 
0D20    43E680        6291     	ORL	EIE1, #80H				; Enable timer3 interrupts
0D23    817A          6292     	AJMP	WAIT_FOR_COMP_OUT_START		; If comparator output is not correct - go back and restart
                      6293     
                      6294     COMP_READ_WRONG_LOW_RPM: 
0D25    AE3D          6295     MOV R6 , COMM_PERIOD4X_L 
0D27    AF3E          6296     MOV R7 , COMM_PERIOD4X_H 
                      6297     IF MCU_48MHZ == 1
0D29    C3            6298     	CLR	C
0D2A    EE            6299     MOV A , R6 
0D2B    33            6300     	RLC	A
0D2C    FE            6301     MOV R6 , A 
0D2D    EF            6302     MOV A , R7 
0D2E    33            6303     	RLC	A
0D2F    FF            6304     MOV R7 , A 
                      6305     ENDIF
0D30    C3            6306     	CLR	C
0D31    E4            6307     	CLR	A
0D32    9E            6308     SUBB A , R6 
0D33    F594          6309     	MOV	TMR3L, A
0D35    E4            6310     	CLR	A
0D36    9F            6311     SUBB A , R7 
0D37    F595          6312     	MOV	TMR3H, A
0D39    A11B          6313     	AJMP	COMP_READ_WRONG_TIMEOUT_SET
                      6314     
                      6315     COMP_READ_OK: 
0D3B    C3            6316     	CLR	C
0D3C    E533          6317     	MOV	A, STARTUP_CNT				; Force a timeout for the first commutations			
0D3E    9402          6318     	SUBB	A, #2
0D40    5002          6319     	JNC	($+4)
0D42    817A          6320     	AJMP	WAIT_FOR_COMP_OUT_START
                      6321     
0D44    306502        6322     JNB FLAGS0 . 5 , ( $+5 ) 
0D47    817A          6323     	AJMP	WAIT_FOR_COMP_OUT_START
                      6324     
0D49    D802          6325     DJNZ R0 , COMP_READ_OK_JMP 
0D4B    A14F          6326     	AJMP	($+4)
                      6327     
                      6328     COMP_READ_OK_JMP: 
0D4D    81A3          6329     	AJMP	COMP_WAIT_ON_COMP_ABLE	
                      6330     
0D4F    C26C          6331     CLR FLAGS1 . 4 
0D51    22            6332     	RET							
                      6333     
                      6334     
                      6335     ;**** **** **** **** **** **** **** **** **** **** **** **** ****
                      6336     ;
                      6337     ; Evaluate comparator integrity
                      6338     ;
                      6339     ; No assumptions
                      6340     ;
                      6341     ; Checks comparator signal behaviour versus expected behaviour
                      6342     ;
                      6343     ;**** **** **** **** **** **** **** **** **** **** **** **** ****
                      6344     EVALUATE_COMPARATOR_INTEGRITY: 
0D52    E52D          6345     	MOV	A, FLAGS1
0D54    5406          6346     	ANL	A, #((1 SHL STARTUP_PHASE)+(1 SHL INITIAL_RUN_PHASE))
0D56    6008          6347     	JZ	EVAL_COMP_CHECK_TIMEOUT
                      6348     
0D58    206A02        6349     JB FLAGS1 . 2 , ( $+5 ) 
0D5B    0533          6350     	INC	STARTUP_CNT					; Increment counter
0D5D    020D70        6351     	JMP	EVAL_COMP_EXIT
                      6352     
                      6353     EVAL_COMP_CHECK_TIMEOUT: 
0D60    306C0D        6354     JNB FLAGS1 . 4 , EVAL_COMP_EXIT 
0D63    206B0A        6355     JB FLAGS1 . 3 , EVAL_COMP_EXIT 
0D66    206507        6356     JB FLAGS0 . 5 , EVAL_COMP_EXIT 
0D69    1581          6357     	DEC	SP								; Routine exit without "ret" command
0D6B    1581          6358     	DEC	SP
0D6D    021667        6359     	LJMP	RUN_TO_WAIT_FOR_POWER_ON_FAIL			; Yes - exit run mode
                      6360     
                      6361     EVAL_COMP_EXIT: 
0D70    22            6362     	RET
                      6363     
                      6364     
                      6365     ;**** **** **** **** **** **** **** **** **** **** **** **** ****
                      6366     ;
                      6367     ; Setup commutation timing routine
                      6368     ;
                      6369     ; No assumptions
                      6370     ;
                      6371     ; Sets up and starts wait from commutation to zero cross
                      6372     ;
                      6373     ;**** **** **** **** **** **** **** **** **** **** **** **** ****
                      6374     SETUP_COMM_WAIT:  
0D71    53E67F        6375     	ANL	EIE1, #7FH		; Disable timer3 interrupts
0D74    759100        6376     	MOV	TMR3CN, #00H		; Timer3 disabled and interrupt flag cleared
0D77    855194        6377     	MOV	TMR3L, WT_COMM_START_L
0D7A    855295        6378     	MOV	TMR3H, WT_COMM_START_H
0D7D    759104        6379     	MOV	TMR3CN, #04H		; Timer3 enabled and interrupt flag cleared
                      6380     	; Setup next wait time
0D80    854B53        6381     	MOV	NEXT_WT_START_L, WT_ADV_START_L
0D83    854C54        6382     	MOV	NEXT_WT_START_H, WT_ADV_START_H
0D86    D260          6383     SETB FLAGS0 . 0 
0D88    43E680        6384     	ORL	EIE1, #80H		; Enable timer3 interrupts
0D8B    D2AF          6385     	SETB	EA				; Enable interrupts again
0D8D    22            6386     	RET
                      6387     
                      6388     
                      6389     ;**** **** **** **** **** **** **** **** **** **** **** **** ****
                      6390     ;
                      6391     ; Wait for commutation routine
                      6392     ;
                      6393     ; No assumptions
                      6394     ;
                      6395     ; Waits from zero cross to commutation 
                      6396     ;
                      6397     ;**** **** **** **** **** **** **** **** **** **** **** **** ****
                      6398     WAIT_FOR_COMM:  
                      6399     	; Update demag metric
0D8E    7800          6400     MOV R0 , # 0 
0D90    306405        6401     JNB FLAGS0 . 4 , ( $+8 ) 
0D93    306502        6402     JNB FLAGS0 . 5 , ( $+5 ) 
                      6403     
0D96    7801          6404     MOV R0 , # 1 
                      6405     
0D98    E536          6406     	MOV	A, DEMAG_DETECTED_METRIC	; Sliding average of 8, 256 when demag and 0 when not. Limited to minimum 120
0D9A    75F007        6407     	MOV	B, #7
0D9D    A4            6408     	MUL	AB					; Multiply by 7
0D9E    F9            6409     MOV R1 , A 
0D9F    E5F0          6410     	MOV	A, B					; Add new value for current demag status
0DA1    28            6411     ADD A , R0 
0DA2    F5F0          6412     	MOV	B, A
0DA4    E9            6413     MOV A , R1 
0DA5    A2F0          6414     	MOV	C, B.0				; Divide by 8
0DA7    13            6415     	RRC	A					
0DA8    A2F1          6416     	MOV	C, B.1
0DAA    13            6417     	RRC	A
0DAB    A2F2          6418     	MOV	C, B.2
0DAD    13            6419     	RRC	A
0DAE    F536          6420     	MOV	DEMAG_DETECTED_METRIC, A
0DB0    C3            6421     	CLR	C
0DB1    9478          6422     	SUBB	A, #120				; Limit to minimum 120
0DB3    5003          6423     	JNC	($+5)
                      6424     
0DB5    753678        6425     	MOV	DEMAG_DETECTED_METRIC, #120
                      6426     
0DB8    C3            6427     	CLR	C
0DB9    E536          6428     	MOV	A, DEMAG_DETECTED_METRIC	; Check demag metric
0DBB    9537          6429     	SUBB	A, DEMAG_PWR_OFF_THRESH
0DBD    4008          6430     	JC	WAIT_FOR_COMM_WAIT		; Cut power if many consecutive demags. This will help retain sync during hard accelerations
                      6431     
0DBF    D266          6432     SETB FLAGS0 . 6 
                      6433     	ALL_NFETS_OFF
0DC1    C293          6433+1   CLR P1 . 3 
0DC3    C297          6433+1   CLR P1 . 7 
0DC5    C294          6433+1   CLR P1 . 4 
                      6434     
                      6435     WAIT_FOR_COMM_WAIT: 
0DC7    306002        6436     JNB FLAGS0 . 0 , ( $+5 ) 
0DCA    A1C7          6437     	AJMP	WAIT_FOR_COMM_WAIT					
                      6438     
                      6439     	; Setup next wait time
0DCC    854D53        6440     	MOV	NEXT_WT_START_L, WT_ZC_SCAN_START_L
0DCF    854E54        6441     	MOV	NEXT_WT_START_H, WT_ZC_SCAN_START_H
0DD2    D260          6442     SETB FLAGS0 . 0 
0DD4    43E680        6443     	ORL	EIE1, #80H			; Enable timer3 interrupts
0DD7    22            6444     	RET
                      6445     
                      6446     
                      6447     ;**** **** **** **** **** **** **** **** **** **** **** **** ****
                      6448     ;
                      6449     ; Commutation routines
                      6450     ;
                      6451     ; No assumptions
                      6452     ;
                      6453     ; Performs commutation switching 
                      6454     ; Damped routines uses all pfets on when in pwm off to dampen the motor
                      6455     ;
                      6456     ;**** **** **** **** **** **** **** **** **** **** **** **** ****
                      6457     ; Comm phase 1 to comm phase 2
                      6458     COMM1COMM2: 	
                      6459     	SET_RPM_OUT
0DD8    207D11        6460     JB FLAGS3 . 5 , COMM12_REV 
                      6461     
0DDB    C2AF          6462     	CLR 	EA					; Disable all interrupts
0DDD    754002        6463     	MOV	COMM_PHASE, #2
                      6464     	BPFET_OFF 				; Turn off pfet
0DE0    C295          6464+1   CLR P1 . 5 
                      6465     	APFET_ON					; Turn on pfet
0DE2    D292          6465+1   SETB P1 . 2 
0DE4    D2AF          6466     	SETB	EA
                      6467     	SET_COMP_PHASE_B 			; Set comparator phase
0DE6    759F80        6467+1   MOV CPT0MX , # 80H  ; SET COMPARATOR MULTIPLEXER TO PHASE B
0DE9    020FA7        6468     	JMP	COMM_EXIT
                      6469     
                      6470     COMM12_REV: 	
0DEC    C2AF          6471     	CLR 	EA					; Disable all interrupts
0DEE    754002        6472     	MOV	COMM_PHASE, #2
                      6473     	BPFET_OFF 				; Turn off pfet
0DF1    C295          6473+1   CLR P1 . 5 
                      6474     	CPFET_ON					; Turn on pfet (reverse)
0DF3    D296          6474+1   SETB P1 . 6 
0DF5    D2AF          6475     	SETB	EA
                      6476     	SET_COMP_PHASE_B 			; Set comparator phase
0DF7    759F80        6476+1   MOV CPT0MX , # 80H  ; SET COMPARATOR MULTIPLEXER TO PHASE B
0DFA    020FA7        6477     	JMP	COMM_EXIT
                      6478     
                      6479     
                      6480     ; Comm phase 2 to comm phase 3
                      6481     COMM2COMM3: 	
                      6482     	CLEAR_RPM_OUT
0DFD    307243        6483     JNB FLAGS2 . 2 , COMM23_NONDAMP 
                      6484     
                      6485     	; Comm2Comm3 Damped
0E00    207D20        6486     JB FLAGS3 . 5 , COMM23_DAMP_REV 
                      6487     
0E03    C2AF          6488     	CLR 	EA					; Disable all interrupts
0E05    754003        6489     	MOV	COMM_PHASE, #3
0E08    9001A5        6490     	MOV	DPTR, #PWM_BFET_DAMPED	
0E0B    757B20        6491     	MOV	DAMPINGFET, #(1 SHL BPFET)
                      6492     	CNFET_OFF					; Turn off fets
0E0E    C297          6492+1   CLR P1 . 7 
                      6493     	CPFET_OFF						
0E10    C296          6493+1   CLR P1 . 6 
0E12    306204        6494     JNB FLAGS0 . 2 , COMM23_NFET_OFF 
                      6495     	BNFET_ON					; Pwm on - turn on nfet
0E15    D294          6495+1   SETB P1 . 4 
0E17    C11B          6496     	AJMP	COMM23_FETS_DONE
                      6497     COMM23_NFET_OFF: 
                      6498     	BPFET_ON					; Pwm off - switch damping fets	
0E19    D295          6498+1   SETB P1 . 5 
                      6499     COMM23_FETS_DONE: 
0E1B    D2AF          6500     	SETB	EA
                      6501     	SET_COMP_PHASE_C 			; Set comparator phase
0E1D    759F89        6501+1   MOV CPT0MX , # 89H  ; SET COMPARATOR MULTIPLEXER TO PHASE C
0E20    020FA7        6502     	LJMP	COMM_EXIT
                      6503     
                      6504     	; Comm2Comm3 Damped reverse
                      6505     COMM23_DAMP_REV: 
0E23    C2AF          6506     	CLR 	EA					; Disable all interrupts
0E25    754003        6507     	MOV	COMM_PHASE, #3
0E28    9001A5        6508     	MOV	DPTR, #PWM_BFET_DAMPED	
0E2B    757B20        6509     	MOV	DAMPINGFET, #(1 SHL BPFET)
                      6510     	ANFET_OFF					; Turn off fets (reverse)
0E2E    C293          6510+1   CLR P1 . 3 
                      6511     	APFET_OFF						
0E30    C292          6511+1   CLR P1 . 2 
0E32    306204        6512     JNB FLAGS0 . 2 , COMM23_NFET_OFF_REV 
                      6513     	BNFET_ON					; Pwm on - turn on nfet
0E35    D294          6513+1   SETB P1 . 4 
0E37    C13B          6514     	AJMP	COMM23_FETS_DONE_REV
                      6515     COMM23_NFET_OFF_REV: 
                      6516     	BPFET_ON					; Pwm off - switch damping fets	
0E39    D295          6516+1   SETB P1 . 5 
                      6517     COMM23_FETS_DONE_REV: 
0E3B    D2AF          6518     	SETB	EA
                      6519     	SET_COMP_PHASE_A 			; Set comparator phase (reverse)
0E3D    759F81        6519+1   MOV CPT0MX , # 81H  ; SET COMPARATOR MULTIPLEXER TO PHASE A
0E40    020FA7        6520     	LJMP	COMM_EXIT
                      6521     
                      6522     	; Comm2Comm3 Non-damped
                      6523     COMM23_NONDAMP: 
0E43    207D17        6524     JB FLAGS3 . 5 , COMM23_NONDAMP_REV 
                      6525     
0E46    C2AF          6526     	CLR 	EA					; Disable all interrupts
0E48    754003        6527     	MOV	COMM_PHASE, #3
0E4B    900180        6528     	MOV	DPTR, #PWM_BFET	
                      6529     	CNFET_OFF					; Turn off nfet
0E4E    C297          6529+1   CLR P1 . 7 
0E50    306202        6530     JNB FLAGS0 . 2 , COMM23_NFET_DONE 
                      6531     	BNFET_ON					; Yes - turn on nfet
0E53    D294          6531+1   SETB P1 . 4 
                      6532     COMM23_NFET_DONE: 
0E55    D2AF          6533     	SETB	EA
                      6534     	SET_COMP_PHASE_C 			; Set comparator phase
0E57    759F89        6534+1   MOV CPT0MX , # 89H  ; SET COMPARATOR MULTIPLEXER TO PHASE C
0E5A    020FA7        6535     	LJMP	COMM_EXIT
                      6536     
                      6537     	; Comm2Comm3 Non-damped reverse
                      6538     COMM23_NONDAMP_REV: 
0E5D    C2AF          6539     	CLR 	EA					; Disable all interrupts
0E5F    754003        6540     	MOV	COMM_PHASE, #3
0E62    900180        6541     	MOV	DPTR, #PWM_BFET	
                      6542     	ANFET_OFF					; Turn off nfet (reverse)
0E65    C293          6542+1   CLR P1 . 3 
0E67    306202        6543     JNB FLAGS0 . 2 , COMM23_NFET_DONE_REV 
                      6544     	BNFET_ON					; Yes - turn on nfet
0E6A    D294          6544+1   SETB P1 . 4 
                      6545     COMM23_NFET_DONE_REV: 
0E6C    D2AF          6546     	SETB	EA
                      6547     	SET_COMP_PHASE_A 			; Set comparator phase (reverse)
0E6E    759F81        6547+1   MOV CPT0MX , # 81H  ; SET COMPARATOR MULTIPLEXER TO PHASE A
0E71    020FA7        6548     	LJMP	COMM_EXIT
                      6549     
                      6550     
                      6551     ; Comm phase 3 to comm phase 4
                      6552     COMM3COMM4: 	
                      6553     	SET_RPM_OUT
0E74    207D11        6554     JB FLAGS3 . 5 , COMM34_REV 
                      6555     
0E77    C2AF          6556     	CLR 	EA					; Disable all interrupts
0E79    754004        6557     	MOV	COMM_PHASE, #4
                      6558     	APFET_OFF 				; Turn off pfet
0E7C    C292          6558+1   CLR P1 . 2 
                      6559     	CPFET_ON					; Turn on pfet
0E7E    D296          6559+1   SETB P1 . 6 
0E80    D2AF          6560     	SETB	EA
                      6561     	SET_COMP_PHASE_A 			; Set comparator phase
0E82    759F81        6561+1   MOV CPT0MX , # 81H  ; SET COMPARATOR MULTIPLEXER TO PHASE A
0E85    020FA7        6562     	JMP	COMM_EXIT
                      6563     
                      6564     COMM34_REV: 	
0E88    C2AF          6565     	CLR 	EA					; Disable all interrupts
0E8A    754004        6566     	MOV	COMM_PHASE, #4
                      6567     	CPFET_OFF 				; Turn off pfet (reverse)
0E8D    C296          6567+1   CLR P1 . 6 
                      6568     	APFET_ON					; Turn on pfet (reverse)
0E8F    D292          6568+1   SETB P1 . 2 
0E91    D2AF          6569     	SETB	EA
                      6570     	SET_COMP_PHASE_C 			; Set comparator phase (reverse)
0E93    759F89        6570+1   MOV CPT0MX , # 89H  ; SET COMPARATOR MULTIPLEXER TO PHASE C
0E96    020FA7        6571     	JMP	COMM_EXIT
                      6572     
                      6573     
                      6574     ; Comm phase 4 to comm phase 5
                      6575     COMM4COMM5: 	
                      6576     	CLEAR_RPM_OUT
0E99    307243        6577     JNB FLAGS2 . 2 , COMM45_NONDAMP 
                      6578     
                      6579     	; Comm4Comm5 Damped
0E9C    207D20        6580     JB FLAGS3 . 5 , COMM45_DAMP_REV 
                      6581     
0E9F    C2AF          6582     	CLR 	EA					; Disable all interrupts
0EA1    754005        6583     	MOV	COMM_PHASE, #5
0EA4    900194        6584     	MOV	DPTR, #PWM_AFET_DAMPED	
0EA7    757B04        6585     	MOV	DAMPINGFET, #(1 SHL APFET)
                      6586     	BNFET_OFF					; Turn off fets
0EAA    C294          6586+1   CLR P1 . 4 
                      6587     	BPFET_OFF						
0EAC    C295          6587+1   CLR P1 . 5 
0EAE    306204        6588     JNB FLAGS0 . 2 , COMM45_NFET_OFF 
                      6589     	ANFET_ON					; Pwm on - turn on nfet
0EB1    D293          6589+1   SETB P1 . 3 
0EB3    C1B7          6590     	AJMP	COMM45_FETS_DONE
                      6591     COMM45_NFET_OFF: 
                      6592     	APFET_ON					; Pwm off - switch damping fets	
0EB5    D292          6592+1   SETB P1 . 2 
                      6593     COMM45_FETS_DONE: 
0EB7    D2AF          6594     	SETB	EA
                      6595     	SET_COMP_PHASE_B 			; Set comparator phase
0EB9    759F80        6595+1   MOV CPT0MX , # 80H  ; SET COMPARATOR MULTIPLEXER TO PHASE B
0EBC    020FA7        6596     	LJMP	COMM_EXIT
                      6597     
                      6598     	; Comm4Comm5 Damped reverse
                      6599     COMM45_DAMP_REV: 
0EBF    C2AF          6600     	CLR 	EA					; Disable all interrupts
0EC1    754005        6601     	MOV	COMM_PHASE, #5
0EC4    9001B6        6602     	MOV	DPTR, #PWM_CFET_DAMPED	; (reverse)
0EC7    757B40        6603     	MOV	DAMPINGFET, #(1 SHL CPFET)	; (reverse)
                      6604     	BNFET_OFF					; Turn off fets
0ECA    C294          6604+1   CLR P1 . 4 
                      6605     	BPFET_OFF						
0ECC    C295          6605+1   CLR P1 . 5 
0ECE    306204        6606     JNB FLAGS0 . 2 , COMM45_NFET_OFF_REV 
                      6607     	CNFET_ON					; Pwm on - turn on nfet (reverse)
0ED1    D297          6607+1   SETB P1 . 7 
0ED3    C1D7          6608     	AJMP	COMM45_FETS_DONE_REV
                      6609     COMM45_NFET_OFF_REV: 
                      6610     	CPFET_ON					; Pwm off - switch damping fets (reverse)	
0ED5    D296          6610+1   SETB P1 . 6 
                      6611     COMM45_FETS_DONE_REV: 
0ED7    D2AF          6612     	SETB	EA
                      6613     	SET_COMP_PHASE_B 			; Set comparator phase
0ED9    759F80        6613+1   MOV CPT0MX , # 80H  ; SET COMPARATOR MULTIPLEXER TO PHASE B
0EDC    020FA7        6614     	LJMP	COMM_EXIT
                      6615     
                      6616     	; Comm4Comm5 Non-damped
                      6617     COMM45_NONDAMP: 
0EDF    207D17        6618     JB FLAGS3 . 5 , COMM45_NONDAMP_REV 
                      6619     
0EE2    C2AF          6620     	CLR 	EA					; Disable all interrupts
0EE4    754005        6621     	MOV	COMM_PHASE, #5
0EE7    900176        6622     	MOV	DPTR, #PWM_AFET	
                      6623     	BNFET_OFF					; Turn off nfet
0EEA    C294          6623+1   CLR P1 . 4 
0EEC    306202        6624     JNB FLAGS0 . 2 , COMM45_NFET_DONE 
                      6625     	ANFET_ON					; Yes - turn on nfet
0EEF    D293          6625+1   SETB P1 . 3 
                      6626     COMM45_NFET_DONE: 
0EF1    D2AF          6627     	SETB	EA
                      6628     	SET_COMP_PHASE_B 			; Set comparator phase
0EF3    759F80        6628+1   MOV CPT0MX , # 80H  ; SET COMPARATOR MULTIPLEXER TO PHASE B
0EF6    020FA7        6629     	LJMP	COMM_EXIT
                      6630     
                      6631     	; Comm4Comm5 Non-damped reverse
                      6632     COMM45_NONDAMP_REV: 
0EF9    C2AF          6633     	CLR 	EA					; Disable all interrupts
0EFB    754005        6634     	MOV	COMM_PHASE, #5
0EFE    90018A        6635     	MOV	DPTR, #PWM_CFET		;  (reverse)
                      6636     	BNFET_OFF					; Turn off nfet
0F01    C294          6636+1   CLR P1 . 4 
0F03    3062EB        6637     JNB FLAGS0 . 2 , COMM45_NFET_DONE 
                      6638     	CNFET_ON					; Yes - turn on nfet (reverse)
0F06    D297          6638+1   SETB P1 . 7 
0F08    D2AF          6639     	SETB	EA
                      6640     	SET_COMP_PHASE_B 			; Set comparator phase
0F0A    759F80        6640+1   MOV CPT0MX , # 80H  ; SET COMPARATOR MULTIPLEXER TO PHASE B
0F0D    020FA7        6641     	LJMP	COMM_EXIT
                      6642     
                      6643     
                      6644     ; Comm phase 5 to comm phase 6
                      6645     COMM5COMM6: 	
                      6646     	SET_RPM_OUT
0F10    207D11        6647     JB FLAGS3 . 5 , COMM56_REV 
                      6648     
0F13    C2AF          6649     	CLR 	EA					; Disable all interrupts
0F15    754006        6650     	MOV	COMM_PHASE, #6
                      6651     	CPFET_OFF 				; Turn off pfet
0F18    C296          6651+1   CLR P1 . 6 
                      6652     	BPFET_ON					; Turn on pfet
0F1A    D295          6652+1   SETB P1 . 5 
0F1C    D2AF          6653     	SETB	EA
                      6654     	SET_COMP_PHASE_C 			; Set comparator phase
0F1E    759F89        6654+1   MOV CPT0MX , # 89H  ; SET COMPARATOR MULTIPLEXER TO PHASE C
0F21    020FA7        6655     	JMP	COMM_EXIT
                      6656     
                      6657     COMM56_REV: 
0F24    C2AF          6658     	CLR 	EA					; Disable all interrupts
0F26    754006        6659     	MOV	COMM_PHASE, #6
                      6660     	APFET_OFF 				; Turn off pfet (reverse)
0F29    C292          6660+1   CLR P1 . 2 
                      6661     	BPFET_ON					; Turn on pfet
0F2B    D295          6661+1   SETB P1 . 5 
0F2D    D2AF          6662     	SETB	EA
                      6663     	SET_COMP_PHASE_A 			; Set comparator phase (reverse)
0F2F    759F81        6663+1   MOV CPT0MX , # 81H  ; SET COMPARATOR MULTIPLEXER TO PHASE A
0F32    020FA7        6664     	JMP	COMM_EXIT
                      6665     
                      6666     
                      6667     ; Comm phase 6 to comm phase 1
                      6668     COMM6COMM1: 	
                      6669     	CLEAR_RPM_OUT
0F35    307242        6670     JNB FLAGS2 . 2 , COMM61_NONDAMP 
                      6671     
                      6672     	; Comm6Comm1 Damped
0F38    207D20        6673     JB FLAGS3 . 5 , COMM61_DAMP_REV 
                      6674     
0F3B    C2AF          6675     	CLR 	EA					; Disable all interrupts
0F3D    754001        6676     	MOV	COMM_PHASE, #1
0F40    9001B6        6677     	MOV	DPTR, #PWM_CFET_DAMPED	
0F43    757B40        6678     	MOV	DAMPINGFET, #(1 SHL CPFET)
                      6679     	ANFET_OFF					; Turn off fets
0F46    C293          6679+1   CLR P1 . 3 
                      6680     	APFET_OFF						
0F48    C292          6680+1   CLR P1 . 2 
0F4A    306204        6681     JNB FLAGS0 . 2 , COMM61_NFET_OFF 
                      6682     	CNFET_ON					; Pwm on - turn on nfet
0F4D    D297          6682+1   SETB P1 . 7 
0F4F    E153          6683     	AJMP	COMM61_FETS_DONE
                      6684     COMM61_NFET_OFF: 
                      6685     	CPFET_ON					; Pwm off - switch damping fets	
0F51    D296          6685+1   SETB P1 . 6 
                      6686     COMM61_FETS_DONE: 
0F53    D2AF          6687     	SETB	EA
                      6688     	SET_COMP_PHASE_A 			; Set comparator phase
0F55    759F81        6688+1   MOV CPT0MX , # 81H  ; SET COMPARATOR MULTIPLEXER TO PHASE A
0F58    020FA7        6689     	LJMP	COMM_EXIT
                      6690     
                      6691     	; Comm6Comm1 Damped reverse
                      6692     COMM61_DAMP_REV: 
0F5B    C2AF          6693     	CLR 	EA					; Disable all interrupts
0F5D    754001        6694     	MOV	COMM_PHASE, #1
0F60    900194        6695     	MOV	DPTR, #PWM_AFET_DAMPED	; (reverse)	
0F63    757B04        6696     	MOV	DAMPINGFET, #(1 SHL APFET)	; (reverse)
                      6697     	CNFET_OFF					; Turn off fets (reverse)
0F66    C297          6697+1   CLR P1 . 7 
                      6698     	CPFET_OFF						
0F68    C296          6698+1   CLR P1 . 6 
0F6A    306204        6699     JNB FLAGS0 . 2 , COMM61_NFET_OFF_REV 
                      6700     	ANFET_ON					; Pwm on - turn on nfet
0F6D    D293          6700+1   SETB P1 . 3 
0F6F    E173          6701     	AJMP	COMM61_FETS_DONE_REV
                      6702     COMM61_NFET_OFF_REV: 
                      6703     	APFET_ON					; Pwm off - switch damping fets (reverse)	
0F71    D292          6703+1   SETB P1 . 2 
                      6704     COMM61_FETS_DONE_REV: 
0F73    D2AF          6705     	SETB	EA
                      6706     	SET_COMP_PHASE_C 			; Set comparator phase (reverse)
0F75    759F89        6706+1   MOV CPT0MX , # 89H  ; SET COMPARATOR MULTIPLEXER TO PHASE C
0F78    E1A7          6707     	AJMP	COMM_EXIT
                      6708     
                      6709     	; Comm6Comm1 Non-damped
                      6710     COMM61_NONDAMP: 
0F7A    207D16        6711     JB FLAGS3 . 5 , COMM61_NONDAMP_REV 
                      6712     
0F7D    C2AF          6713     	CLR 	EA					; Disable all interrupts
0F7F    754001        6714     	MOV	COMM_PHASE, #1
0F82    90018A        6715     	MOV	DPTR, #PWM_CFET	
                      6716     	ANFET_OFF					; Turn off nfet
0F85    C293          6716+1   CLR P1 . 3 
0F87    306202        6717     JNB FLAGS0 . 2 , COMM61_NFET_DONE 
                      6718     	CNFET_ON					; Yes - turn on nfet
0F8A    D297          6718+1   SETB P1 . 7 
                      6719     COMM61_NFET_DONE: 
0F8C    D2AF          6720     	SETB	EA
                      6721     	SET_COMP_PHASE_A 			; Set comparator phase
0F8E    759F81        6721+1   MOV CPT0MX , # 81H  ; SET COMPARATOR MULTIPLEXER TO PHASE A
0F91    E1A7          6722     	AJMP	COMM_EXIT
                      6723     
                      6724     	; Comm6Comm1 Non-damped reverse
                      6725     COMM61_NONDAMP_REV: 
0F93    C2AF          6726     	CLR 	EA					; Disable all interrupts
0F95    754001        6727     	MOV	COMM_PHASE, #1
0F98    900176        6728     	MOV	DPTR, #PWM_AFET		; (reverse)
                      6729     	CNFET_OFF					; Turn off nfet (reverse)
0F9B    C297          6729+1   CLR P1 . 7 
0F9D    306202        6730     JNB FLAGS0 . 2 , COMM61_NFET_DONE_REV 
                      6731     	ANFET_ON					; Yes - turn on nfet (reverse)
0FA0    D293          6731+1   SETB P1 . 3 
                      6732     COMM61_NFET_DONE_REV: 
0FA2    D2AF          6733     	SETB	EA
                      6734     	SET_COMP_PHASE_C 			; Set comparator phase (reverse)
0FA4    759F89        6734+1   MOV CPT0MX , # 89H  ; SET COMPARATOR MULTIPLEXER TO PHASE C
                      6735     
                      6736     COMM_EXIT: 
0FA7    C266          6737     CLR FLAGS0 . 6 
0FA9    22            6738     	RET
                      6739     
                      6740     
                      6741     ;**** **** **** **** **** **** **** **** **** **** **** **** ****
                      6742     ;
                      6743     ; Switch power off routine
                      6744     ;
                      6745     ; No assumptions
                      6746     ;
                      6747     ; Switches all fets off 
                      6748     ;
                      6749     ;**** **** **** **** **** **** **** **** **** **** **** **** ****
                      6750     SWITCH_POWER_OFF: 
0FAA    900174        6751     	MOV	DPTR, #PWM_NOFET	; Set DPTR register to pwm_nofet		
0FAD    757B00        6752     	MOV	DAMPINGFET, #0
                      6753     	ALL_NFETS_OFF			; Turn off all nfets
0FB0    C293          6753+1   CLR P1 . 3 
0FB2    C297          6753+1   CLR P1 . 7 
0FB4    C294          6753+1   CLR P1 . 4 
                      6754     	ALL_PFETS_OFF			; Turn off all pfets
0FB6    C292          6754+1   CLR P1 . 2 
0FB8    C296          6754+1   CLR P1 . 6 
0FBA    C295          6754+1   CLR P1 . 5 
0FBC    C262          6755     CLR FLAGS0 . 2 
0FBE    22            6756     	RET			
                      6757     
                      6758     
                      6759     ;**** **** **** **** **** **** **** **** **** **** **** **** ****
                      6760     ;
                      6761     ; Set default parameters
                      6762     ;
                      6763     ; No assumptions
                      6764     ;
                      6765     ; Sets default programming parameters
                      6766     ;
                      6767     ;**** **** **** **** **** **** **** **** **** **** **** **** ****
                      6768     SET_DEFAULT_PARAMETERS: 
                      6769     IF MODE == 0	; Main
                               	MOV	TEMP1, #PGM_GOV_P_GAIN
                               	MOV	@TEMP1, #DEFAULT_PGM_MAIN_P_GAIN
                               	INC	TEMP1
                               	MOV	@TEMP1, #DEFAULT_PGM_MAIN_I_GAIN
                               	INC	TEMP1
                               	MOV	@TEMP1, #DEFAULT_PGM_MAIN_GOVERNOR_MODE
                               	INC	TEMP1
                               	MOV	@TEMP1, #DEFAULT_PGM_MAIN_LOW_VOLTAGE_LIM
                               	INC	TEMP1
                               	MOV	@TEMP1, #0FFH	; Motor gain
                               	INC	TEMP1
                               	MOV	@TEMP1, #0FFH	; Motor idle
                               	INC	TEMP1
                               	MOV	@TEMP1, #DEFAULT_PGM_MAIN_STARTUP_PWR
                               	INC	TEMP1
                               	MOV	@TEMP1, #DEFAULT_PGM_MAIN_PWM_FREQ
                               	INC	TEMP1
                               	MOV	@TEMP1, #DEFAULT_PGM_MAIN_DIRECTION
                               	INC	TEMP1
                               	MOV	@TEMP1, #DEFAULT_PGM_MAIN_RCP_PWM_POL
                               
                               	MOV	TEMP1, #PGM_ENABLE_TX_PROGRAM
                               	MOV	@TEMP1, #DEFAULT_PGM_ENABLE_TX_PROGRAM
                               	INC	TEMP1
                               	MOV	@TEMP1, #DEFAULT_PGM_MAIN_REARM_START
                               	INC	TEMP1
                               	MOV	@TEMP1, #DEFAULT_PGM_MAIN_GOV_SETUP_TARGET
                               	INC	TEMP1
                               	MOV	@TEMP1, #0FFH	; Startup rpm	
                               	INC	TEMP1
                               	MOV	@TEMP1, #0FFH	; Startup accel
                               	INC	TEMP1
                               	MOV	@TEMP1, #0FFH	; Voltage comp
                               	INC	TEMP1
                               	MOV	@TEMP1, #DEFAULT_PGM_MAIN_COMM_TIMING
                               	INC	TEMP1
                               	MOV	@TEMP1, #0FFH	; Damping force
                               	INC	TEMP1
                               	MOV	@TEMP1, #DEFAULT_PGM_MAIN_GOVERNOR_RANGE
                               	INC	TEMP1
                               	MOV	@TEMP1, #0FFH	; Startup method	
                               	INC	TEMP1
                               	MOV	@TEMP1, #DEFAULT_PGM_PPM_MIN_THROTTLE
                               	INC	TEMP1
                               	MOV	@TEMP1, #DEFAULT_PGM_PPM_MAX_THROTTLE
                               	INC	TEMP1
                               	MOV	@TEMP1, #DEFAULT_PGM_MAIN_BEEP_STRENGTH
                               	INC	TEMP1
                               	MOV	@TEMP1, #DEFAULT_PGM_MAIN_BEACON_STRENGTH
                               	INC	TEMP1
                               	MOV	@TEMP1, #DEFAULT_PGM_MAIN_BEACON_DELAY
                               	INC	TEMP1
                               	MOV	@TEMP1, #0FFH	; Throttle rate
                               	INC	TEMP1
                               	MOV	@TEMP1, #DEFAULT_PGM_MAIN_DEMAG_COMP
                               	INC	TEMP1
                               	MOV	@TEMP1, #DEFAULT_PGM_BEC_VOLTAGE_HIGH
                               	INC	TEMP1
                               	MOV	@TEMP1, #DEFAULT_PGM_PPM_CENTER_THROTTLE
                               	INC	TEMP1
                               	MOV	@TEMP1, #DEFAULT_PGM_MAIN_SPOOLUP_TIME
                               	INC	TEMP1
                               	MOV	@TEMP1, #DEFAULT_PGM_ENABLE_TEMP_PROT
                               	INC	TEMP1
                               	MOV	@TEMP1, #DEFAULT_PGM_ENABLE_POWER_PROT
                               	INC	TEMP1
                               	MOV	@TEMP1, #DEFAULT_PGM_ENABLE_PWM_INPUT
                               	INC	TEMP1
                               	MOV	@TEMP1, #0FFH	; Pwm dither
                               ENDIF
                      6840     IF MODE == 1	; Tail
                               	MOV	TEMP1, #PGM_GOV_P_GAIN
                               	MOV	@TEMP1, #0FFH	
                               	INC	TEMP1
                               	MOV	@TEMP1, #0FFH	; Governor I gain
                               	INC	TEMP1
                               	MOV	@TEMP1, #0FFH	; Governor mode
                               	INC	TEMP1
                               	MOV	@TEMP1, #0FFH	; Low voltage limit
                               	INC	TEMP1
                               	MOV	@TEMP1, #DEFAULT_PGM_TAIL_GAIN
                               	INC	TEMP1
                               	MOV	@TEMP1, #DEFAULT_PGM_TAIL_IDLE_SPEED
                               	INC	TEMP1
                               	MOV	@TEMP1, #DEFAULT_PGM_TAIL_STARTUP_PWR
                               	INC	TEMP1
                               	MOV	@TEMP1, #DEFAULT_PGM_TAIL_PWM_FREQ
                               	INC	TEMP1
                               	MOV	@TEMP1, #DEFAULT_PGM_TAIL_DIRECTION
                               	INC	TEMP1
                               	MOV	@TEMP1, #DEFAULT_PGM_TAIL_RCP_PWM_POL
                               
                               	MOV	TEMP1, #PGM_ENABLE_TX_PROGRAM
                               	MOV	@TEMP1, #DEFAULT_PGM_ENABLE_TX_PROGRAM
                               	INC	TEMP1
                               	MOV	@TEMP1, #0FFH	; Main rearm start
                               	INC	TEMP1
                               	MOV	@TEMP1, #0FFH	; Governor setup target
                               	INC	TEMP1
                               	MOV	@TEMP1, #0FFH	; Startup rpm	
                               	INC	TEMP1
                               	MOV	@TEMP1, #0FFH	; Startup accel
                               	INC	TEMP1
                               	MOV	@TEMP1, #0FFH	; Voltage comp
                               	INC	TEMP1
                               	MOV	@TEMP1, #DEFAULT_PGM_TAIL_COMM_TIMING
                               	INC	TEMP1
                               	MOV	@TEMP1, #0FFH	; Damping force	
                               	INC	TEMP1
                               	MOV	@TEMP1, #0FFH	; Governor range
                               	INC	TEMP1
                               	MOV	@TEMP1, #0FFH	; Startup method	
                               	INC	TEMP1
                               	MOV	@TEMP1, #DEFAULT_PGM_PPM_MIN_THROTTLE
                               	INC	TEMP1
                               	MOV	@TEMP1, #DEFAULT_PGM_PPM_MAX_THROTTLE
                               	INC	TEMP1
                               	MOV	@TEMP1, #DEFAULT_PGM_TAIL_BEEP_STRENGTH
                               	INC	TEMP1
                               	MOV	@TEMP1, #DEFAULT_PGM_TAIL_BEACON_STRENGTH
                               	INC	TEMP1
                               	MOV	@TEMP1, #DEFAULT_PGM_TAIL_BEACON_DELAY
                               	INC	TEMP1
                               	MOV	@TEMP1, #0FFH	; Throttle rate	
                               	INC	TEMP1
                               	MOV	@TEMP1, #DEFAULT_PGM_TAIL_DEMAG_COMP
                               	INC	TEMP1
                               	MOV	@TEMP1, #DEFAULT_PGM_BEC_VOLTAGE_HIGH
                               	INC	TEMP1
                               	MOV	@TEMP1, #DEFAULT_PGM_PPM_CENTER_THROTTLE
                               	INC	TEMP1
                               	MOV	@TEMP1, #0FFH	
                               	INC	TEMP1
                               	MOV	@TEMP1, #DEFAULT_PGM_ENABLE_TEMP_PROT
                               	INC	TEMP1
                               	MOV	@TEMP1, #DEFAULT_PGM_ENABLE_POWER_PROT
                               	INC	TEMP1
                               	MOV	@TEMP1, #DEFAULT_PGM_ENABLE_PWM_INPUT
                               	INC	TEMP1
                               	MOV	@TEMP1, #DEFAULT_PGM_TAIL_PWM_DITHER
                               ENDIF
                      6911     IF MODE == 2	; Multi
0FBF    7880          6912     MOV R0 , # PGM_GOV_P_GAIN 
0FC1    7609          6913     MOV @ R0 , # 9 
0FC3    08            6914     INC R0 
0FC4    7609          6915     MOV @ R0 , # 9 
0FC6    08            6916     INC R0 
0FC7    7604          6917     MOV @ R0 , # 4 
0FC9    08            6918     INC R0 
0FCA    76FF          6919     MOV @ R0 , # 0FFH 
0FCC    08            6920     INC R0 
0FCD    7603          6921     MOV @ R0 , # 3 
0FCF    08            6922     INC R0 
0FD0    76FF          6923     MOV @ R0 , # 0FFH 
0FD2    08            6924     INC R0 
0FD3    7609          6925     MOV @ R0 , # 9 
0FD5    08            6926     INC R0 
0FD6    7601          6927     MOV @ R0 , # 1 
0FD8    08            6928     INC R0 
0FD9    7601          6929     MOV @ R0 , # 1 
0FDB    08            6930     INC R0 
0FDC    7601          6931     MOV @ R0 , # 1 
                      6932     
0FDE    788C          6933     MOV R0 , # PGM_ENABLE_TX_PROGRAM 
0FE0    7601          6934     MOV @ R0 , # 1 
0FE2    08            6935     INC R0 
0FE3    76FF          6936     MOV @ R0 , # 0FFH 
0FE5    08            6937     INC R0 
0FE6    76FF          6938     MOV @ R0 , # 0FFH 
0FE8    08            6939     INC R0 
0FE9    76FF          6940     MOV @ R0 , # 0FFH 
0FEB    08            6941     INC R0 
0FEC    76FF          6942     MOV @ R0 , # 0FFH 
0FEE    08            6943     INC R0 
0FEF    76FF          6944     MOV @ R0 , # 0FFH 
0FF1    08            6945     INC R0 
0FF2    7603          6946     MOV @ R0 , # 3 
0FF4    08            6947     INC R0 
0FF5    76FF          6948     MOV @ R0 , # 0FFH 
0FF7    08            6949     INC R0 
0FF8    76FF          6950     MOV @ R0 , # 0FFH 
0FFA    08            6951     INC R0 
0FFB    76FF          6952     MOV @ R0 , # 0FFH 
0FFD    08            6953     INC R0 
0FFE    7625          6954     MOV @ R0 , # 37 
1000    08            6955     INC R0 
1001    76D0          6956     MOV @ R0 , # 208 
1003    08            6957     INC R0 
1004    7628          6958     MOV @ R0 , # 40 
1006    08            6959     INC R0 
1007    7650          6960     MOV @ R0 , # 80 
1009    08            6961     INC R0 
100A    7604          6962     MOV @ R0 , # 4 
100C    08            6963     INC R0 
100D    76FF          6964     MOV @ R0 , # 0FFH 
100F    08            6965     INC R0 
1010    7602          6966     MOV @ R0 , # 2 
1012    08            6967     INC R0 
1013    7600          6968     MOV @ R0 , # 0 
1015    08            6969     INC R0 
1016    767A          6970     MOV @ R0 , # 122 
1018    08            6971     INC R0 
1019    76FF          6972     MOV @ R0 , # 0FFH 
101B    08            6973     INC R0 
101C    7601          6974     MOV @ R0 , # 1 
101E    08            6975     INC R0 
101F    7601          6976     MOV @ R0 , # 1 
1021    08            6977     INC R0 
1022    7600          6978     MOV @ R0 , # 0 
1024    08            6979     INC R0 
1025    7603          6980     MOV @ R0 , # 3 
                      6981     ENDIF
1027    22            6982     	RET
                      6983     
                      6984     
                      6985     ;**** **** **** **** **** **** **** **** **** **** **** **** ****
                      6986     ;
                      6987     ; Decode parameters
                      6988     ;
                      6989     ; No assumptions
                      6990     ;
                      6991     ; Decodes programming parameters
                      6992     ;
                      6993     ;**** **** **** **** **** **** **** **** **** **** **** **** ****
                      6994     DECODE_PARAMETERS: 
                      6995     	; Load programmed pwm frequency
1028    7887          6996     MOV R0 , # PGM_PWM_FREQ 
102A    E6            6997     MOV A , @ R0 
102B    FF            6998     MOV R7 , A 
102C    C272          6999     CLR FLAGS2 . 2 
                      7000     IF DAMPED_MODE_ENABLE == 1
102E    BF0302        7001     CJNE R7 , # 3 , ( $+5 ) 
1031    D272          7002     SETB FLAGS2 . 2 
                      7003     ENDIF
                      7004     	; Load programmed direction
1033    7888          7005     MOV R0 , # PGM_DIRECTION 
                      7006     IF MODE >= 1	; Tail or multi
1035    E6            7007     MOV A , @ R0 
1036    C3            7008     	CLR	C
1037    9403          7009     	SUBB	A, #3
1039    6008          7010     	JZ	DECODE_PARAMS_DIR_SET
                      7011     ENDIF
                      7012     
103B    C27D          7013     CLR FLAGS3 . 5 
103D    E6            7014     MOV A , @ R0 
103E    30E102        7015     	JNB	ACC.1, ($+5)
1041    D27D          7016     SETB FLAGS3 . 5 
                      7017     DECODE_PARAMS_DIR_SET: 
1043    C27E          7018     CLR FLAGS3 . 6 
1045    7889          7019     MOV R0 , # PGM_INPUT_POL 
1047    E6            7020     MOV A , @ R0 
1048    30E102        7021     	JNB	ACC.1, ($+5)
104B    D27E          7022     SETB FLAGS3 . 6 
104D    C3            7023     	CLR	C
104E    EF            7024     MOV A , R7 
104F    9402          7025     	SUBB	A, #2
1051    6008          7026     	JZ	DECODE_PWM_FREQ_LOW
                      7027     
1053    758E01        7028     	MOV	CKCON, #01H		; Timer0 set for clk/4 (22kHz pwm)
1056    D273          7029     SETB FLAGS2 . 3 
1058    021060        7030     	JMP	DECODE_PWM_FREQ_END
                      7031     
                      7032     DECODE_PWM_FREQ_LOW: 
105B    758E00        7033     	MOV	CKCON, #00H		; Timer0 set for clk/12 (8kHz pwm)
105E    C273          7034     CLR FLAGS2 . 3 
                      7035     
                      7036     DECODE_PWM_FREQ_END: 
1060    22            7037     	RET
                      7038     
                      7039     
                      7040     ;**** **** **** **** **** **** **** **** **** **** **** **** ****
                      7041     ;
                      7042     ; Decode settings
                      7043     ;
                      7044     ; No assumptions
                      7045     ;
                      7046     ; Decodes various settings
                      7047     ;
                      7048     ;**** **** **** **** **** **** **** **** **** **** **** **** ****
                      7049     DECODE_SETTINGS: 
                      7050     	; Decode governor gains
1061    7880          7051     MOV R0 , # PGM_GOV_P_GAIN 
1063    E6            7052     MOV A , @ R0 
1064    14            7053     	DEC	A	
1065    900080        7054     	MOV	DPTR, #GOV_GAIN_TABLE
1068    93            7055     	MOVC A, @A+DPTR	
1069    78A4          7056     MOV R0 , # PGM_GOV_P_GAIN_DECODED 
106B    F6            7057     MOV @ R0 , A 
106C    7881          7058     MOV R0 , # PGM_GOV_I_GAIN 
106E    E6            7059     MOV A , @ R0 
106F    14            7060     	DEC	A	
1070    900080        7061     	MOV	DPTR, #GOV_GAIN_TABLE
1073    93            7062     	MOVC A, @A+DPTR	
1074    78A5          7063     MOV R0 , # PGM_GOV_I_GAIN_DECODED 
1076    F6            7064     MOV @ R0 , A 
                      7065     	; Decode startup power
1077    7886          7066     MOV R0 , # PGM_STARTUP_PWR 
1079    E6            7067     MOV A , @ R0 
107A    14            7068     	DEC	A	
107B    90008D        7069     	MOV	DPTR, #STARTUP_POWER_TABLE
107E    93            7070     	MOVC A, @A+DPTR	
107F    78A6          7071     MOV R0 , # PGM_STARTUP_PWR_DECODED 
1081    F6            7072     MOV @ R0 , A 
                      7073     IF MODE == 0	; Main
                               	; Decode spoolup time
                               	MOV	TEMP1, #PGM_MAIN_SPOOLUP_TIME		
                               	MOV	A, @TEMP1
                               	MOV	TEMP1, A		; Store
                               	JNZ	($+3)		; If not zero - branch
                               	
                               	INC	TEMP1
                               
                               	CLR	C
                               	MOV	A, TEMP1
                               	SUBB	A, #17		; Limit to 17 max
                               	JC	($+4)
                               
                               	MOV	TEMP1, #17
                               
                               	MOV	A, TEMP1
                               	ADD	A, TEMP1
                               	ADD	A, TEMP1		; Now 3x
                               	MOV	MAIN_SPOOLUP_TIME_3X, A
                               	ADD	A, MAIN_SPOOLUP_TIME_3X
                               	ADD	A, MAIN_SPOOLUP_TIME_3X
                               	ADD	A, TEMP1		; Now 10x
                               	MOV	MAIN_SPOOLUP_TIME_10X, A
                               	ADD	A, MAIN_SPOOLUP_TIME_3X
                               	ADD	A, TEMP1		
                               	ADD	A, TEMP1		; Now 15x
                               	MOV	MAIN_SPOOLUP_TIME_15X, A
                               ENDIF
                      7102     	; Decode demag compensation
1082    789C          7103     MOV R0 , # PGM_DEMAG_COMP 
1084    E6            7104     MOV A , @ R0 
1085    7537FF        7105     	MOV	DEMAG_PWR_OFF_THRESH, #255	; Set default
1088    75380C        7106     	MOV	LOW_RPM_PWR_SLOPE, #12		; Set default
                      7107     
108B    B40206        7108     	CJNE	A, #2, DECODE_DEMAG_HIGH
                      7109     
108E    7537A0        7110     	MOV	DEMAG_PWR_OFF_THRESH, #160	; Settings for demag comp low
1091    75380A        7111     	MOV	LOW_RPM_PWR_SLOPE, #10		
                      7112     
                      7113     DECODE_DEMAG_HIGH: 
1094    B40306        7114     	CJNE	A, #3, DECODE_DEMAG_DONE
                      7115     
1097    753782        7116     	MOV	DEMAG_PWR_OFF_THRESH, #130	; Settings for demag comp high
109A    753805        7117     	MOV	LOW_RPM_PWR_SLOPE, #5		
                      7118     
                      7119     DECODE_DEMAG_DONE: 
                      7120     	; Decode pwm dither
109D    78A3          7121     MOV R0 , # PGM_PWM_DITHER 
109F    E6            7122     MOV A , @ R0 
10A0    14            7123     	DEC	A	
10A1    90009A        7124     	MOV	DPTR, #PWM_DITHER_TABLE
10A4    93            7125     	MOVC A, @A+DPTR	
10A5    F566          7126     	MOV	PWM_DITHER_DECODED, A
10A7    120FAA        7127     	CALL	SWITCH_POWER_OFF			; Reset DPTR
10AA    22            7128     	RET
                      7129     
                      7130     
                      7131     ;**** **** **** **** **** **** **** **** **** **** **** **** ****
                      7132     ;
                      7133     ; Set BEC voltage
                      7134     ;
                      7135     ; No assumptions
                      7136     ;
                      7137     ; Sets the BEC output voltage low or high
                      7138     ;
                      7139     ;**** **** **** **** **** **** **** **** **** **** **** **** ****
                      7140     SET_BEC_VOLTAGE: 
                      7141     	; Set bec voltage
                      7142     IF HIGH_BEC_VOLTAGE == 1
                               	SET_BEC_LO			; Set default to low
                               	MOV	TEMP1, #PGM_BEC_VOLTAGE_HIGH		
                               	MOV	A, @TEMP1				
                               	JZ	SET_BEC_VOLTAGE_EXIT	
                               
                               	SET_BEC_HI			; Set to high
                               
                               SET_BEC_VOLTAGE_EXIT:
                               ENDIF
                      7152     IF HIGH_BEC_VOLTAGE == 2
                               	SET_BEC_0				; Set default to low
                               	MOV	TEMP1, #PGM_BEC_VOLTAGE_HIGH		
                               	MOV	A, @TEMP1				
                               	CJNE	A, #1, SET_BEC_VOLTAGE_2	
                               
                               	SET_BEC_1				; Set to level 1
                               
                               SET_BEC_VOLTAGE_2:
                               	CJNE	A, #2, SET_BEC_VOLTAGE_EXIT	
                               
                               	SET_BEC_2				; Set to level 2
                               
                               SET_BEC_VOLTAGE_EXIT:
                               ENDIF
10AB    22            7167     	RET
                      7168     
                      7169     
                      7170     ;**** **** **** **** **** **** **** **** **** **** **** **** ****
                      7171     ;
                      7172     ; Find throttle gain
                      7173     ;
                      7174     ; The difference between max and min throttle must be more than 520us (a Pgm_Ppm_xxx_Throttle difference of 130)
                      7175     ;
                      7176     ; Finds throttle gain from throttle calibration values
                      7177     ;
                      7178     ;**** **** **** **** **** **** **** **** **** **** **** **** ****
                      7179     FIND_THROTTLE_GAIN: 
                      7180     	; Load programmed minimum and maximum throttle
10AC    7896          7181     MOV R0 , # PGM_PPM_MIN_THROTTLE 
10AE    E6            7182     MOV A , @ R0 
10AF    FA            7183     MOV R2 , A 
10B0    7897          7184     MOV R0 , # PGM_PPM_MAX_THROTTLE 
10B2    E6            7185     MOV A , @ R0 
10B3    FB            7186     MOV R3 , A 
10B4    7888          7187     MOV R0 , # PGM_DIRECTION 
10B6    E6            7188     MOV A , @ R0 
10B7    B40305        7189     	CJNE	A, #3, FIND_THROTTLE_GAIN_CHECK_FULL
                      7190     
10BA    C3            7191     	CLR	C
10BB    EB            7192     MOV A , R3 
10BC    940E          7193     	SUBB	A, #14				; Compensate for higher deadband in bidirectional
10BE    FB            7194     MOV R3 , A 
                      7195     
                      7196     FIND_THROTTLE_GAIN_CHECK_FULL: 
                      7197     	; Check if full range is chosen
10BF    307F04        7198     JNB FLAGS3 . 7 , FIND_THROTTLE_GAIN_CALCULATE 
                      7199     
10C2    7A00          7200     MOV R2 , # 0 
10C4    7BFF          7201     MOV R3 , # 255 
                      7202     
                      7203     FIND_THROTTLE_GAIN_CALCULATE: 
                      7204     	; Calculate difference
10C6    C3            7205     	CLR	C
10C7    EB            7206     MOV A , R3 
10C8    9A            7207     SUBB A , R2 
10C9    FC            7208     MOV R4 , A 
                      7209     	; Check that difference is minimum 130
10CA    C3            7210     	CLR	C
10CB    9482          7211     	SUBB	A, #130
10CD    5002          7212     	JNC	($+4)
                      7213     
10CF    7C82          7214     MOV R4 , # 130 
                      7215     
                      7216     	; Find gain
10D1    757200        7217     	MOV	PPM_THROTTLE_GAIN, #0
                      7218     TEST_THROTTLE_GAIN: 
10D4    0572          7219     	INC	PPM_THROTTLE_GAIN
10D6    EC            7220     MOV A , R4 
10D7    8572F0        7221     	MOV	B, PPM_THROTTLE_GAIN	; A has difference, B has gain
10DA    A4            7222     	MUL	AB
10DB    C3            7223     	CLR	C
10DC    E5F0          7224     	MOV	A, B
10DE    947D          7225     	SUBB	A, #125
10E0    40F2          7226     	JC	TEST_THROTTLE_GAIN
10E2    22            7227     	RET
                      7228     
                      7229     
                      7230     ;**** **** **** **** **** **** **** **** **** **** **** **** ****
                      7231     ;
                      7232     ; Average throttle 
                      7233     ;
                      7234     ; Outputs result in Temp3
                      7235     ;
                      7236     ; Averages throttle calibration readings
                      7237     ;
                      7238     ;**** **** **** **** **** **** **** **** **** **** **** **** ****
                      7239     AVERAGE_THROTTLE: 
10E3    D27F          7240     SETB FLAGS3 . 7 
10E5    11AC          7241     	CALL	FIND_THROTTLE_GAIN	; Set throttle gain
10E7    120630        7242     	CALL WAIT30MS		
10EA    7A00          7243     MOV R2 , # 0 
10EC    7B00          7244     MOV R3 , # 0 
10EE    7C10          7245     MOV R4 , # 16 
                      7246     AVERAGE_THROTTLE_MEAS: 
10F0    120626        7247     	CALL	WAIT3MS			; Wait for new RC pulse value
10F3    E55C          7248     	MOV	A, NEW_RCP		; Get new RC pulse value
10F5    2A            7249     ADD A , R2 
10F6    FA            7250     MOV R2 , A 
10F7    7400          7251     	MOV	A, #0
10F9    3B            7252     ADDC A , R3 
10FA    FB            7253     MOV R3 , A 
10FB    DCF3          7254     DJNZ R4 , AVERAGE_THROTTLE_MEAS 
                      7255     
10FD    7C04          7256     MOV R4 , # 4 
                      7257     AVERAGE_THROTTLE_DIV: 
10FF    C3            7258     	CLR	C
1100    EB            7259     MOV A , R3 
1101    13            7260     	RRC	A      
1102    FB            7261     MOV R3 , A 
1103    EA            7262     MOV A , R2 
1104    13            7263     	RRC	A      
1105    FA            7264     MOV R2 , A 
1106    DCF7          7265     DJNZ R4 , AVERAGE_THROTTLE_DIV 
                      7266     
1108    FE            7267     MOV R6 , A 
1109    C27F          7268     CLR FLAGS3 . 7 
110B    11AC          7269     	CALL	FIND_THROTTLE_GAIN	; Set throttle gain
110D    22            7270     	RET
                      7271     
                      7272     
                      7273     
                      7274     
                      7275     ;**** **** **** **** **** **** **** **** **** **** **** **** ****
                      7276     ;**** **** **** **** **** **** **** **** **** **** **** **** ****
                      7277     ;**** **** **** **** **** **** **** **** **** **** **** **** ****
                      7278     ;
                      7279     ; Main program start
                      7280     ;
                      7281     ;**** **** **** **** **** **** **** **** **** **** **** **** ****
                      7282     ;**** **** **** **** **** **** **** **** **** **** **** **** ****
                      7283     ;**** **** **** **** **** **** **** **** **** **** **** **** ****
                      7284     PGM_START: 
                      7285     	; Check flash lock byte
110E    E5EF          7286     	MOV	A, RSTSRC			
1110    20E603        7287     	JB	ACC.6, ($+6)		; Check if flash access error was reset source 
                      7288     
1113    752000        7289     	MOV	BIT_ACCESS, #0		; No - then this is the first try
                      7290     
1116    0520          7291     	INC	BIT_ACCESS
1118    903FFF        7292     MOV DPTR , # 16383 
111B    E520          7293     	MOV	A, BIT_ACCESS
111D    14            7294     	DEC	A
111E    6006          7295     	JZ	LOCK_BYTE_TEST
                      7296     
1120    901FFF        7297     MOV DPTR , # 8191 
1123    14            7298     	DEC	A
1124    6000          7299     	JZ	LOCK_BYTE_TEST
                      7300     
                      7301     LOCK_BYTE_TEST: 
1126    93            7302     	MOVC A, @A+DPTR		; Read lock byte
1127    04            7303     	INC	A				
1128    6003          7304     	JZ	LOCK_BYTE_OK		; If lock byte is 0xFF, then start code execution
                      7305     
                      7306     IF ONE_S_CAPABLE == 0		
112A    75EF12        7307     	MOV	RSTSRC, #12H		; Generate hardware reset and set VDD monitor
                      7308     ELSE
                               	MOV	RSTSRC, #10H		; Generate hardware reset and disable VDD monitor
                               ENDIF
                      7311     
                      7312     LOCK_BYTE_OK: 
                      7313     	; Disable the WDT.
                      7314     IF SIGNATURE_001 == 0F3H		
112D    53D9BF        7315     	ANL	PCA0MD, #NOT(40H)	; Clear watchdog enable bit
                      7316     ENDIF
                      7317     IF SIGNATURE_001 == 0F8H		
                               	MOV	WDTCN, #0DEH		; Disable watchdog
                               	MOV	WDTCN, #0ADH		
                               ENDIF
                      7321     	; Initialize stack
1130    7581C0        7322     	MOV	SP, #0C0H			; Stack = 64 upper bytes of RAM
                      7323     	; Initialize VDD monitor
1133    43FF80        7324     	ORL	VDM0CN, #080H    	; Enable the VDD monitor
1136    120621        7325     	CALL	WAIT1MS			; Wait at least 100us
                      7326     IF ONE_S_CAPABLE == 0		
1139    75EF02        7327     	MOV 	RSTSRC, #02H   	; Set VDD monitor as a reset source (PORSF) if not 1S capable                                
                      7328     ELSE
                               	MOV 	RSTSRC, #00H   	; Do not set VDD monitor as a reset source for 1S ESCSs, in order to avoid resets due to it                              
                               ENDIF
                      7331     	; Set clock frequency
                      7332     IF SIGNATURE_001 == 0F3H		
113C    43B203        7333     	ORL	OSCICN, #03H		; Set clock divider to 1 (not supported on 'f850)
                      7334     ENDIF
                      7335     IF SIGNATURE_001 == 0F8H		
                               	MOV	CLKSEL, #00H		; Set clock divider to 1 (not supported on 'f3xx)
                               ENDIF
113F    E5B3          7338     	MOV	A, OSCICL				
1141    2404          7339     	ADD	A, #04H			; 24.5MHz to 24MHz (~0.5% per step)
1143    20E70D        7340     	JB	ACC.7, RESET_CAL_DONE	; Is carry (7bit) set? - branch
                      7341     
1146    F521          7342     	MOV	BIT_ACCESS_INT, A
                      7343     IF SIGNATURE_002 <> 010H		
1148    E5E3          7344     	MOV	A, OSCLCN
                      7345     ELSE
                               	MOV	A, OSCXCN
                               ENDIF
114A    20E006        7348     	JB	ACC.0, RESET_CAL_DONE	; Set if cal aleady done
                      7349     
114D    8521B3        7350     	MOV	OSCICL, BIT_ACCESS_INT
                      7351     IF SIGNATURE_002 <> 010H		
1150    43E301        7352     	ORL	OSCLCN, #01H			; Tag that cal is done
                      7353     ELSE
                               	ORL	OSCXCN, #01H			; Tag that cal is done
                               ENDIF
                      7356     
                      7357     RESET_CAL_DONE: 
                      7358     	; Switch power off
1153    120FAA        7359     	CALL	SWITCH_POWER_OFF
                      7360     	; Ports initialization
1156    7580FF        7361     MOV P0 , # 255 
1159    75A400        7362     MOV P0MDOUT , # 0 
115C    75F1F0        7363     MOV P0MDIN , # -16 
115F    75D4DF        7364     MOV P0SKIP , # -33 
1162    759002        7365     MOV P1 , # 2 
1165    75A5FC        7366     MOV P1MDOUT , # 252 
1168    75F2FD        7367     MOV P1MDIN , # -3 
116B    75D502        7368     MOV P1SKIP , # 2 
                      7369     IF PORT3_EXIST == 1
                               	MOV	P2, #P2_INIT				
                               ENDIF
116E    75A610        7372     MOV P2MDOUT , # 16 
                      7373     IF PORT3_EXIST == 1
                               	MOV	P2MDIN, #P2_DIGITAL				
                               	MOV	P2SKIP, #P2_SKIP				
                               	MOV	P3, #P3_INIT				
                               	MOV	P3MDOUT, #P3_PUSHPULL				
                               	MOV	P3MDIN, #P3_DIGITAL				
                               ENDIF
                      7380     	; Initialize the XBAR and related functionality
                      7381     	INITIALIZE_XBAR
1171    75A0FF        7381+1   MOV P2 , # 255  ; DO PORT 2 INITIALIZATION HERE			
1174    75F3F1        7381+1   MOV P2MDIN , # -15 
1177    75E241        7381+1   MOV XBR1 , # 41H  ; XBAR ENABLED, CEX0 ROUTED TO PIN RCP_IN			
                      7382     	; Clear RAM
117A    E4            7383     	CLR	A				; Clear accumulator
117B    F8            7384     MOV R0 , A 
                      7385     CLEAR_RAM: 	
117C    F6            7386     MOV @ R0 , A 
117D    D8FD          7387     DJNZ R0 , CLEAR_RAM 
                      7388     	; Initialize LFSR
117F    756801        7389     	MOV	RANDOM, #1
                      7390     	; Set default programmed parameters
1182    120FBF        7391     	CALL	SET_DEFAULT_PARAMETERS
                      7392     	; Read all programmed parameters
1185    1216B1        7393     	CALL READ_ALL_EEPROM_PARAMETERS
                      7394     	; Set beep strength
1188    7898          7395     MOV R0 , # PGM_BEEP_STRENGTH 
118A    8673          7396     MOV BEEP_STRENGTH , @ R0 
                      7397     	; Set initial arm variable
118C    753001        7398     	MOV	INITIAL_ARM, #1
                      7399     	; Initializing beep
118F    C2AF          7400     	CLR	EA				; Disable interrupts explicitly
1191    12063A        7401     	CALL WAIT200MS	
1194    12064A        7402     	CALL BEEP_F1
1197    120630        7403     	CALL WAIT30MS
119A    120651        7404     	CALL BEEP_F2
119D    120630        7405     	CALL WAIT30MS
11A0    120658        7406     	CALL BEEP_F3
11A3    120630        7407     	CALL WAIT30MS
                      7408     IF MODE <= 1	; Main or tail
                               	; Wait for receiver to initialize
                               	CALL	WAIT1S
                               	CALL	WAIT200MS
                               	CALL	WAIT200MS
                               	CALL	WAIT100MS
                               ENDIF
                      7415     
                      7416     ;**** **** **** **** **** **** **** **** **** **** **** **** ****
                      7417     ;
                      7418     ; No signal entry point
                      7419     ;
                      7420     ;**** **** **** **** **** **** **** **** **** **** **** **** ****
                      7421     INIT_NO_SIGNAL: 
                      7422     	; Disable interrupts explicitly
11A6    C2AF          7423     	CLR	EA				
                      7424     	; Check if input signal is high for more than 15ms
11A8    78FA          7425     MOV R0 , # 250 
                      7426     INPUT_HIGH_CHECK_1: 
11AA    79FA          7427     MOV R1 , # 250 
                      7428     INPUT_HIGH_CHECK_2: 
11AC    308507        7429     JNB 128 . 5 , BOOTLOADER_DONE 
11AF    D9FB          7430     DJNZ R1 , INPUT_HIGH_CHECK_2 
11B1    D8F7          7431     DJNZ R0 , INPUT_HIGH_CHECK_1 
                      7432     
11B3    021C00        7433     	LJMP	1C00H			; Jump to bootloader
                      7434     
                      7435     BOOTLOADER_DONE: 
                      7436     	; Decode parameters
11B6    1128          7437     	CALL	DECODE_PARAMETERS
                      7438     	; Decode settings
11B8    1161          7439     	CALL	DECODE_SETTINGS
                      7440     	; Set BEC voltage
11BA    11AB          7441     	CALL	SET_BEC_VOLTAGE
                      7442     	; Find throttle gain from stored min and max settings
11BC    11AC          7443     	CALL	FIND_THROTTLE_GAIN
                      7444     	; Set beep strength
11BE    7898          7445     MOV R0 , # PGM_BEEP_STRENGTH 
11C0    8673          7446     MOV BEEP_STRENGTH , @ R0 
                      7447     	; Switch power off
11C2    120FAA        7448     	CALL	SWITCH_POWER_OFF
                      7449     	; Set clock frequency
                      7450     IF MCU_48MHZ == 1
                      7451     	SET_MCU_CLK_24MHZ
11C5    75B680        7451+1   MOV FLSCL , # 80H  ; SET FLASH TIMING FOR 24MHZ
11C8    75A900        7451+1   MOV CLKSEL , # 0  ; SET CLOCK TO 24MHZ
11CB    757A00        7451+1   MOV CLOCK_SET_AT_48MHZ , # 0 
                      7452     ENDIF
                      7453     	; Timer control
11CE    758850        7454     	MOV	TCON, #50H		; Timer0 and timer1 enabled
                      7455     	; Timer mode
11D1    758912        7456     	MOV	TMOD, #12H		; Timer0 as 8bit, timer1 as 16bit
                      7457     	; Timer2: clk/12 for 128us and 32ms interrupts
11D4    75C824        7458     	MOV	TMR2CN, #24H		; Timer2 enabled, low counter interrups enabled 
                      7459     	; Timer3: clk/12 for commutation timing
11D7    759104        7460     	MOV	TMR3CN, #04H		; Timer3 enabled
                      7461     	; PCA
11DA    75D840        7462     	MOV	PCA0CN, #40H		; PCA enabled
                      7463     	; Enable interrupts
11DD    75A822        7464     	MOV	IE, #22H			; Enable timer0 and timer2 interrupts
11E0    75B802        7465     	MOV	IP, #02H			; High priority to timer0 interrupts
11E3    75E690        7466     	MOV	EIE1, #90H		; Enable timer3 and PCA0 interrupts
                      7467     	; Initialize comparator
11E6    759B80        7468     	MOV	CPT0CN, #80H		; Comparator enabled, no hysteresis
11E9    759D00        7469     	MOV	CPT0MD, #00H		; Comparator response time 100ns
                      7470     IF COMP1_USED == 1			
                               	MOV	CPT1CN, #80H		; Comparator enabled, no hysteresis
                               	MOV	CPT1MD, #00H		; Comparator response time 100ns
                               ENDIF
                      7474     	; Initialize ADC
                      7475     	INITIALIZE_ADC			; Initialize ADC operation
11EC    75D10E        7475+1   MOV REF0CN , # 0EH  ; SET VDD (3.3V) AS REFERENCE. ENABLE TEMP SENSOR AND BIAS
                      7475+1   IF MCU_50MHZ ==0 
11EF    75BC58        7475+1   MOV ADC0CF , # 58H  ; ADC CLOCK 2MHZ
                      7475+1   ELSE 
                               MOV ADC0CF , # 0C0H  ; ADC CLOCK 2MHZ
                               ENDIF 
11F2    75BB09        7475+1   MOV AMX0P , # ( 8+ADC_IP )  ; SELECT POSITIVE INPUT
11F5    75BA11        7475+1   MOV AMX0N , # 11H  ; SELECT NEGATIVE INPUT AS GROUND
11F8    75E880        7475+1   MOV ADC0CN , # 80H  ; ADC ENABLED
11FB    120621        7476     	CALL	WAIT1MS
11FE    D2AF          7477     	SETB	EA				; Enable all interrupts
                      7478     	; Measure number of lipo cells
1200    120930        7479     	CALL MEASURE_LIPO_CELLS			; Measure number of lipo cells
                      7480     	; Initialize RC pulse
                      7481     	RCP_INT_FIRST 					; Enable interrupt and set to first edge
1203    53DACF        7481+1   ANL PCA0CPM0 , # 0CFH 
1206    207E03        7481+1   JB FLAGS3 . 6 , ( $+6 )  ; IS PWM POLARITY POSITIVE?
1209    43DA20        7481+1   ORL PCA0CPM0 , # 20H  ; CAPTURE RISING EDGE
120C    307E03        7481+1   JNB FLAGS3 . 6 , ( $+6 )  ; IS PWM POLARITY NEGATIVE?
120F    43DA10        7481+1   ORL PCA0CPM0 , # 10H  ; CAPTURE FALLING EDGE
                      7482     	RCP_INT_ENABLE		 			; Enable interrupt
1212    43DA01        7482+1   ORL PCA0CPM0 , # 01H  ; INTERRUPT ENABLED
                      7483     	RCP_CLEAR_INT_FLAG 				; Clear interrupt flag
1215    C2D8          7483+1   CLR CCF0  ; CLEAR INTERRUPT FLAG
1217    C271          7484     CLR FLAGS2 . 1 
1219    12063A        7485     	CALL WAIT200MS
                      7486     
                      7487     	; Measure PWM frequency
                      7488     MEASURE_PWM_FREQ_INIT: 	
121C    D261          7489     SETB FLAGS0 . 1 
121E    7B03          7490     MOV R3 , # 3 
                      7491     MEASURE_PWM_FREQ_START: 	
1220    7A0C          7492     MOV R2 , # 12 
                      7493     MEASURE_PWM_FREQ_LOOP: 	
                      7494     	; Check if period diff was accepted
1222    E55B          7495     	MOV	A, RCP_PERIOD_DIFF_ACCEPTED
1224    7007          7496     	JNZ	MEASURE_PWM_FREQ_WAIT
                      7497     
1226    7A0C          7498     MOV R2 , # 12 
1228    DB03          7499     DJNZ R3 , ( $+5 ) 
122A    0211A6        7500     	LJMP	INIT_NO_SIGNAL					; Go back to detect input signal
                      7501     
                      7502     MEASURE_PWM_FREQ_WAIT: 
122D    120630        7503     	CALL	WAIT30MS						; Wait 30ms for new pulse
1230    207003        7504     JB FLAGS2 . 0 , ( $+6 ) 
1233    0211A6        7505     	LJMP	INIT_NO_SIGNAL					; Go back to detect input signal
                      7506     
1236    C270          7507     CLR FLAGS2 . 0 
1238    E55C          7508     	MOV	A, NEW_RCP					; Load value
123A    C3            7509     	CLR	C
123B    9402          7510     SUBB A , # 2 
123D    40E1          7511     	JC	MEASURE_PWM_FREQ_START			; No - start over
                      7512     
123F    E52F          7513     	MOV	A, FLAGS3						; Check pwm frequency flags
1241    541F          7514     	ANL	A, #((1 SHL RCP_PWM_FREQ_1KHZ)+(1 SHL RCP_PWM_FREQ_2KHZ)+(1 SHL RCP_PWM_FREQ_4KHZ)+(1 SHL RCP_PWM_FREQ_8KHZ)+(1 SHL RCP_PWM_FREQ_12KHZ))
1243    855E5D        7515     	MOV	PREV_RCP_PWM_FREQ, CURR_RCP_PWM_FREQ		; Store as previous flags for next pulse 
1246    F55E          7516     	MOV	CURR_RCP_PWM_FREQ, A					; Store current flags for next pulse 
1248    B55DD5        7517     	CJNE	A, PREV_RCP_PWM_FREQ, MEASURE_PWM_FREQ_START	; Go back if new flags not same as previous
                      7518     
124B    DAD5          7519     DJNZ R2 , MEASURE_PWM_FREQ_LOOP 
                      7520     
                      7521     	; Clear measure pwm frequency flag
124D    C261          7522     CLR FLAGS0 . 1 
                      7523     	; Set up RC pulse interrupts after pwm frequency measurement
                      7524     	RCP_INT_FIRST 						; Enable interrupt and set to first edge
124F    53DACF        7524+1   ANL PCA0CPM0 , # 0CFH 
1252    207E03        7524+1   JB FLAGS3 . 6 , ( $+6 )  ; IS PWM POLARITY POSITIVE?
1255    43DA20        7524+1   ORL PCA0CPM0 , # 20H  ; CAPTURE RISING EDGE
1258    307E03        7524+1   JNB FLAGS3 . 6 , ( $+6 )  ; IS PWM POLARITY NEGATIVE?
125B    43DA10        7524+1   ORL PCA0CPM0 , # 10H  ; CAPTURE FALLING EDGE
                      7525     	RCP_CLEAR_INT_FLAG 					; Clear interrupt flag
125E    C2D8          7525+1   CLR CCF0  ; CLEAR INTERRUPT FLAG
1260    C271          7526     CLR FLAGS2 . 1 
1262    78A2          7527     MOV R0 , # PGM_ENABLE_PWM_INPUT 
1264    E6            7528     MOV A , @ R0 
1265    7008          7529     	JNZ	TEST_FOR_ONESHOT				; If it is - proceed
                      7530     
1267    D274          7531     SETB FLAGS2 . 4 
1269    E52F          7532     	MOV	A, FLAGS3						; Clear pwm frequency flags
126B    54E0          7533     	ANL	A, #NOT((1 SHL RCP_PWM_FREQ_1KHZ)+(1 SHL RCP_PWM_FREQ_2KHZ)+(1 SHL RCP_PWM_FREQ_4KHZ)+(1 SHL RCP_PWM_FREQ_8KHZ)+(1 SHL RCP_PWM_FREQ_12KHZ))
126D    F52F          7534     	MOV	FLAGS3, A
                      7535     
                      7536     TEST_FOR_ONESHOT: 	
                      7537     	; Test whether signal is OneShot125
126F    C275          7538     CLR FLAGS2 . 5 
1271    752900        7539     	MOV	RCP_OUTSIDE_RANGE_CNT, #0		; Reset out of range counter
1274    120635        7540     	CALL WAIT100MS						; Wait for new RC pulse
1277    307409        7541     JNB FLAGS2 . 4 , VALIDATE_RCP_START 
                      7542     
127A    C3            7543     	CLR	C
127B    E529          7544     	MOV	A, RCP_OUTSIDE_RANGE_CNT			; Check how many pulses were outside normal PPM range (800-2160us)
127D    940A          7545     	SUBB	A, #10						
127F    4002          7546     	JC	VALIDATE_RCP_START
                      7547     
1281    D275          7548     SETB FLAGS2 . 5 
                      7549     
                      7550     	; Validate RC pulse
                      7551     VALIDATE_RCP_START: 	
1283    120626        7552     	CALL WAIT3MS						; Wait for next pulse (NB: Uses Temp1/2!) 
1286    7802          7553     MOV R0 , # 2 
1288    307402        7554     JNB FLAGS2 . 4 , ( $+5 ) 
                      7555     
128B    7800          7556     MOV R0 , # 0 
                      7557     
128D    C3            7558     	CLR	C
128E    E55C          7559     	MOV	A, NEW_RCP					; Load value
1290    98            7560     SUBB A , R0 
1291    40F0          7561     	JC	VALIDATE_RCP_START				; No - start over
                      7562     
                      7563     	; Beep arm sequence start signal
1293    C2AF          7564     	CLR 	EA							; Disable all interrupts
1295    12064A        7565     	CALL BEEP_F1						; Signal that RC pulse is ready
1298    12064A        7566     	CALL BEEP_F1
129B    12064A        7567     	CALL BEEP_F1
129E    D2AF          7568     	SETB	EA							; Enable all interrupts
12A0    12063A        7569     	CALL WAIT200MS	
                      7570     
                      7571     	; Arming sequence start
12A3    754A00        7572     	MOV	GOV_ARM_TARGET, #0		; Clear governor arm target
                      7573     ARMING_START: 
                      7574     IF MODE >= 1	; Tail or multi
12A6    7888          7575     MOV R0 , # PGM_DIRECTION 
12A8    E6            7576     MOV A , @ R0 
12A9    B40302        7577     	CJNE	A, #3, ($+5)
                      7578     
12AC    6182          7579     	AJMP	PROGRAM_BY_TX_CHECKED	; Disable tx programming if bidirectional operation
                      7580     ENDIF
                      7581     
12AE    120626        7582     	CALL WAIT3MS
12B1    788C          7583     MOV R0 , # PGM_ENABLE_TX_PROGRAM 
12B3    E6            7584     MOV A , @ R0 
12B4    C3            7585     	CLR	C
12B5    9401          7586     	SUBB	A, #1				; Is TX programming enabled?
12B7    5003          7587     	JNC 	ARMING_INITIAL_ARM_CHECK	; Yes - proceed
                      7588     
12B9    021382        7589     	JMP	PROGRAM_BY_TX_CHECKED	; No - branch
                      7590     
                      7591     ARMING_INITIAL_ARM_CHECK: 
12BC    E530          7592     	MOV	A, INITIAL_ARM			; Yes - check if it is initial arm sequence
12BE    C3            7593     	CLR	C
12BF    9401          7594     	SUBB	A, #1				; Is it the initial arm sequence?
12C1    5003          7595     	JNC 	ARMING_PPM_CHECK		; Yes - proceed
                      7596     
12C3    021382        7597     	JMP 	PROGRAM_BY_TX_CHECKED	; No - branch
                      7598     
                      7599     ARMING_PPM_CHECK: 
12C6    207435        7600     JB FLAGS2 . 4 , THROTTLE_HIGH_CAL_START 
                      7601     
                      7602     	; PWM tx program entry
12C9    C3            7603     	CLR	C
12CA    E55C          7604     	MOV	A, NEW_RCP			; Load new RC pulse value
12CC    94FF          7605     SUBB A , # 255 
12CE    5003          7606     	JNC	PROGRAM_BY_TX_ENTRY_PWM	; Yes - proceed
                      7607     
12D0    021382        7608     	JMP	PROGRAM_BY_TX_CHECKED	; No - branch
                      7609     
                      7610     PROGRAM_BY_TX_ENTRY_PWM: 	
12D3    C2AF          7611     	CLR	EA					; Disable all interrupts
12D5    12065F        7612     	CALL BEEP_F4
12D8    D2AF          7613     	SETB	EA					; Enable all interrupts
12DA    120635        7614     	CALL WAIT100MS
12DD    C3            7615     	CLR	C
12DE    E55C          7616     	MOV	A, NEW_RCP			; Load new RC pulse value
12E0    9401          7617     SUBB A , # 1 
12E2    50EF          7618     	JNC	PROGRAM_BY_TX_ENTRY_PWM	; No - start over
                      7619     
                      7620     PROGRAM_BY_TX_ENTRY_WAIT_PWM: 	
12E4    C2AF          7621     	CLR	EA					; Disable all interrupts
12E6    12064A        7622     	CALL BEEP_F1
12E9    12062B        7623     	CALL WAIT10MS
12EC    12064A        7624     	CALL BEEP_F1
12EF    D2AF          7625     	SETB	EA					; Enable all interrupts
12F1    120635        7626     	CALL WAIT100MS
12F4    C3            7627     	CLR	C
12F5    E55C          7628     	MOV	A, NEW_RCP			; Load new RC pulse value
12F7    94FF          7629     SUBB A , # 255 
12F9    40E9          7630     	JC	PROGRAM_BY_TX_ENTRY_WAIT_PWM	; No - start over
                      7631     
12FB    021859        7632     	JMP	PROGRAM_BY_TX			; Yes - enter programming mode
                      7633     
                      7634     	; PPM throttle calibration and tx program entry
                      7635     THROTTLE_HIGH_CAL_START: 
                      7636     IF MODE <= 1	; Main or tail
                               	MOV	TEMP8, #5				; Set 3 seconds wait time
                               ELSE
12FE    7F02          7639     MOV R7 , # 2 
                      7640     ENDIF
                      7641     THROTTLE_HIGH_CAL: 			
1300    D27F          7642     SETB FLAGS3 . 7 
1302    11AC          7643     	CALL	FIND_THROTTLE_GAIN		; Set throttle gain
1304    120635        7644     	CALL WAIT100MS				; Wait for new throttle value
1307    C2AF          7645     	CLR	EA					; Disable interrupts (freeze New_Rcp value)
1309    C27F          7646     CLR FLAGS3 . 7 
130B    11AC          7647     	CALL	FIND_THROTTLE_GAIN		; Set throttle gain
130D    AE5C          7648     MOV R6 , NEW_RCP 
130F    C3            7649     	CLR	C
1310    E55C          7650     	MOV	A, NEW_RCP			; Load new RC pulse value
1312    947F          7651     	SUBB	A, #(RCP_MAX/2)		; Is RC pulse above midstick?
1314    D2AF          7652     	SETB	EA					; Enable interrupts
1316    4074          7653     	JC	ARM_TARGET_UPDATED		; No - branch
                      7654     
1318    120621        7655     	CALL WAIT1MS		
131B    C2AF          7656     	CLR	EA					; Disable all interrupts
131D    12065F        7657     	CALL BEEP_F4
1320    D2AF          7658     	SETB	EA					; Enable all interrupts
1322    DFDC          7659     DJNZ R7 , THROTTLE_HIGH_CAL 
                      7660     
1324    11E3          7661     	CALL	AVERAGE_THROTTLE
1326    C3            7662     	CLR	C
1327    EE            7663     MOV A , R6 
1328    9405          7664     	SUBB	A, #5				; Subtract about 2% and ensure that it is 250 or lower
132A    7897          7665     MOV R0 , # PGM_PPM_MAX_THROTTLE 
132C    F6            7666     MOV @ R0 , A 
132D    12063A        7667     	CALL WAIT200MS				
1330    1216F3        7668     	CALL ERASE_AND_STORE_ALL_IN_EEPROM	
1333    1217DC        7669     	CALL	SUCCESS_BEEP
                      7670     
                      7671     THROTTLE_LOW_CAL_START: 
1336    7F0A          7672     MOV R7 , # 10 
                      7673     THROTTLE_LOW_CAL: 			
1338    D27F          7674     SETB FLAGS3 . 7 
133A    11AC          7675     	CALL	FIND_THROTTLE_GAIN		; Set throttle gain
133C    120635        7676     	CALL WAIT100MS
133F    C2AF          7677     	CLR	EA					; Disable interrupts (freeze New_Rcp value)
1341    C27F          7678     CLR FLAGS3 . 7 
1343    11AC          7679     	CALL	FIND_THROTTLE_GAIN		; Set throttle gain
1345    AE5C          7680     MOV R6 , NEW_RCP 
1347    C3            7681     	CLR	C
1348    E55C          7682     	MOV	A, NEW_RCP			; Load new RC pulse value
134A    947F          7683     	SUBB	A, #(RCP_MAX/2)		; Below midstick?
134C    D2AF          7684     	SETB	EA					; Enable interrupts
134E    50E6          7685     	JNC	THROTTLE_LOW_CAL_START	; No - start over
                      7686     
1350    120621        7687     	CALL WAIT1MS		
1353    C2AF          7688     	CLR	EA					; Disable all interrupts
1355    12064A        7689     	CALL BEEP_F1
1358    12062B        7690     	CALL WAIT10MS
135B    12064A        7691     	CALL BEEP_F1
135E    D2AF          7692     	SETB	EA					; Enable all interrupts
1360    DFD6          7693     DJNZ R7 , THROTTLE_LOW_CAL 
                      7694     
1362    11E3          7695     	CALL	AVERAGE_THROTTLE
1364    EE            7696     MOV A , R6 
1365    2405          7697     	ADD	A, #5				; Add about 2%
1367    7896          7698     MOV R0 , # PGM_PPM_MIN_THROTTLE 
1369    F6            7699     MOV @ R0 , A 
136A    12063A        7700     	CALL WAIT200MS				
136D    1216F3        7701     	CALL ERASE_AND_STORE_ALL_IN_EEPROM	
1370    12180B        7702     	CALL	SUCCESS_BEEP_INVERTED
                      7703     
                      7704     PROGRAM_BY_TX_ENTRY_WAIT_PPM: 	
1373    120635        7705     	CALL WAIT100MS
1376    11AC          7706     	CALL	FIND_THROTTLE_GAIN		; Set throttle gain
1378    C3            7707     	CLR	C
1379    E55C          7708     	MOV	A, NEW_RCP			; Load new RC pulse value
137B    94FF          7709     SUBB A , # 255 
137D    40F4          7710     	JC	PROGRAM_BY_TX_ENTRY_WAIT_PPM	; No - start over
                      7711     
137F    021859        7712     	JMP	PROGRAM_BY_TX			; Yes - enter programming mode
                      7713     
                      7714     PROGRAM_BY_TX_CHECKED: 
1382    C3            7715     	CLR	C
1383    E55C          7716     	MOV	A, NEW_RCP			; Load new RC pulse value
1385    954A          7717     	SUBB	A, GOV_ARM_TARGET		; Is RC pulse larger than arm target?
1387    4003          7718     	JC	ARM_TARGET_UPDATED		; No - do not update
                      7719     
1389    855C4A        7720     	MOV	GOV_ARM_TARGET, NEW_RCP	; Yes - update arm target
                      7721     
                      7722     ARM_TARGET_UPDATED: 
138C    120635        7723     	CALL WAIT100MS				; Wait for new throttle value
138F    7801          7724     MOV R0 , # 1 
1391    7988          7725     MOV R1 , # PGM_DIRECTION 
1393    E7            7726     MOV A , @ R1 
1394    B40302        7727     	CJNE	A, #3, ($+5)			; No - branch
                      7728     
1397    7805          7729     MOV R0 , # ( RCP_STOP+4 ) 
                      7730     
1399    C3            7731     	CLR	C
139A    E55C          7732     	MOV	A, NEW_RCP			; Load new RC pulse value
139C    98            7733     SUBB A , R0 
139D    4002          7734     	JC	ARM_END_BEEP			; Yes - proceed
                      7735     
139F    41A6          7736     	JMP	ARMING_START			; No - start over
                      7737     
                      7738     ARM_END_BEEP: 
                      7739     	; Beep arm sequence end signal
13A1    C2AF          7740     	CLR 	EA					; Disable all interrupts
13A3    12065F        7741     	CALL BEEP_F4				; Signal that rcpulse is ready
13A6    12065F        7742     	CALL BEEP_F4
13A9    12065F        7743     	CALL BEEP_F4
13AC    D2AF          7744     	SETB	EA					; Enable all interrupts
13AE    12063A        7745     	CALL WAIT200MS
                      7746     
                      7747     	; Clear initial arm variable
13B1    753000        7748     	MOV	INITIAL_ARM, #0
                      7749     
                      7750     	; Armed and waiting for power on
                      7751     WAIT_FOR_POWER_ON: 
13B4    E4            7752     	CLR	A
13B5    F531          7753     	MOV	POWER_ON_WAIT_CNT_L, A	; Clear wait counter
13B7    F532          7754     	MOV	POWER_ON_WAIT_CNT_H, A	
                      7755     WAIT_FOR_POWER_ON_LOOP: 
13B9    0531          7756     	INC	POWER_ON_WAIT_CNT_L		; Increment low wait counter
13BB    E531          7757     	MOV	A, POWER_ON_WAIT_CNT_L
13BD    F4            7758     	CPL	A
13BE    7039          7759     	JNZ	WAIT_FOR_POWER_ON_NO_BEEP; Counter wrapping (about 1 sec)?
                      7760     
13C0    0532          7761     	INC	POWER_ON_WAIT_CNT_H		; Increment high wait counter
13C2    789A          7762     MOV R0 , # PGM_BEACON_DELAY 
13C4    E6            7763     MOV A , @ R0 
13C5    7819          7764     MOV R0 , # 25 
13C7    14            7765     	DEC	A
13C8    6012          7766     	JZ	BEEP_DELAY_SET
                      7767     
13CA    7832          7768     MOV R0 , # 50 
13CC    14            7769     	DEC	A
13CD    600D          7770     	JZ	BEEP_DELAY_SET
                      7771     
13CF    787D          7772     MOV R0 , # 125 
13D1    14            7773     	DEC	A
13D2    6008          7774     	JZ	BEEP_DELAY_SET
                      7775     
13D4    78FA          7776     MOV R0 , # 250 
13D6    14            7777     	DEC	A
13D7    6003          7778     	JZ	BEEP_DELAY_SET
                      7779     
13D9    753200        7780     	MOV	POWER_ON_WAIT_CNT_H, #0		; Reset counter for infinite delay
                      7781     
                      7782     BEEP_DELAY_SET: 
13DC    C3            7783     	CLR	C
13DD    E532          7784     	MOV	A, POWER_ON_WAIT_CNT_H
13DF    98            7785     SUBB A , R0 
13E0    4017          7786     	JC	WAIT_FOR_POWER_ON_NO_BEEP; Has delay elapsed?
                      7787     
13E2    1532          7788     	DEC	POWER_ON_WAIT_CNT_H		; Decrement high wait counter
13E4    7531B4        7789     	MOV	POWER_ON_WAIT_CNT_L, #180; Set low wait counter
13E7    7899          7790     MOV R0 , # PGM_BEACON_STRENGTH 
13E9    8673          7791     MOV BEEP_STRENGTH , @ R0 
13EB    C2AF          7792     	CLR 	EA					; Disable all interrupts
13ED    12065F        7793     	CALL BEEP_F4				; Signal that there is no signal
13F0    D2AF          7794     	SETB	EA					; Enable all interrupts
13F2    7898          7795     MOV R0 , # PGM_BEEP_STRENGTH 
13F4    8673          7796     MOV BEEP_STRENGTH , @ R0 
13F6    120635        7797     	CALL WAIT100MS				; Wait for new RC pulse to be measured
                      7798     
                      7799     WAIT_FOR_POWER_ON_NO_BEEP: 
13F9    12062B        7800     	CALL WAIT10MS
13FC    E52A          7801     	MOV	A, RCP_TIMEOUT_CNT				; Load RC pulse timeout counter value
13FE    7005          7802     	JNZ	WAIT_FOR_POWER_ON_PPM_NOT_MISSING	; If it is not zero - proceed
                      7803     
1400    307402        7804     JNB FLAGS2 . 4 , WAIT_FOR_POWER_ON_PPM_NOT_MISSING 
                      7805     
1403    21A6          7806     	JMP	INIT_NO_SIGNAL					; If ppm and pulses missing - go back to detect input signal
                      7807     
                      7808     WAIT_FOR_POWER_ON_PPM_NOT_MISSING: 
1405    7801          7809     MOV R0 , # 1 
1407    207402        7810     JB FLAGS2 . 4 , ( $+5 ) 
                      7811     
140A    7806          7812     MOV R0 , # ( RCP_STOP+5 ) 
                      7813     
140C    C3            7814     	CLR	C
140D    E55C          7815     	MOV	A, NEW_RCP			; Load new RC pulse value
140F    98            7816     SUBB A , R0 
1410    40A7          7817     	JC	WAIT_FOR_POWER_ON_LOOP	; No - start over
                      7818     
                      7819     IF MODE >= 1	; Tail or multi
1412    7888          7820     MOV R0 , # PGM_DIRECTION 
1414    E6            7821     MOV A , @ R0 
1415    C3            7822     	CLR	C
1416    9403          7823     	SUBB	A, #3
1418    6003          7824     	JZ 	WAIT_FOR_POWER_ON_CHECK_TIMEOUT	; Do not wait if bidirectional operation
                      7825     ENDIF
                      7826     
141A    120635        7827     	LCALL WAIT100MS			; Wait to see if start pulse was only a glitch
                      7828     
                      7829     WAIT_FOR_POWER_ON_CHECK_TIMEOUT: 
141D    E52A          7830     	MOV	A, RCP_TIMEOUT_CNT		; Load RC pulse timeout counter value
141F    7003          7831     	JNZ	($+5)				; If it is not zero - proceed
                      7832     
1421    0211A6        7833     	LJMP	INIT_NO_SIGNAL			; If it is zero (pulses missing) - go back to detect input signal
                      7834     
                      7835     
                      7836     ;**** **** **** **** **** **** **** **** **** **** **** **** ****
                      7837     ;
                      7838     ; Start entry point
                      7839     ;
                      7840     ;**** **** **** **** **** **** **** **** **** **** **** **** ****
                      7841     INIT_START: 
1424    C2AF          7842     	CLR	EA
1426    120FAA        7843     	CALL SWITCH_POWER_OFF
1429    E4            7844     	CLR	A
142A    F522          7845     	MOV	REQUESTED_PWM, A		; Set requested pwm to zero
142C    F523          7846     	MOV	GOVERNOR_REQ_PWM, A		; Set governor requested pwm to zero
142E    F524          7847     	MOV	CURRENT_PWM, A			; Set current pwm to zero
1430    F525          7848     	MOV	CURRENT_PWM_LIMITED, A	; Set limited current pwm to zero
1432    F526          7849     	MOV	CURRENT_PWM_LIM_DITH, A
1434    F567          7850     	MOV	PWM_DITHER_EXCESS_POWER, A
1436    D2AF          7851     	SETB	EA
1438    7885          7852     MOV R0 , # PGM_MOTOR_IDLE 
143A    E6            7853     MOV A , @ R0 
143B    C3            7854     	CLR	C
143C    33            7855     	RLC	A
143D    F565          7856     	MOV	PWM_MOTOR_IDLE, A
143F    E4            7857     	CLR	A
1440    F542          7858     	MOV	GOV_TARGET_L, A		; Set target to zero
1442    F543          7859     	MOV	GOV_TARGET_H, A
1444    F544          7860     	MOV	GOV_INTEGRAL_L, A		; Set integral to zero
1446    F545          7861     	MOV	GOV_INTEGRAL_H, A
1448    F546          7862     	MOV	GOV_INTEGRAL_X, A
144A    F570          7863     	MOV	ADC_CONVERSION_CNT, A
144C    F52C          7864     	MOV	FLAGS0, A				; Clear flags0
144E    F52D          7865     	MOV	FLAGS1, A				; Clear flags1
1450    F536          7866     	MOV	DEMAG_DETECTED_METRIC, A	; Clear demag metric
                      7867     	;**** **** **** **** ****
                      7868     	; Motor start beginning
                      7869     	;**** **** **** **** **** 
1452    757008        7870     MOV ADC_CONVERSION_CNT , # 8 
                      7871     	SET_ADC_IP_TEMP
1455    75BB10        7871+1   MOV AMX0P , # 10H  ; SELECT TEMP SENSOR INPUT
1458    120621        7872     	CALL WAIT1MS
145B    120934        7873     	CALL START_ADC_CONVERSION
                      7874     READ_INITIAL_TEMP: 
                      7875     	GET_ADC_STATUS 
145E    E5E8          7875+1   MOV A , ADC0CN 
1460    20ECFB        7876     	JB	AD0BUSY, READ_INITIAL_TEMP
                      7877     	READ_ADC_RESULT						; Read initial temperature
1463    A8BD          7877+1   MOV R0 , ADC0L 
1465    A9BE          7877+1   MOV R1 , ADC0H 
1467    E9            7878     MOV A , R1 
1468    7001          7879     	JNZ	($+3)							; Is reading below 256?
                      7880     
146A    F8            7881     MOV R0 , A 
                      7882     
146B    8871          7883     MOV CURRENT_AVERAGE_TEMP , R0 
146D    120938        7884     	CALL CHECK_TEMP_VOLTAGE_AND_LIMIT_POWER
1470    757008        7885     MOV ADC_CONVERSION_CNT , # 8 
                      7886     	SET_ADC_IP_TEMP
1473    75BB10        7886+1   MOV AMX0P , # 10H  ; SELECT TEMP SENSOR INPUT
                      7887     	; Set up start operating conditions
1476    7887          7888     MOV R0 , # PGM_PWM_FREQ 
1478    E6            7889     MOV A , @ R0 
1479    FE            7890     MOV R6 , A 
147A    7602          7891     MOV @ R0 , # 2 
147C    1128          7892     	CALL	DECODE_PARAMETERS		; (Decode_parameters uses Temp1 and Temp8)
147E    7887          7893     MOV R0 , # PGM_PWM_FREQ 
1480    EE            7894     MOV A , R6 
1481    F6            7895     MOV @ R0 , A 
                      7896     	; Set max allowed power
1482    C2AF          7897     	CLR	EA					; Disable interrupts to avoid that Requested_Pwm is overwritten
1484    7561FF        7898     	MOV	PWM_LIMIT, #0FFH		; Set pwm limit to max
1487    1209D0        7899     	CALL SET_STARTUP_PWM
148A    852261        7900     	MOV	PWM_LIMIT, REQUESTED_PWM
148D    852262        7901     	MOV	PWM_LIMIT_SPOOLUP, REQUESTED_PWM
1490    852263        7902     	MOV	PWM_LIMIT_BY_RPM, REQUESTED_PWM
1493    D2AF          7903     	SETB	EA
1495    752201        7904     	MOV	REQUESTED_PWM, #1			; Set low pwm again after calling set_startup_pwm
1498    752401        7905     	MOV	CURRENT_PWM, #1
149B    752501        7906     	MOV	CURRENT_PWM_LIMITED, #1	
149E    752601        7907     	MOV	CURRENT_PWM_LIM_DITH, #1
14A1    856069        7908     	MOV	SPOOLUP_LIMIT_CNT, AUTO_BAILOUT_ARMED
14A4    756A01        7909     	MOV	SPOOLUP_LIMIT_SKIP, #1			
                      7910     	; Begin startup sequence
                      7911     IF MCU_48MHZ == 1
                      7912     	SET_MCU_CLK_48MHZ
14A7    75B690        7912+1   MOV FLSCL , # 90H  ; SET FLASH TIMING FOR 48MHZ
14AA    75A903        7912+1   MOV CLKSEL , # 3  ; SET CLOCK TO 48MHZ
14AD    757A01        7912+1   MOV CLOCK_SET_AT_48MHZ , # 1 
                      7913     ENDIF
14B0    7888          7914     MOV R0 , # PGM_DIRECTION 
14B2    E6            7915     MOV A , @ R0 
14B3    B40307        7916     	CJNE	A, #3, INIT_START_BIDIR_DONE
                      7917     
14B6    C27D          7918     CLR FLAGS3 . 5 
14B8    307602        7919     JNB FLAGS2 . 6 , ( $+5 ) 
14BB    D27D          7920     SETB FLAGS3 . 5 
                      7921     
                      7922     INIT_START_BIDIR_DONE: 
14BD    D268          7923     SETB FLAGS1 . 0 
14BF    D269          7924     SETB FLAGS1 . 1 
14C1    753300        7925     	MOV	STARTUP_CNT, #0			; Reset counter
14C4    120F10        7926     	CALL COMM5COMM6				; Initialize commutation
14C7    120F35        7927     	CALL COMM6COMM1				
14CA    1209F7        7928     	CALL	CALC_NEXT_COMM_TIMING		; Set virtual commutation point
14CD    1209F7        7929     	CALL	CALC_NEXT_COMM_TIMING		
14D0    1209F0        7930     	CALL INITIALIZE_TIMING			; Initialize timing
14D3    1209F7        7931     	CALL	CALC_NEXT_COMM_TIMING		
14D6    120B54        7932     	CALL CALC_NEW_WAIT_TIMES			; Calculate new wait times
14D9    1209F0        7933     	CALL	INITIALIZE_TIMING			; Initialize timing
14DC    120C17        7934     	CALL	WAIT_BEFORE_ZC_SCAN			; Set up comparator timeout
14DF    0214EE        7935     	JMP	RUN1
                      7936     
                      7937     
                      7938     
                      7939     ;**** **** **** **** **** **** **** **** **** **** **** **** ****
                      7940     ;
                      7941     ; Run entry point
                      7942     ;
                      7943     ;**** **** **** **** **** **** **** **** **** **** **** **** ****
                      7944     DAMPED_TRANSITION: 
                      7945     	; Transition from nondamped to damped if applicable
14E2    C2AF          7946     	CLR	EA
14E4    1128          7947     	CALL	DECODE_PARAMETERS		; Set programmed parameters
14E6    D2AF          7948     	SETB	EA
14E8    757000        7949     	MOV	ADC_CONVERSION_CNT, #0	; Make sure a voltage reading is done next time
                      7950     	SET_ADC_IP_VOLT			; Set adc measurement to voltage
14EB    75BB09        7950+1   MOV AMX0P , # ( 8+ADC_IP )  ; SELECT POSITIVE INPUT
                      7951     
                      7952     ; Run 1 = B(p-on) + C(n-pwm) - comparator A evaluated
                      7953     ; Out_cA changes from low to high
                      7954     RUN1: 
14EE    120C6C        7955     	CALL WAIT_FOR_COMP_OUT_HIGH	; Wait zero cross wait and wait for high
14F1    120D71        7956     	CALL SETUP_COMM_WAIT		; Setup wait time from zero cross to commutation
14F4    120D52        7957     	CALL	EVALUATE_COMPARATOR_INTEGRITY	; Check whether comparator reading has been normal
14F7    12072A        7958     	CALL CALC_GOVERNOR_TARGET	; Calculate governor target
14FA    120D8E        7959     	CALL WAIT_FOR_COMM			; Wait from zero cross to commutation
14FD    120DD8        7960     	CALL COMM1COMM2			; Commutate
1500    1209F7        7961     	CALL CALC_NEXT_COMM_TIMING	; Calculate next timing and start advance timing wait
1503    120B43        7962     	CALL WAIT_ADVANCE_TIMING		; Wait advance timing and start zero cross wait
1506    120B54        7963     	CALL CALC_NEW_WAIT_TIMES
1509    120C17        7964     	CALL WAIT_BEFORE_ZC_SCAN		; Wait zero cross wait and start zero cross timeout
                      7965     
                      7966     ; Run 2 = A(p-on) + C(n-pwm) - comparator B evaluated
                      7967     ; Out_cB changes from high to low
                      7968     RUN2: 
150C    120C5B        7969     	CALL WAIT_FOR_COMP_OUT_LOW
150F    120D71        7970     	CALL SETUP_COMM_WAIT	
1512    120D52        7971     	CALL	EVALUATE_COMPARATOR_INTEGRITY	
1515    306D03        7972     JNB FLAGS1 . 5 , ( $+6 ) 
1518    120786        7973     	LCALL CALC_GOVERNOR_PROP_ERROR
151B    206703        7974     JB FLAGS0 . 7 , ( $+6 ) 
151E    1208D3        7975     	LCALL SET_PWM_LIMIT_LOW_RPM
1521    306703        7976     JNB FLAGS0 . 7 , ( $+6 ) 
1524    12091A        7977     	LCALL SET_PWM_LIMIT_HIGH_RPM
1527    120D8E        7978     	CALL WAIT_FOR_COMM
152A    120DFD        7979     	CALL COMM2COMM3
152D    1209F7        7980     	CALL CALC_NEXT_COMM_TIMING
1530    120B43        7981     	CALL WAIT_ADVANCE_TIMING
1533    120B54        7982     	CALL CALC_NEW_WAIT_TIMES
1536    120C17        7983     	CALL WAIT_BEFORE_ZC_SCAN	
                      7984     
                      7985     ; Run 3 = A(p-on) + B(n-pwm) - comparator C evaluated
                      7986     ; Out_cC changes from low to high
                      7987     RUN3: 
1539    120C6C        7988     	CALL WAIT_FOR_COMP_OUT_HIGH
153C    120D71        7989     	CALL SETUP_COMM_WAIT	
153F    120D52        7990     	CALL	EVALUATE_COMPARATOR_INTEGRITY	
1542    306D03        7991     JNB FLAGS1 . 5 , ( $+6 ) 
1545    1207BB        7992     	LCALL CALC_GOVERNOR_INT_ERROR
1548    120D8E        7993     	CALL WAIT_FOR_COMM
154B    120E74        7994     	CALL COMM3COMM4
154E    1209F7        7995     	CALL CALC_NEXT_COMM_TIMING
1551    120B43        7996     	CALL WAIT_ADVANCE_TIMING
1554    120B54        7997     	CALL CALC_NEW_WAIT_TIMES
1557    120C17        7998     	CALL WAIT_BEFORE_ZC_SCAN	
                      7999     
                      8000     ; Run 4 = C(p-on) + B(n-pwm) - comparator A evaluated
                      8001     ; Out_cA changes from high to low
                      8002     RUN4: 
155A    120C5B        8003     	CALL WAIT_FOR_COMP_OUT_LOW
155D    120D71        8004     	CALL SETUP_COMM_WAIT	
1560    120D52        8005     	CALL	EVALUATE_COMPARATOR_INTEGRITY	
1563    306D03        8006     JNB FLAGS1 . 5 , ( $+6 ) 
1566    120819        8007     	LCALL CALC_GOVERNOR_PROP_CORRECTION
1569    120D8E        8008     	CALL WAIT_FOR_COMM
156C    120E99        8009     	CALL COMM4COMM5
156F    1209F7        8010     	CALL CALC_NEXT_COMM_TIMING
1572    120B43        8011     	CALL WAIT_ADVANCE_TIMING
1575    120B54        8012     	CALL CALC_NEW_WAIT_TIMES
1578    120C17        8013     	CALL WAIT_BEFORE_ZC_SCAN	
                      8014     
                      8015     ; Run 5 = C(p-on) + A(n-pwm) - comparator B evaluated
                      8016     ; Out_cB changes from low to high
                      8017     RUN5: 
157B    120C6C        8018     	CALL WAIT_FOR_COMP_OUT_HIGH
157E    120D71        8019     	CALL SETUP_COMM_WAIT	
1581    120D52        8020     	CALL	EVALUATE_COMPARATOR_INTEGRITY	
1584    306D03        8021     JNB FLAGS1 . 5 , ( $+6 ) 
1587    120877        8022     	LCALL CALC_GOVERNOR_INT_CORRECTION
158A    120D8E        8023     	CALL WAIT_FOR_COMM
158D    120F10        8024     	CALL COMM5COMM6
1590    1209F7        8025     	CALL CALC_NEXT_COMM_TIMING
1593    120B43        8026     	CALL WAIT_ADVANCE_TIMING
1596    120B54        8027     	CALL CALC_NEW_WAIT_TIMES
1599    120C17        8028     	CALL WAIT_BEFORE_ZC_SCAN	
                      8029     
                      8030     ; Run 6 = B(p-on) + A(n-pwm) - comparator C evaluated
                      8031     ; Out_cC changes from high to low
                      8032     RUN6: 
159C    120934        8033     	CALL START_ADC_CONVERSION
159F    120C5B        8034     	CALL WAIT_FOR_COMP_OUT_LOW
15A2    120D71        8035     	CALL SETUP_COMM_WAIT	
15A5    120D52        8036     	CALL	EVALUATE_COMPARATOR_INTEGRITY	
15A8    120D8E        8037     	CALL WAIT_FOR_COMM
15AB    120F35        8038     	CALL COMM6COMM1
15AE    120938        8039     	CALL CHECK_TEMP_VOLTAGE_AND_LIMIT_POWER
15B1    1209F7        8040     	CALL CALC_NEXT_COMM_TIMING
15B4    120B43        8041     	CALL WAIT_ADVANCE_TIMING
15B7    120B54        8042     	CALL CALC_NEW_WAIT_TIMES
15BA    120C17        8043     	CALL WAIT_BEFORE_ZC_SCAN	
                      8044     
                      8045     	; Check if it is direct startup
15BD    306935        8046     JNB FLAGS1 . 1 , NORMAL_RUN_CHECKS 
15C0    206B32        8047     JB FLAGS1 . 3 , NORMAL_RUN_CHECKS 
                      8048     
                      8049     	; Set spoolup power variables
15C3    856461        8050     	MOV	PWM_LIMIT, PWM_SPOOLUP_BEG		; Set initial max power
15C6    856462        8051     	MOV	PWM_LIMIT_SPOOLUP, PWM_SPOOLUP_BEG	; Set initial slow spoolup power
15C9    856069        8052     	MOV	SPOOLUP_LIMIT_CNT, AUTO_BAILOUT_ARMED
15CC    756A01        8053     	MOV	SPOOLUP_LIMIT_SKIP, #1			
                      8054     	; Check startup counter
15CF    7918          8055     MOV R1 , # 24 
15D1    7A0C          8056     MOV R2 , # 12 
15D3    C3            8057     	CLR	C
15D4    E533          8058     	MOV	A, STARTUP_CNT				; Load counter
15D6    99            8059     SUBB A , R1 
15D7    400F          8060     	JC	DIRECT_START_CHECK_RCP		; No - proceed
                      8061     
15D9    C269          8062     CLR FLAGS1 . 1 
15DB    D26A          8063     SETB FLAGS1 . 2 
15DD    8A34          8064     MOV INITIAL_RUN_ROT_CNT , R2 
                      8065     IF MODE == 1	; Tail
                               	MOV	PWM_LIMIT, #0FFH			; Allow full power
                               ENDIF
                      8068     IF MODE == 2	; Multi
15DF    856461        8069     	MOV	PWM_LIMIT, PWM_SPOOLUP_BEG
15E2    856463        8070     	MOV	PWM_LIMIT_BY_RPM, PWM_SPOOLUP_BEG
                      8071     ENDIF
15E5    0215F5        8072     	JMP	NORMAL_RUN_CHECKS
                      8073     
                      8074     DIRECT_START_CHECK_RCP: 
15E8    C3            8075     	CLR	C
15E9    E55C          8076     	MOV	A, NEW_RCP				; Load new pulse value
15EB    9401          8077     SUBB A , # 1 
15ED    4003          8078     	JC	($+5)
                      8079     
15EF    0214EE        8080     	LJMP	RUN1						; Continue to run 
                      8081     
15F2    02166F        8082     	JMP	RUN_TO_WAIT_FOR_POWER_ON
                      8083     
                      8084     
                      8085     NORMAL_RUN_CHECKS: 
                      8086     	; Check if it is initial run phase
15F5    306A1B        8087     JNB FLAGS1 . 2 , INITIAL_RUN_PHASE_DONE 
15F8    206B18        8088     JB FLAGS1 . 3 , INITIAL_RUN_PHASE_DONE 
                      8089     
                      8090     	; Decrement startup rotaton count
15FB    E534          8091     	MOV	A, INITIAL_RUN_ROT_CNT
15FD    14            8092     	DEC	A
                      8093     	; Check number of nondamped rotations
15FE    7004          8094     	JNZ 	NORMAL_RUN_CHECK_STARTUP_ROT	; Branch if counter is not zero
                      8095     
1600    C26A          8096     CLR FLAGS1 . 2 
1602    81E2          8097     	JMP DAMPED_TRANSITION			; Do damped transition if counter is zero
                      8098     
                      8099     NORMAL_RUN_CHECK_STARTUP_ROT: 
1604    F534          8100     	MOV	INITIAL_RUN_ROT_CNT, A		; Not zero - store counter
                      8101     
1606    C3            8102     	CLR	C
1607    E55C          8103     	MOV	A, NEW_RCP				; Load new pulse value
1609    9401          8104     SUBB A , # 1 
160B    4003          8105     	JC	($+5)
                      8106     
160D    0214EE        8107     	LJMP	RUN1						; Continue to run 
                      8108     
1610    02166F        8109     	JMP	RUN_TO_WAIT_FOR_POWER_ON
                      8110     
                      8111     INITIAL_RUN_PHASE_DONE: 
                      8112     IF MODE == 0	; Main
                               	; Check if throttle is zeroed
                               	CLR	C
                               	MOV	A, RCP_STOP_CNT			; Load stop RC pulse counter value
                               	SUBB	A, #1					; Is number of stop RC pulses above limit?
                               	JC	RUN6_CHECK_RCP_STOP_COUNT	; If no - branch
                               
                               	MOV	PWM_LIMIT_SPOOLUP, PWM_SPOOLUP_BEG		; If yes - set initial max powers
                               	MOV	SPOOLUP_LIMIT_CNT, AUTO_BAILOUT_ARMED	; And set spoolup parameters
                               	MOV	SPOOLUP_LIMIT_SKIP, #1			
                               
                               RUN6_CHECK_RCP_STOP_COUNT:
                               ENDIF
                      8125     	; Exit run loop after a given time
1613    C3            8126     	CLR	C
1614    E55F          8127     	MOV	A, RCP_STOP_CNT			; Load stop RC pulse counter low byte value
1616    78FA          8128     MOV R0 , # 250 
1618    98            8129     SUBB A , R0 
1619    5054          8130     	JNC	RUN_TO_WAIT_FOR_POWER_ON		; Yes, go back to wait for poweron
                      8131     
161B    307404        8132     JNB FLAGS2 . 4 , RUN6_CHECK_DIR 
                      8133     
161E    E52A          8134     	MOV	A, RCP_TIMEOUT_CNT			; Load RC pulse timeout counter value
1620    604D          8135     	JZ	RUN_TO_WAIT_FOR_POWER_ON		; If it is zero - go back to wait for poweron
                      8136     
                      8137     RUN6_CHECK_DIR: 
                      8138     IF MODE >= 1	; Tail or multi
1622    7888          8139     MOV R0 , # PGM_DIRECTION 
1624    E6            8140     MOV A , @ R0 
1625    B40317        8141     	CJNE	A, #3, RUN6_CHECK_SPEED
                      8142     
1628    207D05        8143     JB FLAGS3 . 5 , RUN6_CHECK_DIR_REV 
162B    207607        8144     JB FLAGS2 . 6 , RUN6_CHECK_DIR_CHANGE 
162E    C13F          8145     	AJMP	RUN6_CHECK_SPEED
                      8146     
                      8147     RUN6_CHECK_DIR_REV: 
1630    307602        8148     JNB FLAGS2 . 6 , RUN6_CHECK_DIR_CHANGE 
1633    C13F          8149     	AJMP	RUN6_CHECK_SPEED
                      8150     
                      8151     RUN6_CHECK_DIR_CHANGE: 
1635    206B07        8152     JB FLAGS1 . 3 , RUN6_CHECK_SPEED 
                      8153     
1638    D26B          8154     SETB FLAGS1 . 3 
163A    856461        8155     	MOV	PWM_LIMIT, PWM_SPOOLUP_BEG	; Set max power while braking
163D    A15A          8156     	JMP	RUN4						; Go back to run 4, thereby changing force direction
                      8157     
                      8158     RUN6_CHECK_SPEED: 
                      8159     ENDIF
163F    78F0          8160     MOV R0 , # 0F0H 
1641    306B05        8161     JNB FLAGS1 . 3 , RUN6_BRAKE_DONE 
                      8162     
1644    856461        8163     	MOV	PWM_LIMIT, PWM_SPOOLUP_BEG 	; Set max power while braking
1647    7820          8164     MOV R0 , # 20H 
                      8165     
                      8166     RUN6_BRAKE_DONE: 
1649    C3            8167     	CLR	C
164A    E53E          8168     	MOV	A, COMM_PERIOD4X_H			; Is Comm_Period4x more than 32ms (~1220 eRPM)?
164C    98            8169     SUBB A , R0 
164D    5002          8170     	JNC	($+4)					; Yes - stop or turn direction 
164F    81EE          8171     	AJMP	RUN1						; No - go back to run 1
                      8172     
                      8173     IF MODE >= 1	; Tail or multi
1651    306B1B        8174     JNB FLAGS1 . 3 , RUN_TO_WAIT_FOR_POWER_ON 
                      8175     
1654    C26B          8176     CLR FLAGS1 . 3 
1656    C27D          8177     CLR FLAGS3 . 5 
1658    307602        8178     JNB FLAGS2 . 6 , ( $+5 ) 
165B    D27D          8179     SETB FLAGS3 . 5 
165D    D26A          8180     SETB FLAGS1 . 2 
165F    753412        8181     	MOV	INITIAL_RUN_ROT_CNT, #18
1662    856461        8182     	MOV	PWM_LIMIT, PWM_SPOOLUP_BEG	; Set initial max power
1665    81EE          8183     	AJMP	RUN1						; Go back to run 1 
                      8184     ENDIF
                      8185     
                      8186     RUN_TO_WAIT_FOR_POWER_ON_FAIL: 	
1667    0535          8187     	INC	STALL_CNT					; Increment stall count
1669    E55C          8188     	MOV	A, NEW_RCP				; Check if RCP is zero, then it is a normal stop			
166B    6002          8189     	JZ	RUN_TO_WAIT_FOR_POWER_ON
166D    C172          8190     	AJMP	RUN_TO_WAIT_FOR_POWER_ON_STALL_DONE
                      8191     
                      8192     RUN_TO_WAIT_FOR_POWER_ON: 	
166F    753500        8193     	MOV	STALL_CNT, #0
                      8194     
                      8195     RUN_TO_WAIT_FOR_POWER_ON_STALL_DONE: 
1672    C2AF          8196     	CLR	EA
1674    120FAA        8197     	CALL SWITCH_POWER_OFF
1677    7887          8198     MOV R0 , # PGM_PWM_FREQ 
1679    E6            8199     MOV A , @ R0 
167A    FE            8200     MOV R6 , A 
167B    7602          8201     MOV @ R0 , # 2 
167D    1128          8202     	CALL	DECODE_PARAMETERS			; (Decode_parameters uses Temp1 and Temp8)
167F    7887          8203     MOV R0 , # PGM_PWM_FREQ 
1681    EE            8204     MOV A , R6 
1682    F6            8205     MOV @ R0 , A 
1683    E4            8206     	CLR	A
1684    F522          8207     	MOV	REQUESTED_PWM, A			; Set requested pwm to zero
1686    F523          8208     	MOV	GOVERNOR_REQ_PWM, A			; Set governor requested pwm to zero
1688    F524          8209     	MOV	CURRENT_PWM, A				; Set current pwm to zero
168A    F525          8210     	MOV	CURRENT_PWM_LIMITED, A		; Set limited current pwm to zero
168C    F526          8211     	MOV	CURRENT_PWM_LIM_DITH, A	
168E    F565          8212     	MOV	PWM_MOTOR_IDLE, A			; Set motor idle to zero
1690    C268          8213     CLR FLAGS1 . 0 
                      8214     IF MCU_48MHZ == 1
                      8215     	SET_MCU_CLK_24MHZ
1692    75B680        8215+1   MOV FLSCL , # 80H  ; SET FLASH TIMING FOR 24MHZ
1695    75A900        8215+1   MOV CLKSEL , # 0  ; SET CLOCK TO 24MHZ
1698    757A00        8215+1   MOV CLOCK_SET_AT_48MHZ , # 0 
                      8216     ENDIF
169B    D2AF          8217     	SETB	EA
169D    120621        8218     	CALL	WAIT1MS					; Wait for pwm to be stopped
16A0    120FAA        8219     	CALL SWITCH_POWER_OFF
                      8220     IF MODE == 0	; Main
                               	JNB	FLAGS2.RCP_PPM, RUN_TO_NEXT_STATE_MAIN	; If flag is not set (PWM) - branch
                               
                               	MOV	A, RCP_TIMEOUT_CNT			; Load RC pulse timeout counter value
                               	JNZ	RUN_TO_NEXT_STATE_MAIN		; If it is not zero - branch
                               
                               	JMP	INIT_NO_SIGNAL				; If it is zero (pulses missing) - go back to detect input signal
                               
                               RUN_TO_NEXT_STATE_MAIN:
                               	MOV	TEMP1, #PGM_MAIN_REARM_START
                               	MOV	A, @TEMP1	
                               	CLR	C
                               	SUBB	A, #1					; Is re-armed start enabled?
                               	JC 	JMP_WAIT_FOR_POWER_ON		; No - do like tail and start immediately
                               
                               	JMP	VALIDATE_RCP_START			; Yes - go back to validate RC pulse
                               
                               JMP_WAIT_FOR_POWER_ON:
                               	JMP	WAIT_FOR_POWER_ON			; Go back to wait for power on
                               ENDIF
                      8240     IF MODE >= 1	; Tail or multi
16A3    307409        8241     JNB FLAGS2 . 4 , JMP_WAIT_FOR_POWER_ON 
                      8242     
16A6    C3            8243     	CLR	C
16A7    E535          8244     	MOV	A, STALL_CNT
16A9    9405          8245     	SUBB	A, #5
16AB    4002          8246     	JC	JMP_WAIT_FOR_POWER_ON
16AD    21A6          8247     	JMP	INIT_NO_SIGNAL
                      8248     
                      8249     JMP_WAIT_FOR_POWER_ON: 
16AF    61B4          8250     	JMP	WAIT_FOR_POWER_ON			; Go back to wait for power on
                      8251     ENDIF
                      8252     
                      8253     
                      8254     ;**** **** **** **** **** **** **** **** **** **** **** **** ****
                      8255     
                      8256     $INCLUDE (BLHELITXPGM.INC)			; Include source code for programming the ESC with the TX
                      8916     $INCLUDE (BLHELIBOOTLOAD.INC)			; Include source code for bootloader
                      9309     
                      9310     ;**** **** **** **** **** **** **** **** **** **** **** **** ****
                      9311     
                      9312     
------                9313     CSEG AT 19FDH
                      9314     RESET: 
19FD    02110E        9315     LJMP	PGM_START
                      9316     
                      9317     
                      9318     
                      9319     
                      9320     END
MACRO ASSEMBLER BLHELI                                      01/01/16 17:30:09 PAGE     0


SYMBOL TABLE LISTING
------ ----- -------


N A M E             T Y P E  V A L U E   ATTRIBUTES

SET4 . . . . . . .  C ADDR   1CC5H   A 
ID3. . . . . . . .  C ADDR   1C52H   A 
BYTE_CNTH. . . . .  D ADDR   0028H   A 
CRCH . . . . . . .  D ADDR   0023H   A 
CMDL . . . . . . .    REG    R4             
XH . . . . . . . .    REG    R1             
NORMAL_RUN_CHECK_~  C ADDR   1604H   A 
DECODE_DEMAG_HIGH.  C ADDR   1094H   A 
COMM61_DAMP_REV. .  C ADDR   0F5BH   A 
COMP_WAIT_ON_COMP~  C ADDR   0CA3H   A 
WAIT_BEFORE_ZC_SC~  C ADDR   0C5AH   A 
CHECK_TEMP_VOLTAG~  C ADDR   0938H   A 
GOVERNOR_LIMIT_IN~  C ADDR   089EH   A 
GOVERNOR_CORR_NEG~  C ADDR   0866H   A 
PCA_INT_PPM_BELOW~  C ADDR   0511H   A 
T2_INT_CURRENT_PW~  C ADDR   02F5H   A 
_EEP_MAIN_REARM_S~  C ADDR   1A10H   A 
TIMER0_OVERFLOW_V~  D ADDR   0079H   A 
PPM_THROTTLE_GAIN.  D ADDR   0072H   A 
LIPO_ADC_LIMIT_H .  D ADDR   006FH   A 
CURR_RCP_PWM_FREQ.  D ADDR   005EH   A 
RCP_EDGE_H . . . .  D ADDR   0058H   A 
FLAGS3 . . . . . .  D ADDR   002FH   A 
RCP_PREV_EDGE_L. .  D ADDR   0027H   A 
ADC_IP . . . . . .  N NUMB   0001h            
AD0INT . . . . . .  B ADDR   00E8H.5 A 
ACK1 . . . . . . .  B ADDR   00C0H.1 A 
SBUF0. . . . . . .  D ADDR   0099H   A 
P0 . . . . . . . .  D ADDR   0080H   A 
DPL. . . . . . . .  D ADDR   0082H   A 
ADC0LTH. . . . . .  D ADDR   00C6H   A 
ADC0H. . . . . . .  D ADDR   00BEH   A 
POLARIS_THUNDER_4~  N NUMB   008Fh            
POLARIS_THUNDER_3~  N NUMB   008Dh            
POLARIS_THUNDER_1~  N NUMB   0087h            
SET5 . . . . . . .  C ADDR   1CCBH   A 
ID4. . . . . . . .  C ADDR   1C5DH   A 
BOOT_START . . . .  N NUMB   1C00h            
FUNCTION_BEEP. . .  C ADDR   1840H   A 
INIT_START . . . .  C ADDR   1424H   A 
PROGRAM_BY_TX_ENT~  C ADDR   12D3H   A 
FIND_THROTTLE_GAI~  C ADDR   10C6H   A 
COMM45_NONDAMP . .  C ADDR   0EDFH   A 
COMM4COMM5 . . . .  C ADDR   0E99H   A 
CALC_NEW_WAIT_TIM~  C ADDR   0A9EH   A 
SET_PWM_LIMIT_HIG~  C ADDR   092AH   A 
SET_PWM_DEMAG_DONE  C ADDR   08EFH   A 
PCA_INT_RESTORE_E~  C ADDR   048EH   A 
T2H_INT_RCP_STOP .  C ADDR   0341H   A 
T0_INT_PWM_OFF_DA~  C ADDR   0159H   A 
EEP_PGM_PPM_MIN_T~  C ADDR   1A19H   A 
MAIN_SPOOLUP_TIME~  D ADDR   006DH   A 
RANDOM . . . . . .  D ADDR   0068H   A 
PWM_MOTOR_IDLE . .  D ADDR   0065H   A 
PREV_RCP_PWM_FREQ.  D ADDR   005DH   A 
NEXT_WT_START_L. .  D ADDR   0053H   A 
COMM_PERIOD4X_H. .  D ADDR   003EH   A 
PWM_START. . . . .  N NUMB   0032h            
DEFAULT_PGM_BEC_V~  N NUMB   0000h            
DEFAULT_PGM_MAIN_~  N NUMB   0004h            
DEFAULT_PGM_MAIN_~  N NUMB   00C8h            
DEFAULT_PGM_MAIN_~  N NUMB   0001h            
TXMODE0. . . . . .  B ADDR   00C0H.6 A 
ESPI0. . . . . . .  B ADDR   00A8H.6 A 
SFRSTACK . . . . .  D ADDR   00D3H   A 
RSTSRC . . . . . .  D ADDR   00EFH   A 
P1 . . . . . . . .  D ADDR   0090H   A 
IPH. . . . . . . .  D ADDR   0084H   A 
CRC0DAT. . . . . .  D ADDR   009EH   A 
CRC0AUTO . . . . .  D ADDR   00DDH   A 
ADC0CF . . . . . .  D ADDR   00BCH   A 
ZTW_SPIDER_PRO_20~  N NUMB   00D6h            
EMAX_NANO_20A_TAIL  N NUMB   00B3h            
PLATINUM_50AV3_TA~  N NUMB   00A1h            
PLATINUM_PRO_30A_~  N NUMB   009Ah            
POLARIS_THUNDER_4~  N NUMB   0090h            
H_KING_35A_TAIL. .  N NUMB   0080h            
SET6 . . . . . . .  C ADDR   1CD3H   A 
ID5. . . . . . . .  C ADDR   1C6AH   A 
ERRORPROG. . . . .  N NUMB   00C5h            
ERRORCRC . . . . .  N NUMB   00C2h            
BOOT_DELAY . . . .  N NUMB   5F5E10h            
PARAVAL_BEEP . . .  C ADDR   184EH   A 
STORE_MULTI_FUNC_~  C ADDR   17C7H   A 
COMM45_DAMP_REV. .  C ADDR   0EBFH   A 
COMM23_NFET_DONE .  C ADDR   0E55H   A 
GOVERNOR_CHECK_PWM  C ADDR   07F4H   A 
GOVERNOR_ACTIVATE.  C ADDR   074FH   A 
PWM_AFET_DAMPED_D~  C ADDR   01A1H   A 
EEP_ENABLE_TX_PRO~  C ADDR   1A0FH   A 
DEMAG_DETECTED_ME~  D ADDR   0036H   A 
RCP_PWM_FREQ_1KHZ.  N NUMB   0000h            
SIGNATURE_001. . .  N NUMB   00F3h            
RTX_PORT . . . . .  N NUMB   0080h            
TF2CEN . . . . . .  B ADDR   00C8H.4 A 
TXMODE1. . . . . .  B ADDR   00C0H.6 A 
ACKRQ0 . . . . . .  B ADDR   00C0H.3 A 
P2 . . . . . . . .  D ADDR   00A0H   A 
P0MAT. . . . . . .  D ADDR   00FDH   A 
OSCLCN . . . . . .  D ADDR   00E3H   A 
B. . . . . . . . .  D ADDR   00F0H   A 
EMAX_NANO_20A_MUL~  N NUMB   00B4h            
PLATINUM_50AV3_MU~  N NUMB   00A2h            
POLARIS_THUNDER_6~  N NUMB   0092h            
H_KING_35A_MULTI .  N NUMB   0081h            
TURNIGY_AE_25A_MA~  N NUMB   0043h            
TURNIGY_AE_20A_TA~  N NUMB   0041h            
TURNIGY_PLUSH_10A~  N NUMB   001Fh            
XP_35A_SW_TAIL . .  N NUMB   0014h            
GETC . . . . . . .  C ADDR   1D7FH   A 
BIT_CNT. . . . . .  D ADDR   0026H   A 
BOOT_PAGES . . . .  N NUMB   0001h            
STORE_MULTI_FUNC_~  C ADDR   17CCH   A 
WRITE_EEPROM_SIGN~  C ADDR   1765H   A 
WAIT_FOR_POWER_ON.  C ADDR   13B4H   A 
THROTTLE_LOW_CAL_~  C ADDR   1336H   A 
ERASE_AND_STORE_A~  C ADDR   16F3H   A 
ARMING_INITIAL_AR~  C ADDR   12BCH   A 
PROGRAM_BY_TX_CHE~  C ADDR   1382H   A 
FIND_THROTTLE_GAI~  C ADDR   10BFH   A 
SET_DEFAULT_PARAM~  C ADDR   0FBFH   A 
COMM56_REV . . . .  C ADDR   0F24H   A 
COMM5COMM6 . . . .  C ADDR   0F10H   A 
COMM23_NFET_OFF_R~  C ADDR   0E39H   A 
COMP_READ_OK . . .  C ADDR   0D3BH   A 
CALC_NEW_WAIT_TIM~  C ADDR   0B3EH   A 
CALC_NEXT_COMM_TI~  C ADDR   09F7H   A 
CALC_GOVERNOR_TAR~  C ADDR   0785H   A 
PCA_INT_STORE_DATA  C ADDR   04B3H   A 
T2_INT_RCP_GAIN_P~  C ADDR   0286H   A 
T2_INT_RCP_UPDATE~  C ADDR   0248H   A 
PWM_BFET_DAMPED_D~  C ADDR   01B2H   A 
RESET. . . . . . .  C ADDR   19FDH   A 
EEP_PGM_PPM_MAX_T~  C ADDR   1A1AH   A 
PGM_GOV_P_GAIN_DE~  I ADDR   00A4H   A 
PGM_ENABLE_TEMP_P~  I ADDR   00A0H   A 
_PGM_THROTTLE_RATE  I ADDR   009BH   A 
_PGM_STARTUP_RPM .  I ADDR   008FH   A 
PWM_LIMIT_SPOOLUP.  D ADDR   0062H   A 
RCP_PREPREV_EDGE_H  D ADDR   0056H   A 
WT_ZC_SCAN_START_L  D ADDR   004DH   A 
RCP_PWM_FREQ_2KHZ.  N NUMB   0001h            
PGM_PWM_HIGH_FREQ.  N NUMB   0003h            
STARTUP_PHASE. . .  N NUMB   0001h            
DEFAULT_PGM_TAIL_~  N NUMB   0003h            
DEFAULT_PGM_TAIL_~  N NUMB   0003h            
SIGNATURE_002. . .  N NUMB   0090h            
LOCK_BYTE_ADDRESS~  N NUMB   1FFFh            
ACKRQ1 . . . . . .  B ADDR   00C0H.3 A 
SP . . . . . . . .  D ADDR   0081H   A 
SMB0CN . . . . . .  D ADDR   00C0H   A 
SCON0. . . . . . .  D ADDR   0098H   A 
P1MAT. . . . . . .  D ADDR   00EDH   A 
FLYCOLOR_FAIRY_6A~  N NUMB   00C5h            
POLARIS_THUNDER_6~  N NUMB   0093h            
SKYWALKER_20A_MAIN  N NUMB   0058h            
TURNIGY_AE_30A_TA~  N NUMB   0047h            
TURNIGY_AE_20A_MU~  N NUMB   0042h            
XP_35A_SW_MULTI. .  N NUMB   0015h            
XP_7A_MAIN . . . .  N NUMB   0004h            
PRO3 . . . . . . .  C ADDR   1D01H   A 
BOOT_SIGN. . . . .  C ADDR   1DD6H   A 
BYTE_CNTL. . . . .  D ADDR   0027H   A 
BAUDH. . . . . . .  D ADDR   0025H   A 
CRCL . . . . . . .  D ADDR   0022H   A 
XL . . . . . . . .    REG    R0             
FUNCTION_NEXT. . .  C ADDR   18BFH   A 
THROTTLE_HIGH_CAL.  C ADDR   1300H   A 
COMM61_NFET_DONE .  C ADDR   0F8CH   A 
STORE_TIMES_INCRE~  C ADDR   0C09H   A 
STARTUP_PWM_SET_P~  C ADDR   09E5H   A 
PWM_CFET_DAMPED_D~  C ADDR   01C3H   A 
PGM_DIRECTION. . .  I ADDR   0088H   A 
PGM_PWM_FREQ . . .  I ADDR   0087H   A 
LIPO_ADC_LIMIT_L .  D ADDR   006EH   A 
RCP_EDGE_L . . . .  D ADDR   0057H   A 
COMM_DIFF. . . . .  D ADDR   003FH   A 
STALL_CNT. . . . .  D ADDR   0035H   A 
GOV_SPOOLRATE. . .  N NUMB   0001h            
DEFAULT_PGM_MULTI~  N NUMB   0003h            
DEFAULT_PGM_MULTI~  N NUMB   0003h            
RTX_PIN. . . . . .  N NUMB   0005h            
PORT3_EXIST. . . .  N NUMB   0000h            
AC . . . . . . . .  B ADDR   00D0H.6 A 
SMB1CN . . . . . .  D ADDR   00C0H   A 
SMB0ADM. . . . . .  D ADDR   00E7H   A 
EIE1 . . . . . . .  D ADDR   00E6H   A 
AMX0N. . . . . . .  D ADDR   00BAH   A 
ADC0LTL. . . . . .  D ADDR   00C5H   A 
ADC0L. . . . . . .  D ADDR   00BDH   A 
FLYCOLOR_FAIRY_6A~  N NUMB   00C6h            
POLARIS_THUNDER_8~  N NUMB   0095h            
TURNIGY_KFORCE_12~  N NUMB   0053h            
TURNIGY_AE_45A_MA~  N NUMB   0049h            
TURNIGY_AE_30A_MU~  N NUMB   0048h            
TURNIGY_PLUSH_30A~  N NUMB   002Bh            
TURNIGY_PLUSH_12A~  N NUMB   0022h            
XP_3A_TAIL . . . .  N NUMB   0002h            
PRO4 . . . . . . .  C ADDR   1D0DH   A 
MAIN . . . . . . .  C ADDR   1C7CH   A 
PARAVAL_NEXT . . .  C ADDR   18A9H   A 
WRITE_EEPROM_BYTE.  C ADDR   1739H   A 
TEST_FOR_ONESHOT .  C ADDR   126FH   A 
MEASURE_PWM_FREQ_~  C ADDR   121CH   A 
COMM61_NFET_OFF_R~  C ADDR   0F71H   A 
COMM_EXIT. . . . .  C ADDR   0FA7H   A 
CALC_GOVERNOR_INT~  C ADDR   0877H   A 
PCA_INT_PPM_CHECK~  C ADDR   052CH   A 
PCA_INT_FALL_CHEC~  C ADDR   0503H   A 
PCA_INT_PWM_DIVIDE  C ADDR   05C0H   A 
PCA_INT_LIMITED. .  C ADDR   05E3H   A 
T2H_INT_START. . .  C ADDR   0325H   A 
T2_INT_PWM_UPDATE.  C ADDR   028DH   A 
T0_INT_PWM_OFF_DA~  C ADDR   0147H   A 
EEP_DUMMY. . . . .  C ADDR   1A27H   A 
EEP_PGM_ENABLE_PW~  C ADDR   1A25H   A 
_EEP_PGM_STARTUP_~  C ADDR   1A13H   A 
EEP_LAYOUT_REVISI~  C ADDR   1A02H   A 
PGM_PPM_CENTER_TH~  I ADDR   009EH   A 
PGM_GOV_SETUP_TAR~  I ADDR   008EH   A 
CLOCK_SET_AT_48MHZ  D ADDR   007AH   A 
COMM_PERIOD4X_L. .  D ADDR   003DH   A 
PGM_RCP_PWM_POL. .  N NUMB   0006h            
RCP_PWM_FREQ_4KHZ.  N NUMB   0002h            
REQUESTED_PWM. . .  D ADDR   0022H   A 
RTX_MDIN . . . . .  N NUMB   00F1h            
OV . . . . . . . .  B ADDR   00D0H.2 A 
MCE0 . . . . . . .  B ADDR   0098H.5 A 
SMB1ADM. . . . . .  D ADDR   00E7H   A 
PCA0CLR. . . . . .  D ADDR   00CEH   A 
EIE2 . . . . . . .  D ADDR   00AFH   A 
MODE . . . . . . .  N NUMB   0002h            
POLARIS_THUNDER_8~  N NUMB   0096h            
SKYWALKER_40A_MAIN  N NUMB   005Bh            
TURNIGY_KFORCE_12~  N NUMB   0054h            
TURNIGY_PLUSH_40A~  N NUMB   002Eh            
SUPERMICRO_3P5A_M~  N NUMB   0019h            
XP_3A_MULTI. . . .  N NUMB   0003h            
WAIT1. . . . . . .  C ADDR   1DCFH   A 
PRO5 . . . . . . .  C ADDR   1D13H   A 
FUNC_PARAVAL_WAIT.  C ADDR   186FH   A 
WRITE_TAG. . . . .  C ADDR   178EH   A 
READ_EEPROM_STORE~  C ADDR   16CAH   A 
RUN6_CHECK_DIR . .  C ADDR   1622H   A 
RUN1 . . . . . . .  C ADDR   14EEH   A 
WAIT_FOR_POWER_ON~  C ADDR   141DH   A 
MEASURE_PWM_FREQ_~  C ADDR   122DH   A 
CLEAR_RAM. . . . .  C ADDR   117CH   A 
SET_BEC_VOLTAGE. .  C ADDR   10ABH   A 
DECODE_DEMAG_DONE.  C ADDR   109DH   A 
COMM45_NFET_DONE .  C ADDR   0EF1H   A 
WAIT_FOR_COMM. . .  C ADDR   0D8EH   A 
ADJUST_TIMING_TWO~  C ADDR   0BFCH   A 
CALC_GOVERNOR_PRO~  C ADDR   07BAH   A 
DIV_U16_BY_U16_DI~  C ADDR   06A3H   A 
WAIT100MS. . . . .  C ADDR   0635H   A 
WAIT1MS. . . . . .  C ADDR   0621H   A 
T0_INT_PWM_OFF_TI~  C ADDR   0127H   A 
T0_INT_PWM_OFF_SE~  C ADDR   0125H   A 
STARTUP_POWER_TAB~  C ADDR   008DH   A 
EEP_PGM_BEEP_STRE~  C ADDR   1A1BH   A 
SKIP_T2_INT. . . .  D ADDR   0077H   A 
TX_PGM_BEEP_NO . .  D ADDR   0076H   A 
SPOOLUP_LIMIT_SKIP  D ADDR   006AH   A 
WT_ZC_TOUT_START_H  D ADDR   0050H   A 
RCP_SKIP_RATE. . .  N NUMB   0006h            
DEFAULT_PGM_TAIL_~  N NUMB   0004h            
DEFAULT_PGM_TAIL_~  N NUMB   00FAh            
RTX_MDOUT. . . . .  N NUMB   00A4h            
MODF . . . . . . .  B ADDR   00F8H.5 A 
STO0 . . . . . . .  B ADDR   00C0H.4 A 
EA . . . . . . . .  B ADDR   00A8H.7 A 
PSCTL. . . . . . .  D ADDR   008FH   A 
IDA0H. . . . . . .  D ADDR   0097H   A 
AMX0P. . . . . . .  D ADDR   00BBH   A 
ZTW_SPIDER_PRO_20~  N NUMB   00D7h            
PLATINUM_PRO_30A_~  N NUMB   009Bh            
TURNIGY_KFORCE_12~  N NUMB   0055h            
RD1. . . . . . . .  C ADDR   1D2AH   A 
PRO6 . . . . . . .  C ADDR   1D20H   A 
ABD. . . . . . . .  C ADDR   1C2BH   A 
FUNCTION_PARAVAL_~  C ADDR   183AH   A 
STORE_NEW_VALUE_I~  C ADDR   1796H   A 
RUN2 . . . . . . .  C ADDR   150CH   A 
ARMING_PPM_CHECK .  C ADDR   12C6H   A 
COMM45_NFET_OFF_R~  C ADDR   0ED5H   A 
COMM23_FETS_DONE .  C ADDR   0E1BH   A 
COMP_READ_WRONG_T~  C ADDR   0D1BH   A 
WAIT_BEFORE_ZC_SC~  C ADDR   0C17H   A 
STORE_TIMES_EXIT .  C ADDR   0BE2H   A 
CHECK_VOLTAGE_PWM~  C ADDR   09C7H   A 
GOVERNOR_CORR_INT~  C ADDR   08BDH   A 
GOVERNOR_STORE_PR~  C ADDR   07B6H   A 
DIV_U16_BY_U16_DI~  C ADDR   06ADH   A 
WAIT200MS. . . . .  C ADDR   063AH   A 
T2_INT_RCP_GAIN_C~  C ADDR   027DH   A 
T2_INT_CURRENT_PW~  C ADDR   02A4H   A 
T2_INT_PULSES_ABS~  C ADDR   01F3H   A 
EEP_PGM_STARTUP_P~  C ADDR   1A09H   A 
PGM_MAIN_SPOOLUP_~  I ADDR   009FH   A 
PGM_LOW_VOLTAGE_L~  I ADDR   0083H   A 
RCP_PREPREV_EDGE_L  D ADDR   0055H   A 
GOV_ACTIVE . . . .  N NUMB   0005h            
TEMP1. . . . . . .    REG    R0             
DEFAULT_PGM_ENABL~  N NUMB   0001h            
DEFAULT_PGM_MULTI~  N NUMB   0004h            
DEFAULT_PGM_MULTI~  N NUMB   0050h            
DEFAULT_PGM_MULTI~  N NUMB   0004h            
STO1 . . . . . . .  B ADDR   00C0H.4 A 
ARBLOST0 . . . . .  B ADDR   00C0H.2 A 
IT01CF . . . . . .  D ADDR   00E4H   A 
IDA1H. . . . . . .  D ADDR   0097H   A 
DERIVID. . . . . .  D ADDR   00ABH   A 
ACC. . . . . . . .  D ADDR   00E0H   A 
ZTW_SPIDER_PRO_20~  N NUMB   00D8h            
PLATINUM_PRO_30A_~  N NUMB   009Ch            
TURNIGY_AE_25A_TA~  N NUMB   0044h            
TURNIGY_PLUSH_60A~  N NUMB   0031h            
TURNIGY_PLUSH_10A~  N NUMB   0020h            
MAI1 . . . . . . .  C ADDR   1C7EH   A 
IN1. . . . . . . .  C ADDR   1C74H   A 
BAUDL. . . . . . .  D ADDR   0024H   A 
RUN3 . . . . . . .  C ADDR   1539H   A 
GOVERNOR_LIMIT_IN~  C ADDR   08A5H   A 
GOVERNOR_CHECK_IN~  C ADDR   07DCH   A 
DIV_U16_BY_U16_DI~  C ADDR   06C4H   A 
WAIT3MS. . . . . .  C ADDR   0626H   A 
T2_INT_PULSES_ABS~  C ADDR   0228H   A 
T0_INT_PWM_ON_TIM~  C ADDR   0107H   A 
T0_INT_PWM_ON_SET~  C ADDR   0105H   A 
REMAP_LOW_SLOPE. .  C ADDR   00C4H   A 
EEP_PGM_DEMAG_COMP  C ADDR   1A1FH   A 
EEP_FW_MAIN_REVIS~  C ADDR   1A00H   A 
PGM_PPM_MIN_THROT~  I ADDR   0096H   A 
INITIALIZED_H_DUM~  I ADDR   008BH   A 
GOV_INTEGRAL_H . .  D ADDR   0045H   A 
POWER_ON_WAIT_CNT~  D ADDR   0032H   A 
RCP_PPM_ONESHOT125  N NUMB   0005h            
DIR_CHANGE_BRAKE .  N NUMB   0003h            
DEMAG_ENABLED. . .  N NUMB   0004h            
TEMP2. . . . . . .    REG    R1             
RCP_STOP_LIMIT . .  N NUMB   00FAh            
RCP_MIN. . . . . .  N NUMB   0000h            
AD0EN. . . . . . .  B ADDR   00E8H.7 A 
ARBLOST1 . . . . .  B ADDR   00C0H.2 A 
ES0. . . . . . . .  B ADDR   00A8H.4 A 
S0MODE . . . . . .  B ADDR   0098H.7 A 
VDM0CN . . . . . .  D ADDR   00FFH   A 
TS0CN. . . . . . .  D ADDR   00D2H   A 
SFRPAGE. . . . . .  D ADDR   00A7H   A 
P0MDIN . . . . . .  D ADDR   00F1H   A 
CPT0MD . . . . . .  D ADDR   009DH   A 
CPT0CN . . . . . .  D ADDR   009BH   A 
POLARIS_THUNDER_1~  N NUMB   0097h            
SKYWALKER_20A_TAIL  N NUMB   0059h            
TURNIGY_AE_25A_MU~  N NUMB   0045h            
TURNIGY_PLUSH_25A~  N NUMB   0028h            
TURNIGY_PLUSH_10A~  N NUMB   0021h            
XP_7A_TAIL . . . .  N NUMB   0005h            
PUTP . . . . . . .  C ADDR   1D40H   A 
SETBUF . . . . . .  C ADDR   1CBFH   A 
MAI2 . . . . . . .  C ADDR   1CA0H   A 
ERRORCOMMAND . . .  N NUMB   00C1h            
BEEP_NO_ENTRY. . .  C ADDR   1868H   A 
JMP_WAIT_FOR_POWE~  C ADDR   16AFH   A 
DIRECT_START_CHEC~  C ADDR   15E8H   A 
RUN4 . . . . . . .  C ADDR   155AH   A 
COMM61_FETS_DONE .  C ADDR   0F53H   A 
COMM23_NONDAMP_REV  C ADDR   0E5DH   A 
COMP_READ_OK_JMP .  C ADDR   0D4DH   A 
STORE_TIMES_UP_OR~  C ADDR   0BA0H   A 
STORE_TIMES_DECRE~  C ADDR   0BB3H   A 
CALC_NEXT_COMM_NE~  C ADDR   0A83H   A 
TEMP_AVERAGE_INC .  C ADDR   0972H   A 
GOVERNOR_CORR_INT~  C ADDR   08CEH   A 
MULT_S16_BY_U8_DI~  C ADDR   06D3H   A 
PCA_INT_PPM_NEG_C~  C ADDR   0580H   A 
T2_INT_EXIT. . . .  C ADDR   030BH   A 
_EEP_PGM_DAMPING_~  C ADDR   1A16H   A 
_EEP_PGM_MOTOR_ID~  C ADDR   1A08H   A 
PWM_DITHER_EXCESS~  D ADDR   0067H   A 
INITIAL_ARM. . . .  D ADDR   0030H   A 
RCP_PWM_FREQ_8KHZ.  N NUMB   0003h            
TEMP3. . . . . . .    REG    R2             
DEFAULT_PGM_PPM_C~  N NUMB   007Ah            
DEFAULT_PGM_MAIN_~  N NUMB   0001h            
CF . . . . . . . .  B ADDR   00D8H.7 A 
ET0. . . . . . . .  B ADDR   00A8H.1 A 
SMB0ADR. . . . . .  D ADDR   00D7H   A 
P1MDIN . . . . . .  D ADDR   00F2H   A 
P0MDOUT. . . . . .  D ADDR   00A4H   A 
ADC0CN . . . . . .  D ADDR   00E8H   A 
SKYWALKER_20A_MUL~  N NUMB   005Ah            
TURNIGY_AE_45A_TA~  N NUMB   004Ah            
TURNIGY_PLUSH_80A~  N NUMB   0034h            
TURNIGY_PLUSH_30A~  N NUMB   002Ch            
TURNIGY_PLUSH_12A~  N NUMB   0023h            
XP_7A_MULTI. . . .  N NUMB   0006h            
PUT1 . . . . . . .  C ADDR   1D46H   A 
READ_TAGS. . . . .  C ADDR   1774H   A 
RUN5 . . . . . . .  C ADDR   157BH   A 
CALC_NEW_WAIT_TIM~  C ADDR   0AF5H   A 
SET_PWM_LIMIT_HIG~  C ADDR   091AH   A 
GOVERNOR_CORR_NEG~  C ADDR   08C2H   A 
GOVERNOR_LIMIT_PR~  C ADDR   07ABH   A 
GOVERNOR_TARGET_C~  C ADDR   0732H   A 
CALC_GOVERNOR_TAR~  C ADDR   072AH   A 
PCA_INT_PWM_DIVID~  C ADDR   05C7H   A 
PCA_INT_CHECK_12K~  C ADDR   0432H   A 
PGM_PPM_MAX_THROT~  I ADDR   0097H   A 
CURRENT_PWM_LIMIT~  D ADDR   007CH   A 
BEEP_STRENGTH. . .  D ADDR   0073H   A 
RCP_PREV_PERIOD_H.  D ADDR   005AH   A 
WT_COMM_START_H. .  D ADDR   0052H   A 
WT_ZC_TOUT_START_L  D ADDR   004FH   A 
RCP_MEAS_PWM_FREQ.  N NUMB   0001h            
TEMP4. . . . . . .    REG    R3             
RCP_STOP . . . . .  N NUMB   0001h            
RCP_MAX. . . . . .  N NUMB   00FFh            
ET1. . . . . . . .  B ADDR   00A8H.3 A 
TF0. . . . . . . .  B ADDR   0088H.5 A 
SMB1ADR. . . . . .  D ADDR   00D7H   A 
P2MDIN . . . . . .  D ADDR   00F3H   A 
P1MDOUT. . . . . .  D ADDR   00A5H   A 
IDA0L. . . . . . .  D ADDR   0096H   A 
F85_3A_MAIN. . . .  N NUMB   00D3h            
SKYWALKER_40A_TAIL  N NUMB   005Ch            
TURNIGY_AE_45A_MU~  N NUMB   004Bh            
TURNIGY_PLUSH_40A~  N NUMB   002Fh            
TURNIGY_PLUSH_30A~  N NUMB   002Dh            
TURNIGY_PLUSH_18A~  N NUMB   0025h            
TURNIGY_PLUSH_12A~  N NUMB   0024h            
SUPERMICRO_3P5A_T~  N NUMB   001Ah            
PUT2 . . . . . . .  C ADDR   1D59H   A 
MAI4 . . . . . . .  C ADDR   1CD6H   A 
BAUDTIME . . . . .  N NUMB   0198h            
RUN6_CHECK_DIR_CH~  C ADDR   1635H   A 
RUN6 . . . . . . .  C ADDR   159CH   A 
ARMING_START . . .  C ADDR   12A6H   A 
MEASURE_PWM_FREQ_~  C ADDR   1222H   A 
COMM61_NONDAMP_REV  C ADDR   0F93H   A 
COMM45_FETS_DONE .  C ADDR   0EB7H   A 
WAIT_BEFORE_ZC_SC~  C ADDR   0C1FH   A 
GOVERNOR_DEACTIVA~  C ADDR   073CH   A 
PCA_INT_CHECK_LEG~  C ADDR   05D8H   A 
PCA_INT_FALL_NOT_~  C ADDR   04E4H   A 
EEP_PGM_MOTOR_GAIN  C ADDR   1A07H   A 
PGM_MAIN_REARM_ST~  I ADDR   008DH   A 
PREV_PREV_COMM_H .  D ADDR   003CH   A 
RCP_UPDATED. . . .  N NUMB   0000h            
T3_PENDING . . . .  N NUMB   0000h            
TEMP5. . . . . . .    REG    R4             
RCP_TIMEOUT. . . .  N NUMB   0018h            
MUX_A1 . . . . . .  N NUMB   0002h            
DEFAULT_PGM_MAIN_~  N NUMB   000Ah            
TF2LEN . . . . . .  B ADDR   00C8H.5 A 
ET2. . . . . . . .  B ADDR   00A8H.5 A 
RI0. . . . . . . .  B ADDR   0098H.0 A 
TF1. . . . . . . .  B ADDR   0088H.7 A 
TMR2RLH. . . . . .  D ADDR   00CBH   A 
SMB0DAT. . . . . .  D ADDR   00C2H   A 
P2MDOUT. . . . . .  D ADDR   00A6H   A 
IDA1L. . . . . . .  D ADDR   0096H   A 
FLYCOLOR_FAIRY_30~  N NUMB   00C7h            
ROTORGEEKS_20A_MA~  N NUMB   00C1h            
ALIGN_RCE_BL15P_M~  N NUMB   006Dh            
SKYWALKER_40A_MUL~  N NUMB   005Dh            
TURNIGY_KFORCE_12~  N NUMB   0056h            
TURNIGY_PLUSH_40A~  N NUMB   0030h            
SUPERMICRO_3P5A_M~  N NUMB   001Bh            
DP_3A_MAIN . . . .  N NUMB   0016h            
PUT3 . . . . . . .  C ADDR   1D65H   A 
MAI5 . . . . . . .  C ADDR   1D25H   A 
WAIT_FOR_LOW . . .  C ADDR   1C42H   A 
PARAH. . . . . . .    REG    R3             
ARM_TARGET_UPDATED  C ADDR   138CH   A 
EVALUATE_COMPARAT~  C ADDR   0D52H   A 
COMP_WAIT_READ_CO~  C ADDR   0CE2H   A 
TEMP_CHECK_EXIT. .  C ADDR   099CH   A 
GOVERNOR_APPLY_PR~  C ADDR   084DH   A 
PWM_AFET_EXIT. . .  C ADDR   017EH   A 
EEP_PGM_GOV_MODE .  C ADDR   1A05H   A 
PGM_ENABLE_PWM_IN~  I ADDR   00A2H   A 
_PGM_STARTUP_ACCEL  I ADDR   0090H   A 
PGM_ENABLE_TX_PRO~  I ADDR   008CH   A 
INITIALIZED_L_DUM~  I ADDR   008AH   A 
CURRENT_PWM_LIM_D~  D ADDR   007DH   A 
GOV_INTEGRAL_L . .  D ADDR   0044H   A 
POWER_ON_WAIT_CNT~  D ADDR   0031H   A 
GOVERNOR_REQ_PWM .  D ADDR   0023H   A 
TEMP6. . . . . . .    REG    R5             
DEFAULT_PGM_PPM_M~  N NUMB   0025h            
DEFAULT_PGM_MAIN_~  N NUMB   0001h            
DEFAULT_PGM_MAIN_~  N NUMB   0002h            
MUX_B1 . . . . . .  N NUMB   0000h            
MUX_A2 . . . . . .  N NUMB   0003h            
SI0. . . . . . . .  B ADDR   00C0H.0 A 
PSPI0. . . . . . .  B ADDR   00B8H.6 A 
TMR3RLH. . . . . .  D ADDR   0093H   A 
TH0. . . . . . . .  D ADDR   008CH   A 
SPI0CFG. . . . . .  D ADDR   00A1H   A 
SMB1DAT. . . . . .  D ADDR   00C2H   A 
PCA0H. . . . . . .  D ADDR   00FAH   A 
P0MASK . . . . . .  D ADDR   00FEH   A 
TURNIGY_KFORCE_12~  N NUMB   0057h            
TURNIGY_PLUSH_60A~  N NUMB   0032h            
PUT4 . . . . . . .  C ADDR   1D77H   A 
MAI6 . . . . . . .  C ADDR   1D36H   A 
CNTH . . . . . . .    REG    R7             
WRITE_EEPROM_BLOC~  C ADDR   1716H   A 
NORMAL_RUN_CHECKS.  C ADDR   15F5H   A 
INIT_NO_SIGNAL . .  C ADDR   11A6H   A 
COMM45_NONDAMP_REV  C ADDR   0EF9H   A 
WAIT_FOR_COMP_OUT~  C ADDR   0C7AH   A 
WAIT_ADVANCE_TIMI~  C ADDR   0B43H   A 
CALC_NEW_WAIT_PER~  C ADDR   0AADH   A 
CALC_GOVERNOR_PRO~  C ADDR   0786H   A 
PCA_INT_PPM_UNIDI~  C ADDR   057AH   A 
T2_INT_PPM_TIMEOU~  C ADDR   0234H   A 
PWM_BFET_EXIT. . .  C ADDR   0188H   A 
T0_INT_PWM_OFF_EX~  C ADDR   0134H   A 
EEP_FW_SUB_REVISI~  C ADDR   1A01H   A 
PGM_BEEP_STRENGTH.  I ADDR   0098H   A 
TEMP7. . . . . . .    REG    R6             
DEFAULT_PGM_MAIN_~  N NUMB   00B4h            
DEFAULT_PGM_MAIN_~  N NUMB   0001h            
MUX_C1 . . . . . .  N NUMB   0002h            
MUX_B2 . . . . . .  N NUMB   0001h            
ADC_LIMIT_H. . . .  N NUMB   0000h            
SI1. . . . . . . .  B ADDR   00C0H.0 A 
EX0. . . . . . . .  B ADDR   00A8H.0 A 
TI0. . . . . . . .  B ADDR   0098H.1 A 
IT0. . . . . . . .  B ADDR   0088H.0 A 
TMR4RLH. . . . . .  D ADDR   0093H   A 
TMR2H. . . . . . .  D ADDR   00CDH   A 
TH1. . . . . . . .  D ADDR   008DH   A 
SPI0CN . . . . . .  D ADDR   00F8H   A 
P1MASK . . . . . .  D ADDR   00EEH   A 
CRC0CNT. . . . . .  D ADDR   00DEH   A 
POLARIS_THUNDER_1~  N NUMB   0098h            
ALIGN_RCE_BL35P_M~  N NUMB   0073h            
TURNIGY_PLUSH_60A~  N NUMB   0033h            
TURNIGY_PLUSH_25A~  N NUMB   0029h            
POLYNOM. . . . . .  N NUMB   A001h            
WRITE_EEPROM_BLOC~  C ADDR   1724H   A 
PROGRAM_BY_TX_ENT~  C ADDR   1373H   A 
READ_ALL_EEPROM_P~  C ADDR   16B1H   A 
COMM23_NFET_DONE_~  C ADDR   0E6CH   A 
CALC_NEXT_COMM_NE~  C ADDR   0A8CH   A 
CHECK_VOLTAGE_LOW~  C ADDR   09BBH   A 
PWM_CFET_EXIT. . .  C ADDR   0192H   A 
T0_INT . . . . . .  C ADDR   00CFH   A 
_EEP_PGM_STARTUP_~  C ADDR   1A18H   A 
_EEP_PGM_VOLT_COMP  C ADDR   1A14H   A 
EEP_PGM_GOV_I_GAIN  C ADDR   1A04H   A 
PGM_STARTUP_PWR. .  I ADDR   0086H   A 
SKIP_T2H_INT . . .  D ADDR   0078H   A 
MAIN_SPOOLUP_TIME~  D ADDR   006BH   A 
RCP_STOP_CNT . . .  D ADDR   005FH   A 
NEW_RCP. . . . . .  D ADDR   005CH   A 
RCP_PREV_PERIOD_L.  D ADDR   0059H   A 
WT_COMM_START_L. .  D ADDR   0051H   A 
PGM_DIR_REV. . . .  N NUMB   0005h            
INITIAL_RUN_PHASE.  N NUMB   0002h            
HIGH_RPM . . . . .  N NUMB   0007h            
TEMP8. . . . . . .    REG    R7             
RCP_VALIDATE . . .  N NUMB   0002h            
DEFAULT_PGM_PPM_M~  N NUMB   00D0h            
MUX_C2 . . . . . .  N NUMB   0003h            
DEBUGPIN . . . . .  N NUMB   0004h            
ANFET. . . . . . .  N NUMB   0003h            
TF5LEN . . . . . .  B ADDR   00C8H.5 A 
EX1. . . . . . . .  B ADDR   00A8H.2 A 
IT1. . . . . . . .  B ADDR   0088H.2 A 
TMR5RLH. . . . . .  D ADDR   00CBH   A 
TMR3H. . . . . . .  D ADDR   0095H   A 
OSCXCN . . . . . .  D ADDR   00B1H   A 
IE . . . . . . . .  D ADDR   00A8H   A 
CKCON. . . . . . .  D ADDR   008EH   A 
POLARIS_THUNDER_1~  N NUMB   0099h            
TURNIGY_PLUSH_80A~  N NUMB   0035h            
TURNIGY_PLUSH_25A~  N NUMB   002Ah            
INIT_START_BIDIR_~  C ADDR   14BDH   A 
EVAL_COMP_EXIT . .  C ADDR   0D70H   A 
PCA_INT_SET_TIMEO~  C ADDR   05FBH   A 
PWM_NOFET. . . . .  C ADDR   0174H   A 
T0_INT_PWM_ON_EXE~  C ADDR   00F3H   A 
EEP_PGM_PWM_DITHER  C ADDR   1A26H   A 
EEP_PGM_COMM_TIMI~  C ADDR   1A15H   A 
PGM_DEMAG_COMP . .  I ADDR   009CH   A 
PREV_PREV_COMM_L .  D ADDR   003BH   A 
PREV_COMM_H. . . .  D ADDR   003AH   A 
RCP_DIR_REV. . . .  N NUMB   0006h            
RCP_TIMEOUT_CNT. .  D ADDR   002AH   A 
DEFAULT_PGM_TAIL_~  N NUMB   0003h            
DEFAULT_PGM_MAIN_~  N NUMB   0000h            
DEFAULT_PGM_MAIN_~  N NUMB   0004h            
BNFET. . . . . . .  N NUMB   0004h            
TEMP_LIMIT_STEP. .  N NUMB   0004h            
TXBMT. . . . . . .  B ADDR   00F8H.1 A 
RXOVRN . . . . . .  B ADDR   00F8H.4 A 
TMR4H. . . . . . .  D ADDR   0095H   A 
TMR2RLL. . . . . .  D ADDR   00CAH   A 
REVISION . . . . .  D ADDR   00ACH   A 
PCA0CPH0 . . . . .  D ADDR   00FCH   A 
IDA0CN . . . . . .  D ADDR   00B9H   A 
EIP1 . . . . . . .  D ADDR   00F6H   A 
F85_3A_TAIL. . . .  N NUMB   00D4h            
FVT_LITTLEBEE_20A~  N NUMB   00CAh            
MDRX62H_MAIN . . .  N NUMB   00BEh            
TURNIGY_PLUSH_80A~  N NUMB   0036h            
TURNIGY_PLUSH_18A~  N NUMB   0026h            
XP_12A_MAIN. . . .  N NUMB   000Ah            
PUTW . . . . . . .  C ADDR   1D38H   A 
PARAL. . . . . . .    REG    R2             
BOOTLOADER_DONE. .  C ADDR   11B6H   A 
AVERAGE_THROTTLE .  C ADDR   10E3H   A 
DECODE_PARAMS_DIR~  C ADDR   1043H   A 
COMM61_NFET_DONE_~  C ADDR   0FA2H   A 
SETUP_COMM_WAIT. .  C ADDR   0D71H   A 
CALC_NEXT_COMM_TI~  C ADDR   0AF6H   A 
CALC_GOVERNOR_INT~  C ADDR   0818H   A 
T2_INT . . . . . .  C ADDR   01C7H   A 
_PGM_DAMPING_FORCE  I ADDR   0093H   A 
AUTO_BAILOUT_ARMED  D ADDR   0060H   A 
PWM_ON . . . . . .  N NUMB   0002h            
BIT_ACCESS . . . .  D ADDR   0020H   A 
MOTOR_PPM_LOW_SLO~  N NUMB   002Bh            
DEFAULT_PGM_ENABL~  N NUMB   0000h            
DEFAULT_PGM_ENABL~  N NUMB   0001h            
DEFAULT_PGM_MULTI~  N NUMB   0003h            
APFET. . . . . . .  N NUMB   0002h            
CNFET. . . . . . .  N NUMB   0007h            
COMP1_USED . . . .  N NUMB   0000h            
P. . . . . . . . .  B ADDR   00D0H.0 A 
TMR5H. . . . . . .  D ADDR   00CDH   A 
TMR3RLL. . . . . .  D ADDR   0092H   A 
TL0. . . . . . . .  D ADDR   008AH   A 
PCON . . . . . . .  D ADDR   0087H   A 
PCA0L. . . . . . .  D ADDR   00F9H   A 
PCA0CPH1 . . . . .  D ADDR   00EAH   A 
IDA1CN . . . . . .  D ADDR   00B9H   A 
EIP2 . . . . . . .  D ADDR   00BFH   A 
F85_3A_MULTI . . .  N NUMB   00D5h            
FVT_LITTLEBEE_30A~  N NUMB   00CDh            
FLYCOLOR_FAIRY_30~  N NUMB   00C8h            
ROTORGEEKS_20A_TA~  N NUMB   00C2h            
ALIGN_RCE_BL15P_T~  N NUMB   006Eh            
RCTIMER_6A_MAIN. .  N NUMB   0067h            
TURNIGY_PLUSH_NFE~  N NUMB   003Dh            
TURNIGY_PLUSH_18A~  N NUMB   0027h            
DP_3A_TAIL . . . .  N NUMB   0017h            
XP_7A_FAST_MAIN. .  N NUMB   0007h            
GET1 . . . . . . .  C ADDR   1D84H   A 
BYTE_REG . . . . .  D ADDR   0021H   A 
CNTL . . . . . . .    REG    R6             
ARM_END_BEEP . . .  C ADDR   13A1H   A 
THROTTLE_HIGH_CAL~  C ADDR   12FEH   A 
PGM_START. . . . .  C ADDR   110EH   A 
WAIT_FOR_COMP_OUT~  C ADDR   0C5BH   A 
CALC_NEW_WAIT_TIM~  C ADDR   0B54H   A 
LOAD_MIN_TIME. . .  C ADDR   0AF1H   A 
SET_STARTUP_PWM. .  C ADDR   09D0H   A 
GOVERNOR_STORE_IN~  C ADDR   0812H   A 
GOVERNOR_ACTIVATE~  C ADDR   0778H   A 
T2H_INT_EXIT . . .  C ADDR   0352H   A 
GOV_GAIN_TABLE . .  C ADDR   0080H   A 
T3_INT . . . . . .  C ADDR   035CH   A 
PGM_MOTOR_IDLE . .  I ADDR   0085H   A 
TX_PGM_PARAVAL_NO.  D ADDR   0075H   A 
ADC_CONVERSION_CNT  D ADDR   0070H   A 
GOV_ARM_TARGET . .  D ADDR   004AH   A 
RCP_PPM. . . . . .  N NUMB   0004h            
RCP_OUTSIDE_RANGE~  D ADDR   0029H   A 
DEFAULT_PGM_TAIL_~  N NUMB   0001h            
DEFAULT_PGM_TAIL_~  N NUMB   0003h            
BPFET. . . . . . .  N NUMB   0005h            
ADC_LIMIT_L. . . .  N NUMB   0000h            
EEP_ESC_LAYOUT . .  C ADDR   1A40H   A 
TMR4RLL. . . . . .  D ADDR   0092H   A 
TMR2L. . . . . . .  D ADDR   00CCH   A 
TL1. . . . . . . .  D ADDR   008BH   A 
SN0. . . . . . . .  D ADDR   00ABH   A 
PCA0CPH2 . . . . .  D ADDR   00ECH   A 
GRAUPNER_ULTRA_20~  N NUMB   00D0h            
FLYCOLOR_FAIRY_30~  N NUMB   00C9h            
ROTORGEEKS_20A_MU~  N NUMB   00C3h            
EMAX_20A_MAIN. . .  N NUMB   00ACh            
TAROT_30A_MAIN . .  N NUMB   00A6h            
ALIGN_RCE_BL15P_M~  N NUMB   006Fh            
DP_3A_MULTI. . . .  N NUMB   0018h            
GET2 . . . . . . .  C ADDR   1D99H   A 
FUNC_PARAVAL . . .  C ADDR   186BH   A 
WAIT1S_LOOP. . . .  C ADDR   17D6H   A 
STORE_MULTI_FUNC_1  C ADDR   179AH   A 
RUN6_CHECK_DIR_REV  C ADDR   1630H   A 
AVERAGE_THROTTLE_~  C ADDR   10FFH   A 
CALC_GOVERNOR_PRO~  C ADDR   0876H   A 
GOVERNOR_INT_MIN_~  C ADDR   080DH   A 
GOVERNOR_LIMIT_PR~  C ADDR   07B2H   A 
BEEP_F1. . . . . .  C ADDR   064AH   A 
PCA_INT_PPM_OUTSI~  C ADDR   051AH   A 
EEP_PGM_BEACON_DE~  C ADDR   1A1DH   A 
EEP_PGM_BEACON_ST~  C ADDR   1A1CH   A 
TAG_TEMPORARY_STO~  I ADDR   00D0H   A 
PGM_MOTOR_GAIN . .  I ADDR   0084H   A 
CURRENT_AVERAGE_T~  D ADDR   0071H   A 
PWM_SPOOLUP_BEG. .  D ADDR   0064H   A 
PWM_LIMIT. . . . .  D ADDR   0061H   A 
DEFAULT_PGM_MULTI~  N NUMB   0001h            
DEFAULT_PGM_MULTI~  N NUMB   0001h            
DEFAULT_PGM_TAIL_~  N NUMB   0001h            
DEFAULT_PGM_MAIN_~  N NUMB   0007h            
CPFET. . . . . . .  N NUMB   0006h            
LOCK_BYTE_ADDRESS~  N NUMB   3FFFh            
SPIF . . . . . . .  B ADDR   00F8H.7 A 
T2SPLIT. . . . . .  B ADDR   00C8H.3 A 
TMR5RLL. . . . . .  D ADDR   00CAH   A 
TMR3L. . . . . . .  D ADDR   0094H   A 
SN1. . . . . . . .  D ADDR   00ACH   A 
ALIGN_RCE_BL35P_T~  N NUMB   0074h            
GET3 . . . . . . .  C ADDR   1DBDH   A 
STORE_MULTI_FUNC_2  C ADDR   179FH   A 
INITIAL_RUN_PHASE~  C ADDR   1613H   A 
TEST_THROTTLE_GAIN  C ADDR   10D4H   A 
COMM23_FETS_DONE_~  C ADDR   0E3BH   A 
CALC_NEXT_COMM_ST~  C ADDR   0A54H   A 
GOVERNOR_STORE_PR~  C ADDR   0874H   A 
GOVERNOR_CHECK_PR~  C ADDR   0838H   A 
MULT_S16_BY_U8_PO~  C ADDR   06EDH   A 
DIV_U16_BY_U16 . .  C ADDR   069BH   A 
BEEP_ONOFF . . . .  C ADDR   0668H   A 
BEEP_F2. . . . . .  C ADDR   0651H   A 
PCA_INT_PPM_BIDIR~  C ADDR   0561H   A 
PCA_INT_CHECK_DIFF  C ADDR   04A6H   A 
T2_INT_SKIP_START.  C ADDR   0238H   A 
PWM_AFET . . . . .  C ADDR   0176H   A 
T0_INT_PWM_OFF_FU~  C ADDR   0166H   A 
EEP_PGM_ENABLE_PO~  C ADDR   1A24H   A 
_EEP_PGM_GOV_RANGE  C ADDR   1A17H   A 
EEPROM_LAYOUT_REV~  N NUMB   0014h            
PGM_GOV_MODE . . .  I ADDR   0082H   A 
PREV_COMM_L. . . .  D ADDR   0039H   A 
DEFAULT_PGM_MULTI~  N NUMB   0001h            
P0_INIT. . . . . .  N NUMB   00FFh            
PS0. . . . . . . .  B ADDR   00B8H.4 A 
TMR4L. . . . . . .  D ADDR   0094H   A 
SN2. . . . . . . .  D ADDR   00ADH   A 
SFRPGCN. . . . . .  D ADDR   00CFH   A 
PCA0CPL0 . . . . .  D ADDR   00FBH   A 
CRC0FLIP . . . . .  D ADDR   009AH   A 
XROTOR_10A_MAIN. .  N NUMB   00B5h            
EMAX_40A_MAIN. . .  N NUMB   00AFh            
ALIGN_RCE_BL35P_M~  N NUMB   0075h            
ALIGN_RCE_BL15X_M~  N NUMB   006Ah            
TURNIGY_KFORCE_70~  N NUMB   004Fh            
TURNIGY_KFORCE_40~  N NUMB   004Ch            
XP_25A_MAIN. . . .  N NUMB   0010h            
INIT . . . . . . .  C ADDR   1C00H   A 
PARAVAL_NO_ENTRY .  C ADDR   1865H   A 
STORE_MULTI_FUNC_3  C ADDR   17A4H   A 
RUN6_BRAKE_DONE. .  C ADDR   1649H   A 
SUCCESS_BEEP_INVE~  C ADDR   180BH   A 
SUCCESS_BEEP . . .  C ADDR   17DCH   A 
FIND_THROTTLE_GAIN  C ADDR   10ACH   A 
DECODE_SETTINGS. .  C ADDR   1061H   A 
RUN_TO_WAIT_FOR_P~  C ADDR   1667H   A 
TEMP_AVERAGE_INC_~  C ADDR   0962H   A 
GOVERNOR_INT_MAX_~  C ADDR   0805H   A 
GOVERNOR_LIMIT_IN~  C ADDR   07E5H   A 
BEEP_F3. . . . . .  C ADDR   0658H   A 
PCA_INT_FAIL_MINI~  C ADDR   03BFH   A 
PWM_BFET . . . . .  C ADDR   0180H   A 
T0_INT_PWM_OFF_EX~  C ADDR   0159H   A 
SPOOLUP_LIMIT_CNT.  D ADDR   0069H   A 
FULL_THROTTLE_RAN~  N NUMB   0007h            
RCP_PWM_FREQ_12KHZ  N NUMB   0004h            
SKIP_DAMP_ON . . .  N NUMB   0006h            
P1_INIT. . . . . .  N NUMB   0002h            
RTX_SKIP . . . . .  N NUMB   00D4h            
TEMP_LIMIT . . . .  N NUMB   0072h            
TF2H . . . . . . .  B ADDR   00C8H.7 A 
PT0. . . . . . . .  B ADDR   00B8H.1 A 
TMR5L. . . . . . .  D ADDR   00CCH   A 
TMOD . . . . . . .  D ADDR   0089H   A 
TCON . . . . . . .  D ADDR   0088H   A 
SN3. . . . . . . .  D ADDR   00AEH   A 
PCA0CPM0 . . . . .  D ADDR   00DAH   A 
PCA0CPL1 . . . . .  D ADDR   00E9H   A 
FLSCL. . . . . . .  D ADDR   00B6H   A 
FVT_LITTLEBEE_20A~  N NUMB   00CBh            
MDRX62H_TAIL . . .  N NUMB   00BFh            
XROTOR_20A_MAIN. .  N NUMB   00B8h            
PLATINUM_PRO_150A~  N NUMB   009Dh            
TURNIGY_PLUSH_NFE~  N NUMB   003Ah            
XP_12A_TAIL. . . .  N NUMB   000Bh            
UART_LOOP. . . . .  N NUMB   001Ah            
STORE_MULTI_FUNC_4  C ADDR   17A9H   A 
DAMPED_TRANSITION.  C ADDR   14E2H   A 
BEEP_DELAY_SET . .  C ADDR   13DCH   A 
PROGRAM_BY_TX_ENT~  C ADDR   12E4H   A 
LOCK_BYTE_OK . . .  C ADDR   112DH   A 
AVERAGE_THROTTLE_~  C ADDR   10F0H   A 
DECODE_PWM_FREQ_L~  C ADDR   105BH   A 
COMM61_FETS_DONE_~  C ADDR   0F73H   A 
COMP_READ_WRONG_L~  C ADDR   0D25H   A 
SET_PWM_LIMIT_LOW~  C ADDR   0917H   A 
BEEP_F4. . . . . .  C ADDR   065FH   A 
PCA_INT_PPM_MAX_C~  C ADDR   05A7H   A 
PCA_INT_RESTORE_E~  C ADDR   0490H   A 
T2_INT_CURRENT_PW~  C ADDR   02F3H   A 
PWM_CFET . . . . .  C ADDR   018AH   A 
EEP_PGM_GOV_P_GAIN  C ADDR   1A03H   A 
PGM_STARTUP_PWR_D~  I ADDR   00A6H   A 
_PGM_STARTUP_METH~  I ADDR   0095H   A 
_PGM_VOLT_COMP . .  I ADDR   0091H   A 
PGM_GOV_I_GAIN . .  I ADDR   0081H   A 
RCP_EDGE_NO. . . .  N NUMB   0001h            
DEMAG_CUT_POWER. .  N NUMB   0006h            
DEFAULT_PGM_MAIN_~  N NUMB   0078h            
P2_INIT. . . . . .  N NUMB   00FFh            
DAMPED_MODE_ENABLE  N NUMB   0001h            
NSSMD0 . . . . . .  B ADDR   00F8H.2 A 
WCOL . . . . . . .  B ADDR   00F8H.6 A 
AD0CM0 . . . . . .  B ADDR   00E8H.0 A 
CR . . . . . . . .  B ADDR   00D8H.6 A 
RS0. . . . . . . .  B ADDR   00D0H.3 A 
T5SPLIT. . . . . .  B ADDR   00C8H.3 A 
PT1. . . . . . . .  B ADDR   00B8H.3 A 
REN0 . . . . . . .  B ADDR   0098H.4 A 
SPI0DAT. . . . . .  D ADDR   00A3H   A 
PCA0MD . . . . . .  D ADDR   00D9H   A 
PCA0CPM1 . . . . .  D ADDR   00DBH   A 
PCA0CPL2 . . . . .  D ADDR   00EBH   A 
PCA0CN . . . . . .  D ADDR   00D8H   A 
FVT_LITTLEBEE_30A~  N NUMB   00CEh            
FVT_LITTLEBEE_20A~  N NUMB   00CCh            
MDRX62H_MULTI. . .  N NUMB   00C0h            
H_KING_10A_MAIN. .  N NUMB   0079h            
ALIGN_RCE_BL35X_M~  N NUMB   0070h            
RCTIMER_6A_TAIL. .  N NUMB   0068h            
TURNIGY_PLUSH_NFE~  N NUMB   003Eh            
XP_18A_MAIN. . . .  N NUMB   000Dh            
XP_12A_MULTI . . .  N NUMB   000Ch            
XP_7A_FAST_TAIL. .  N NUMB   0008h            
PROGRAM_BY_TX_EXIT  C ADDR   18D0H   A 
STORE_MULTI_FUNC_5  C ADDR   17AEH   A 
READ_EEPROM_BYTE .  C ADDR   1735H   A 
THROTTLE_LOW_CAL .  C ADDR   1338H   A 
COMP_READ_WRONG. .  C ADDR   0CEEH   A 
STORE_TIMES_UP_OR~  C ADDR   0C03H   A 
STORE_TIMES_DECRE~  C ADDR   0C10H   A 
TEMP_AVERAGE_UPDA~  C ADDR   097AH   A 
SET_PWM_LIMIT_HIG~  C ADDR   092BH   A 
GOVERNOR_APPLY_IN~  C ADDR   08A9H   A 
GOVERNOR_LIMIT_PR~  C ADDR   0843H   A 
BEEP_OFF . . . . .  C ADDR   0691H   A 
WAIT10MS . . . . .  C ADDR   062BH   A 
T2_INT_CURRENT_PW~  C ADDR   02D1H   A 
PWM_AFET_DAMPED_E~  C ADDR   01A3H   A 
T0_INT_PWM_ON_EXIT  C ADDR   00F5H   A 
EEP_PGM_BEC_VOLTA~  C ADDR   1A20H   A 
EEP_INITIALIZED_H.  C ADDR   1A0EH   A 
EEP_PGM_INPUT_POL.  C ADDR   1A0CH   A 
EEPROM_FW_MAIN_RE~  N NUMB   000Eh            
PGM_PWM_DITHER . .  I ADDR   00A3H   A 
PGM_COMM_TIMING. .  I ADDR   0092H   A 
TX_PGM_FUNC_NO . .  D ADDR   0074H   A 
INITIAL_RUN_ROT_C~  D ADDR   0034H   A 
MOTOR_SPINNING . .  N NUMB   0000h            
CURRENT_PWM. . . .  D ADDR   0024H   A 
P0_SKIP. . . . . .  N NUMB   FFFFFFDFh            
DEFAULT_PGM_MAIN_~  N NUMB   0009h            
NSSMD1 . . . . . .  B ADDR   00F8H.3 A 
AD0CM1 . . . . . .  B ADDR   00E8H.1 A 
AD0TM. . . . . . .  B ADDR   00E8H.6 A 
RS1. . . . . . . .  B ADDR   00D0H.4 A 
F0 . . . . . . . .  B ADDR   00D0H.5 A 
PT2. . . . . . . .  B ADDR   00B8H.5 A 
TR0. . . . . . . .  B ADDR   0088H.4 A 
TMR2CN . . . . . .  D ADDR   00C8H   A 
PCA0CPM2 . . . . .  D ADDR   00DCH   A 
GRAUPNER_ULTRA_20~  N NUMB   00D1h            
FVT_LITTLEBEE_30A~  N NUMB   00CFh            
XROTOR_40A_MAIN. .  N NUMB   00BBh            
EMAX_20A_TAIL. . .  N NUMB   00ADh            
TAROT_30A_TAIL . .  N NUMB   00A7h            
H_KING_20A_MAIN. .  N NUMB   007Ch            
RCTIMER_6A_MULTI .  N NUMB   0069h            
HIMODEL_COOL_22A_~  N NUMB   005Eh            
TURNIGY_PLUSH_NFE~  N NUMB   003Fh            
TURNIGY_PLUSH_NFE~  N NUMB   0037h            
XP_7A_FAST_MULTI .  N NUMB   0009h            
GETW . . . . . . .  C ADDR   1D7BH   A 
STORE_MULTI_FUNC_6  C ADDR   17B3H   A 
READ_TAG . . . . .  C ADDR   177DH   A 
RESET_CAL_DONE . .  C ADDR   1153H   A 
DECODE_PARAMETERS.  C ADDR   1028H   A 
COMM45_FETS_DONE_~  C ADDR   0ED7H   A 
COMM23_NFET_OFF. .  C ADDR   0E19H   A 
STORE_TIMES_INCRE~  C ADDR   0BA6H   A 
MEASURE_LIPO_CELLS  C ADDR   0930H   A 
CALC_GOVERNOR_INT~  C ADDR   07BBH   A 
PCA_INT_PPM_CALCU~  C ADDR   0543H   A 
PCA_INT_EXIT . . .  C ADDR   060FH   A 
T2_INT_RCP_UPDATE~  C ADDR   0265H   A 
PWM_BFET_DAMPED_E~  C ADDR   01B4H   A 
RCP_PERIOD_DIFF_A~  D ADDR   005BH   A 
COMPARATOR_READ_C~  D ADDR   0041H   A 
STARTUP_CNT. . . .  D ADDR   0033H   A 
PWM_TIMER0_OVERFL~  N NUMB   0003h            
RCP_TIMEOUT_PPM. .  N NUMB   000Ah            
DEFAULT_PGM_MAIN_~  N NUMB   0001h            
P1_SKIP. . . . . .  N NUMB   0002h            
AD0CM2 . . . . . .  B ADDR   00E8H.2 A 
AD0WINT. . . . . .  B ADDR   00E8H.3 A 
F1 . . . . . . . .  B ADDR   00D0H.1 A 
TF5H . . . . . . .  B ADDR   00C8H.7 A 
TR1. . . . . . . .  B ADDR   0088H.6 A 
TMR3CN . . . . . .  D ADDR   0091H   A 
P0SKIP . . . . . .  D ADDR   00D4H   A 
EIP1H. . . . . . .  D ADDR   0085H   A 
GRAUPNER_ULTRA_20~  N NUMB   00D2h            
EMAX_20A_MULTI . .  N NUMB   00AEh            
TAROT_30A_MULTI. .  N NUMB   00A8h            
HIMODEL_COOL_41A_~  N NUMB   0064h            
TURNIGY_PLUSH_6A_~  N NUMB   001Ch            
GETX . . . . . . .  C ADDR   1D89H   A 
STORE_MULTI_FUNC_7  C ADDR   17B8H   A 
RUN6_CHECK_SPEED .  C ADDR   163FH   A 
WAIT_FOR_POWER_ON~  C ADDR   1405H   A 
SWITCH_POWER_OFF .  C ADDR   0FAAH   A 
COMP_READ_WRONG_N~  C ADDR   0D05H   A 
CALC_NEW_WAIT_PER~  C ADDR   0AC9H   A 
WAIT30MS . . . . .  C ADDR   0630H   A 
PCA_INT_PPM_BIDIR~  C ADDR   0598H   A 
PCA_INT_CHECK_1KHZ  C ADDR   047FH   A 
T2H_INT. . . . . .  C ADDR   0318H   A 
PWM_CFET_DAMPED_E~  C ADDR   01C5H   A 
MOTOR_PWM_REMAP. .  C ADDR   00AAH   A 
GOV_INTEGRAL_X . .  D ADDR   0046H   A 
COMP_TIMED_OUT . .  N NUMB   0004h            
DEFAULT_PGM_MULTI~  N NUMB   0009h            
NFETON_DELAY . . .  N NUMB   000Ch            
EEP_ESC_MCU. . . .  C ADDR   1A50H   A 
AD0BUSY. . . . . .  B ADDR   00E8H.4 A 
T2XCLK . . . . . .  B ADDR   00C8H.0 A 
TR2. . . . . . . .  B ADDR   00C8H.2 A 
TF2L . . . . . . .  B ADDR   00C8H.6 A 
STA0 . . . . . . .  B ADDR   00C0H.5 A 
PX0. . . . . . . .  B ADDR   00B8H.0 A 
TS0DATH. . . . . .  D ADDR   00D3H   A 
TMR4CN . . . . . .  D ADDR   0091H   A 
PCA0PWM. . . . . .  D ADDR   00F7H   A 
P1SKIP . . . . . .  D ADDR   00D5H   A 
EIP2H. . . . . . .  D ADDR   0086H   A 
XROTOR_10A_TAIL. .  N NUMB   00B6h            
EMAX_40A_TAIL. . .  N NUMB   00B0h            
EAZY_3AV2_MAIN . .  N NUMB   00A3h            
ALIGN_RCE_BL15X_T~  N NUMB   006Bh            
HIMODEL_COOL_33A_~  N NUMB   0061h            
TURNIGY_KFORCE_70~  N NUMB   0050h            
TURNIGY_KFORCE_40~  N NUMB   004Dh            
XP_25A_TAIL. . . .  N NUMB   0011h            
RST. . . . . . . .  C ADDR   1CBDH   A 
SUCCESS. . . . . .  N NUMB   0030h            
BOOT_VERSION . . .  N NUMB   0006h            
XTAL . . . . . . .  N NUMB   17D7840h            
FUNC_PARAVAL_CONT~  C ADDR   189CH   A 
WAIT1S . . . . . .  C ADDR   17D4H   A 
STORE_MULTI_FUNC_8  C ADDR   17BDH   A 
WRITE_TAGS . . . .  C ADDR   1787H   A 
RUN_TO_WAIT_FOR_P~  C ADDR   166FH   A 
COMM61_NFET_OFF. .  C ADDR   0F51H   A 
EVAL_COMP_CHECK_T~  C ADDR   0D60H   A 
COMP_WAIT_ON_COMP~  C ADDR   0CAFH   A 
ADJUST_TIMING_TWO~  C ADDR   0B8DH   A 
INITIALIZE_TIMING.  C ADDR   09F0H   A 
CHECK_VOLTAGE_RET.  C ADDR   09CFH   A 
GOVERNOR_ACTIVATE~  C ADDR   077FH   A 
WAITXMS_M. . . . .  C ADDR   0641H   A 
PCA_INT_CHECK_2KHZ  C ADDR   046EH   A 
PGM_BEACON_DELAY .  I ADDR   009AH   A 
PGM_BEACON_STRENG~  I ADDR   0099H   A 
WT_ADV_START_H . .  D ADDR   004CH   A 
GOV_TARGET_H . . .  D ADDR   0043H   A 
MOTOR_PPM_REMAP_T~  N NUMB   001Dh            
DEFAULT_PGM_MAIN_~  N NUMB   0007h            
STA1 . . . . . . .  B ADDR   00C0H.5 A 
PX1. . . . . . . .  B ADDR   00B8H.2 A 
TMR5CN . . . . . .  D ADDR   00C8H   A 
SMBTC. . . . . . .  D ADDR   00C7H   A 
P2SKIP . . . . . .  D ADDR   00D6H   A 
IP . . . . . . . .  D ADDR   00B8H   A 
CRC0CN . . . . . .  D ADDR   00DFH   A 
XROTOR_20A_TAIL. .  N NUMB   00B9h            
XROTOR_10A_MULTI .  N NUMB   00B7h            
EMAX_40A_MULTI . .  N NUMB   00B1h            
SKYIII_30A_MAIN. .  N NUMB   00A9h            
PLATINUM_PRO_150A~  N NUMB   009Eh            
POLARIS_THUNDER_2~  N NUMB   0088h            
H_KING_50A_MAIN. .  N NUMB   0082h            
GAUI_GE_183_18A_M~  N NUMB   0076h            
ALIGN_RCE_BL15X_M~  N NUMB   006Ch            
TURNIGY_KFORCE_70~  N NUMB   0051h            
TURNIGY_KFORCE_40~  N NUMB   004Eh            
TURNIGY_PLUSH_NFE~  N NUMB   003Bh            
XP_25A_MULTI . . .  N NUMB   0012h            
EXIT . . . . . . .  C ADDR   1CB4H   A 
BOOT_MSG . . . . .  C ADDR   1DDCH   A 
STORE_MULTI_FUNC_9  C ADDR   17C2H   A 
READ_INITIAL_TEMP.  C ADDR   145EH   A 
WAIT_FOR_POWER_ON~  C ADDR   13F9H   A 
DECODE_PWM_FREQ_E~  C ADDR   1060H   A 
WAIT_FOR_COMM_WAIT  C ADDR   0DC7H   A 
START_ADC_CONVERS~  C ADDR   0934H   A 
MULT_S16_BY_U8_EX~  C ADDR   0721H   A 
PCA_INT_PPM_LIMIT~  C ADDR   05B9H   A 
GET_RCP_END. . . .  C ADDR   0396H   A 
T2H_INT_RCP_GOV_P~  C ADDR   0352H   A 
T2_INT_PWM_MIN_RUN  C ADDR   028DH   A 
PWM_DITHER_TABLE .  C ADDR   009AH   A 
EEP_NAME . . . . .  C ADDR   1A60H   A 
EEP_INITIALIZED_L.  C ADDR   1A0DH   A 
PGM_ENABLE_POWER_~  I ADDR   00A1H   A 
PWM_DITHER_DECODED  D ADDR   0066H   A 
PWM_LIMIT_BY_RPM .  D ADDR   0063H   A 
LOW_RPM_PWR_SLOPE.  D ADDR   0038H   A 
BIT_ACCESS_INT . .  D ADDR   0021H   A 
DEFAULT_PGM_TAIL_~  N NUMB   00FAh            
COMP_COMM. . . . .  N NUMB   0001h            
PFETON_DELAY . . .  N NUMB   000Ch            
HIGH_BEC_VOLTAGE .  N NUMB   0000h            
PSW. . . . . . . .  D ADDR   00D0H   A 
XROTOR_20A_MULTI .  N NUMB   00BAh            
PLATINUM_PRO_150A~  N NUMB   009Fh            
POLARIS_THUNDER_3~  N NUMB   008Bh            
POLARIS_THUNDER_1~  N NUMB   0085h            
H_KING_10A_TAIL. .  N NUMB   007Ah            
ALIGN_RCE_BL35X_T~  N NUMB   0071h            
TURNIGY_PLUSH_NFE~  N NUMB   003Ch            
XP_18A_TAIL. . . .  N NUMB   000Eh            
WAITF. . . . . . .  C ADDR   1DC9H   A 
BOOT_BAUDRATE. . .  N NUMB   4B00h            
STORE_IN_RAM_EXIT.  C ADDR   17D1H   A 
VALIDATE_RCP_START  C ADDR   1283H   A 
LOCK_BYTE_TEST . .  C ADDR   1126H   A 
COMM45_NFET_OFF. .  C ADDR   0EB5H   A 
COMM12_REV . . . .  C ADDR   0DECH   A 
COMM1COMM2 . . . .  C ADDR   0DD8H   A 
WAIT_BEFORE_ZC_SC~  C ADDR   0C21H   A 
TEMP_AVERAGE_UPDA~  C ADDR   0978H   A 
TEMP_AVERAGE_DEC .  C ADDR   096EH   A 
CALC_GOVERNOR_PRO~  C ADDR   0819H   A 
WAITXMS_O. . . . .  C ADDR   063FH   A 
PCA_INT_PPM_TIMEO~  C ADDR   0604H   A 
PCA_INT_CHECK_4KHZ  C ADDR   045DH   A 
T0_INT_PWM_OFF . .  C ADDR   0116H   A 
T0_INT_START . . .  C ADDR   00DCH   A 
EEPROM_FW_SUB_REV~  N NUMB   0003h            
PGM_GOV_RANGE. . .  I ADDR   0094H   A 
GOV_PROPORTIONAL_H  D ADDR   0048H   A 
DEFAULT_PGM_MULTI~  N NUMB   0028h            
RCP_IN . . . . . .  N NUMB   0005h            
DEFAULT_PGM_TAIL_~  N NUMB   0009h            
ONE_S_CAPABLE. . .  N NUMB   0000h            
T5XCLK . . . . . .  B ADDR   00C8H.0 A 
TR5. . . . . . . .  B ADDR   00C8H.2 A 
TF5L . . . . . . .  B ADDR   00C8H.6 A 
SMB0CF . . . . . .  D ADDR   00C1H   A 
FLKEY. . . . . . .  D ADDR   00B7H   A 
ADC0GTH. . . . . .  D ADDR   00C4H   A 
XROTOR_40A_TAIL. .  N NUMB   00BCh            
POLARIS_THUNDER_4~  N NUMB   008Eh            
H_KING_20A_TAIL. .  N NUMB   007Dh            
H_KING_10A_MULTI .  N NUMB   007Bh            
ALIGN_RCE_BL35X_M~  N NUMB   0072h            
HIMODEL_COOL_22A_~  N NUMB   005Fh            
TURNIGY_PLUSH_NFE~  N NUMB   0038h            
XP_18A_MULTI . . .  N NUMB   000Fh            
PUTC . . . . . . .  C ADDR   1D5CH   A 
BIT_REG. . . . . .  D ADDR   0020H   A 
CMDH . . . . . . .    REG    R5             
READ_EEPROM_EXIT .  C ADDR   16F2H   A 
WAIT_FOR_POWER_ON~  C ADDR   13B9H   A 
INPUT_HIGH_CHECK_1  C ADDR   11AAH   A 
CHECK_VOLTAGE_STA~  C ADDR   09A0H   A 
SET_PWM_LIMIT_LOW~  C ADDR   08D3H   A 
CALC_GOVERNOR_INT~  C ADDR   08D2H   A 
GOVERNOR_LIMIT_IN~  C ADDR   07EEH   A 
MULT_S16_BY_U8_DI~  C ADDR   0706H   A 
BEEP . . . . . . .  C ADDR   0666H   A 
PCA_INT_PPM_BIDIR~  C ADDR   0566H   A 
PCA_INT_FALL . . .  C ADDR   04C1H   A 
T2_INT_PWM_EXIT. .  C ADDR   0302H   A 
T2_INT_SKIP_END. .  C ADDR   0243H   A 
TX_PGM_PARAMS_MUL~  C ADDR   009FH   A 
EEP_PGM_TEMP_PROT~  C ADDR   1A23H   A 
_EEP_PGM_THROTTLE~  C ADDR   1A1EH   A 
_EEP_PGM_STARTUP_~  C ADDR   1A12H   A 
PGM_GOV_I_GAIN_DE~  I ADDR   00A5H   A 
PGM_GOV_P_GAIN . .  I ADDR   0080H   A 
MAIN_SPOOLUP_TIME~  D ADDR   006CH   A 
COMM_PHASE . . . .  D ADDR   0040H   A 
PGM_PWMOFF_DAMPED.  N NUMB   0002h            
RCP_PREV_EDGE_H. .  D ADDR   0028H   A 
DEFAULT_PGM_TAIL_~  N NUMB   0001h            
P0_PUSHPULL. . . .  N NUMB   0000h            
DEFAULT_PGM_MULTI~  N NUMB   0009h            
CCF0 . . . . . . .  B ADDR   00D8H.0 A 
CY . . . . . . . .  B ADDR   00D0H.7 A 
MASTER0. . . . . .  B ADDR   00C0H.7 A 
RB80 . . . . . . .  B ADDR   0098H.2 A 
XBR0 . . . . . . .  D ADDR   00E1H   A 
TS0DATL. . . . . .  D ADDR   00D2H   A 
SPI0CKR. . . . . .  D ADDR   00A2H   A 
SMB1CF . . . . . .  D ADDR   00C1H   A 
PFE0CN . . . . . .  D ADDR   00B5H   A 
EMI0CN . . . . . .  D ADDR   00AAH   A 
DPH. . . . . . . .  D ADDR   0083H   A 
CPT0MX . . . . . .  D ADDR   009FH   A 
XROTOR_40A_MULTI .  N NUMB   00BDh            
EMAX_NANO_20A_MAIN  N NUMB   00B2h            
PLATINUM_50AV3_MA~  N NUMB   00A0h            
H_KING_35A_MAIN. .  N NUMB   007Fh            
H_KING_20A_MULTI .  N NUMB   007Eh            
HIMODEL_COOL_41A_~  N NUMB   0065h            
HIMODEL_COOL_22A_~  N NUMB   0060h            
TURNIGY_PLUSH_NFE~  N NUMB   0039h            
TURNIGY_PLUSH_6A_~  N NUMB   001Dh            
WAITH. . . . . . .  C ADDR   1DCDH   A 
ERASE_FLASH. . . .  C ADDR   174EH   A 
RUN_TO_WAIT_FOR_P~  C ADDR   1672H   A 
PROGRAM_BY_TX. . .  C ADDR   1859H   A 
INPUT_HIGH_CHECK_2  C ADDR   11ACH   A 
COMM23_NONDAMP . .  C ADDR   0E43H   A 
COMM2COMM3 . . . .  C ADDR   0DFDH   A 
CALC_NEXT_COMM_AV~  C ADDR   0A70H   A 
GOVERNOR_STORE_IN~  C ADDR   08D0H   A 
GOVERNOR_CHECK_IN~  C ADDR   0892H   A 
GOVERNOR_CORR_PRO~  C ADDR   0861H   A 
GOVERNOR_ACTIVATE~  C ADDR   076CH   A 
T2_INT_START . . .  C ADDR   01E3H   A 
PWM_AFET_DAMPED. .  C ADDR   0194H   A 
_EEP_PGM_GOV_SETU~  C ADDR   1A11H   A 
EEP_PGM_DIRECTION.  C ADDR   1A0BH   A 
EEP_PGM_PWM_FREQ .  C ADDR   1A0AH   A 
PGM_BEC_VOLTAGE_H~  I ADDR   009DH   A 
PGM_INPUT_POL. . .  I ADDR   0089H   A 
NEXT_WT_START_H. .  D ADDR   0054H   A 
WT_ADV_START_L . .  D ADDR   004BH   A 
GOV_TARGET_L . . .  D ADDR   0042H   A 
DEMAG_PWR_OFF_THR~  D ADDR   0037H   A 
FLAGS0 . . . . . .  D ADDR   002CH   A 
CURRENT_PWM_LIMIT~  D ADDR   0025H   A 
COMM_TIME_MIN. . .  N NUMB   0001h            
MOTOR_PPM_REMAP_T~  N NUMB   0099h            
DEFAULT_PGM_MULTI~  N NUMB   0002h            
P1_PUSHPULL. . . .  N NUMB   00FCh            
P0_DIGITAL . . . .  N NUMB   FFFFFFF0h            
CCF1 . . . . . . .  B ADDR   00D8H.1 A 
MASTER1. . . . . .  B ADDR   00C0H.7 A 
XBR1 . . . . . . .  D ADDR   00E2H   A 
OSCICL . . . . . .  D ADDR   00B3H   A 
EAZY_3AV2_TAIL . .  N NUMB   00A4h            
POLARIS_THUNDER_6~  N NUMB   0091h            
HIMODEL_COOL_41A_~  N NUMB   0066h            
HIMODEL_COOL_33A_~  N NUMB   0062h            
TURNIGY_AE_20A_MA~  N NUMB   0040h            
TURNIGY_PLUSH_6A_~  N NUMB   001Eh            
XP_35A_SW_MAIN . .  N NUMB   0013h            
ID1. . . . . . . .  C ADDR   1C47H   A 
FUNC_PARAVAL_STORE  C ADDR   188BH   A 
WRITE_EEPROM_BYTE~  C ADDR   173AH   A 
READ_EEPROM_BLOCK1  C ADDR   16DAH   A 
READ_EEPROM_READ .  C ADDR   16D3H   A 
COMM23_DAMP_REV. .  C ADDR   0E23H   A 
CALC_NEW_WAIT_TIM~  C ADDR   0BE3H   A 
LOAD_MIN_TIME_FAST  C ADDR   0B3CH   A 
MEASURE_LIPO_EXIT.  C ADDR   0933H   A 
GOVERNOR_LIMIT_PR~  C ADDR   0849H   A 
GOVERNOR_CHECK_PR~  C ADDR   079FH   A 
PCA_INT_SECOND_ME~  C ADDR   03E8H   A 
T2H_INT_RCP_STOP_~  C ADDR   0335H   A 
PWM_BFET_DAMPED. .  C ADDR   01A5H   A 
PCA_INT. . . . . .  C ADDR   0376H   A 
EEP_PGM_PPM_CENTE~  C ADDR   1A21H   A 
FLAGS1 . . . . . .  D ADDR   002DH   A 
TEMP_CHECK_RATE. .  N NUMB   0008h            
MOTOR_PPM_HIGH_SL~  N NUMB   008Eh            
DEFAULT_PGM_ENABL~  N NUMB   0001h            
DEFAULT_PGM_TAIL_~  N NUMB   0004h            
DEFAULT_PGM_MAIN_~  N NUMB   0003h            
P2_PUSHPULL. . . .  N NUMB   0010h            
P1_DIGITAL . . . .  N NUMB   FFFFFFFDh            
CCF2 . . . . . . .  B ADDR   00D8H.2 A 
TB80 . . . . . . .  B ADDR   0098H.3 A 
IE0. . . . . . . .  B ADDR   0088H.1 A 
REF0CN . . . . . .  D ADDR   00D1H   A 
CLKSEL . . . . . .  D ADDR   00A9H   A 
FLYCOLOR_FAIRY_6A~  N NUMB   00C4h            
SKYIII_30A_TAIL. .  N NUMB   00AAh            
EAZY_3AV2_MULTI. .  N NUMB   00A5h            
POLARIS_THUNDER_2~  N NUMB   0089h            
H_KING_50A_TAIL. .  N NUMB   0083h            
GAUI_GE_183_18A_T~  N NUMB   0077h            
HIMODEL_COOL_33A_~  N NUMB   0063h            
TURNIGY_AE_30A_MA~  N NUMB   0046h            
BOOT_INFO. . . . .  C ADDR   1DE0H   A 
ERRORVERIFY. . . .  N NUMB   00C0h            
READ_EEPROM_BLOCK2  C ADDR   16E8H   A 
MEASURE_PWM_FREQ_~  C ADDR   1220H   A 
COMM61_NONDAMP . .  C ADDR   0F7AH   A 
COMM6COMM1 . . . .  C ADDR   0F35H   A 
COMM34_REV . . . .  C ADDR   0E88H   A 
COMM3COMM4 . . . .  C ADDR   0E74H   A 
COMP_WAIT_NO_OF_R~  C ADDR   0C9EH   A 
WAIT_FOR_COMP_OUT~  C ADDR   0C6CH   A 
GOVERNOR_CORR_PRO~  C ADDR   0872H   A 
PCA_INT_PPM_BIDIR~  C ADDR   055AH   A 
PCA_INT_CHECK_8KHZ  C ADDR   044CH   A 
T2_INT_CURRENT_PW~  C ADDR   02EAH   A 
PWM_CFET_DAMPED. .  C ADDR   01B6H   A 
_EEP_PGM_MAIN_SPO~  C ADDR   1A22H   A 
_EEP_PGM_LOW_VOLT~  C ADDR   1A06H   A 
DAMPINGFET . . . .  D ADDR   007BH   A 
WT_ZC_SCAN_START_H  D ADDR   004EH   A 
GOV_PROP_PWM . . .  D ADDR   0049H   A 
GOV_PROPORTIONAL_L  D ADDR   0047H   A 
FLAGS2 . . . . . .  D ADDR   002EH   A 
DEMAG_DETECTED . .  N NUMB   0005h            
RCP_SKIP_CNT . . .  D ADDR   002BH   A 
CURRENT_PWM_LIM_D~  D ADDR   0026H   A 
DEFAULT_PGM_MULTI~  N NUMB   0009h            
P2_DIGITAL . . . .  N NUMB   FFFFFFF1h            
MCU_48MHZ. . . . .  N NUMB   0001h            
SPIEN. . . . . . .  B ADDR   00F8H.0 A 
ACK0 . . . . . . .  B ADDR   00C0H.1 A 
IE1. . . . . . . .  B ADDR   0088H.3 A 
REG0CN . . . . . .  D ADDR   00C9H   A 
OSCICN . . . . . .  D ADDR   00B2H   A 
CRC0IN . . . . . .  D ADDR   009CH   A 
CKCON1 . . . . . .  D ADDR   00F4H   A 
ADC0GTL. . . . . .  D ADDR   00C3H   A 
SKYIII_30A_MULTI .  N NUMB   00ABh            
POLARIS_THUNDER_8~  N NUMB   0094h            
POLARIS_THUNDER_3~  N NUMB   008Ch            
POLARIS_THUNDER_2~  N NUMB   008Ah            
POLARIS_THUNDER_1~  N NUMB   0086h            
H_KING_50A_MULTI .  N NUMB   0084h            
GAUI_GE_183_18A_M~  N NUMB   0078h            
TURNIGY_KFORCE_12~  N NUMB   0052h            
XP_3A_MAIN . . . .  N NUMB   0001h            



MODULE INFORMATION:   STATIC OVERLAYABLE
   CODE SIZE        =   6828    ----
   XDATA SIZE       =   ----    ----
   DATA SIZE        =    103    ----
   IDATA SIZE       =     87    ----
   BIT SIZE         =   ----    ----
END OF MODULE INFORMATION.


REGISTER BANK(S) USED : 0 

ASSEMBLY COMPLETE.   0 WARNING(S)   0 ERROR(S)
