LX51 CODE BANKING LINKER/LOCATOR V06.16.13.326                                 01/01/16  17:30:09
MS-DOS LX51 CODE BANKING LINKER/LOCATOR V06.16.13.326,  INVOKED BY:
C:\Raisonance\Ride\bin\lx51.exe Output\XROTOR_40A_REV14_3.OBJ TO(Output\XROTOR_40A_REV14_3.OMF) R&
S(256) PL(68) PW(78) OUTPUTSUMMARY LIBPATH(C:\Raisonance\Ride\lib\51) 


INPUT MODULES INCLUDED
  OUTPUT\XROTOR_40A_REV14_3.OBJ(BLHELI)


LINK MAP OF MODULE: OUTPUT\XROTOR_40A_REV14_3.OMF (XROTOR_40A_REV14_3)

    TYPE     BASE       LENGTH    RELOCATION     SEGMENT NAME
    ----     ----       ------    ----------     ------------

    * * * * * * *   DATA/IDATA    M E M O R Y   * * * * * * *
    REG      0000H      0008H     ABSOLUTE       "REG BANK 0"
             0008H      0018H                    *** GAP ***
    DATA     0020H      0010H     ABSOLUTE       
    

***WARNING 6: DATA SPACE MEMORY OVERLAP
   AT ADDRESS: 0020,(BLHELI,BLHELI)
    DATA     0020H      0009H     ABSOLUTE       
    DATA     0030H      004EH     ABSOLUTE       
             007EH      0002H                    *** GAP ***
    IDATA    0080H      0027H     ABSOLUTE       
             00A7H      0029H                    *** GAP ***
    IDATA    00D0H      0030H     ABSOLUTE       

    * * * * * * *   CODE          M E M O R Y   * * * * * * *
    CODE     0000H      0003H     ABSOLUTE       
             0003H      0008H                    *** GAP ***
    CODE     000BH      0003H     ABSOLUTE       
             000EH      001DH                    *** GAP ***
    CODE     002BH      0003H     ABSOLUTE       
             002EH      002DH                    *** GAP ***
    CODE     005BH      0003H     ABSOLUTE       
             005EH      0015H                    *** GAP ***
    CODE     0073H      0003H     ABSOLUTE       
             0076H      000AH                    *** GAP ***
    CODE     0080H      185EH     ABSOLUTE       
             18DEH      011FH                    *** GAP ***
    CODE     19FDH      0003H     ABSOLUTE       
    CODE     1A00H      0028H     ABSOLUTE       
             1A28H      0018H                    *** GAP ***
    CODE     1A40H      0010H     ABSOLUTE       
    CODE     1A50H      0010H     ABSOLUTE       
    CODE     1A60H      0010H     ABSOLUTE       
             1A70H      0190H                    *** GAP ***
    CODE     1C00H      01E4H     ABSOLUTE       

EXECUTABLE SUMMARY:
-------------------
    Total INTERNAL RAM storage requirement:  00BDH (189)
    Total EXTERNAL RAM storage requirement:  0000H (0)
    Total     CODE     storage requirement:  1AACH (6828)
Note:  Summary does not include dynamic stack requirements


REFERENCE MAP OF MODULE: OUTPUT\XROTOR_40A_REV14_3.OMF (XROTOR_40A_REV14_3)

SEGMENT                           BI_GROUP            DT_GROUP             ID_GROUP             XD_GROUP
  +--> CALLED SEGMENT          START    LENGTH     START    LENGTH     START    LENGTH     START    LENGTH
--------------------------------------------------------------------------------------

SYMBOL TABLE FOR OUTPUT\XROTOR_40A_REV14_3.OMF(BLHELI)
-------------------------------------------------------

    VALUE              TYPE               NAME
LX51 CODE BANKING LINKER/LOCATOR V06.16.13.326             01/01/16  17:30:09

    -----              ----               ----

	-------            MODULE             BLHELI
	C:1CC5H            SYMBOL             SET4
	C:1C52H            SYMBOL             ID3
	D:0028H            SYMBOL             BYTE_CNTH
	D:0023H            SYMBOL             CRCH
	C:1604H            SYMBOL             NORMAL_RUN_CHECK_STARTUP_ROT
	C:1094H            SYMBOL             DECODE_DEMAG_HIGH
	C:0F5BH            SYMBOL             COMM61_DAMP_REV
	C:0CA3H            SYMBOL             COMP_WAIT_ON_COMP_ABLE
	C:0C5AH            SYMBOL             WAIT_BEFORE_ZC_SCAN_EXIT
	C:0938H            SYMBOL             CHECK_TEMP_VOLTAGE_AND_LIMIT_POWER
	C:089EH            SYMBOL             GOVERNOR_LIMIT_INT_CORR_POS
	C:0866H            SYMBOL             GOVERNOR_CORR_NEG_PROP
	C:0511H            SYMBOL             PCA_INT_PPM_BELOW_FULL_RANGE
	C:02F5H            SYMBOL             T2_INT_CURRENT_PWM_NO_DITHER
	C:1A10H            SYMBOL             _EEP_MAIN_REARM_START
	D:0079H            SYMBOL             TIMER0_OVERFLOW_VALUE
	D:0072H            SYMBOL             PPM_THROTTLE_GAIN
	D:006FH            SYMBOL             LIPO_ADC_LIMIT_H
	D:005EH            SYMBOL             CURR_RCP_PWM_FREQ
	D:0058H            SYMBOL             RCP_EDGE_H
	D:002FH            SYMBOL             FLAGS3
	D:0027H            SYMBOL             RCP_PREV_EDGE_L
	B:00EDH            SYMBOL             AD0INT
	B:00C1H            SYMBOL             ACK1
	D:0099H            SYMBOL             SBUF0
	D:0080H            SYMBOL             P0
	D:0082H            SYMBOL             DPL
	D:00C6H            SYMBOL             ADC0LTH
	D:00BEH            SYMBOL             ADC0H
	C:1CCBH            SYMBOL             SET5
	C:1C5DH            SYMBOL             ID4
	C:1840H            SYMBOL             FUNCTION_BEEP
	C:1424H            SYMBOL             INIT_START
	C:12D3H            SYMBOL             PROGRAM_BY_TX_ENTRY_PWM
	C:10C6H            SYMBOL             FIND_THROTTLE_GAIN_CALCULATE
	C:0EDFH            SYMBOL             COMM45_NONDAMP
	C:0E99H            SYMBOL             COMM4COMM5
	C:0A9EH            SYMBOL             CALC_NEW_WAIT_TIMES_SETUP
	C:092AH            SYMBOL             SET_PWM_LIMIT_HIGH_RPM_INC_LIMIT
	C:08EFH            SYMBOL             SET_PWM_DEMAG_DONE
	C:048EH            SYMBOL             PCA_INT_RESTORE_EDGE_SET_MSB
	C:0341H            SYMBOL             T2H_INT_RCP_STOP
	C:0159H            SYMBOL             T0_INT_PWM_OFF_DAMP_DONE
	C:1A19H            SYMBOL             EEP_PGM_PPM_MIN_THROTTLE
	D:006DH            SYMBOL             MAIN_SPOOLUP_TIME_15X
	D:0068H            SYMBOL             RANDOM
	D:0065H            SYMBOL             PWM_MOTOR_IDLE
	D:005DH            SYMBOL             PREV_RCP_PWM_FREQ
	D:0053H            SYMBOL             NEXT_WT_START_L
	D:003EH            SYMBOL             COMM_PERIOD4X_H
	B:00C6H            SYMBOL             TXMODE0
	B:00AEH            SYMBOL             ESPI0
	D:00D3H            SYMBOL             SFRSTACK
	D:00EFH            SYMBOL             RSTSRC
	D:0090H            SYMBOL             P1
	D:0084H            SYMBOL             IPH
	D:009EH            SYMBOL             CRC0DAT
	D:00DDH            SYMBOL             CRC0AUTO
	D:00BCH            SYMBOL             ADC0CF
	C:1CD3H            SYMBOL             SET6
	C:1C6AH            SYMBOL             ID5
	C:184EH            SYMBOL             PARAVAL_BEEP
	C:17C7H            SYMBOL             STORE_MULTI_FUNC_10
	C:0EBFH            SYMBOL             COMM45_DAMP_REV
	C:0E55H            SYMBOL             COMM23_NFET_DONE
LX51 CODE BANKING LINKER/LOCATOR V06.16.13.326             01/01/16  17:30:09

	C:07F4H            SYMBOL             GOVERNOR_CHECK_PWM
	C:074FH            SYMBOL             GOVERNOR_ACTIVATE
	C:01A1H            SYMBOL             PWM_AFET_DAMPED_DONE
	C:1A0FH            SYMBOL             EEP_ENABLE_TX_PROGRAM
	D:0036H            SYMBOL             DEMAG_DETECTED_METRIC
	B:00CCH            SYMBOL             TF2CEN
	B:00C6H            SYMBOL             TXMODE1
	B:00C3H            SYMBOL             ACKRQ0
	D:00A0H            SYMBOL             P2
	D:00FDH            SYMBOL             P0MAT
	D:00E3H            SYMBOL             OSCLCN
	D:00F0H            SYMBOL             B
	C:1D7FH            SYMBOL             GETC
	D:0026H            SYMBOL             BIT_CNT
	C:17CCH            SYMBOL             STORE_MULTI_FUNC_11
	C:1765H            SYMBOL             WRITE_EEPROM_SIGNATURE
	C:13B4H            SYMBOL             WAIT_FOR_POWER_ON
	C:1336H            SYMBOL             THROTTLE_LOW_CAL_START
	C:16F3H            SYMBOL             ERASE_AND_STORE_ALL_IN_EEPROM
	C:12BCH            SYMBOL             ARMING_INITIAL_ARM_CHECK
	C:1382H            SYMBOL             PROGRAM_BY_TX_CHECKED
	C:10BFH            SYMBOL             FIND_THROTTLE_GAIN_CHECK_FULL
	C:0FBFH            SYMBOL             SET_DEFAULT_PARAMETERS
	C:0F24H            SYMBOL             COMM56_REV
	C:0F10H            SYMBOL             COMM5COMM6
	C:0E39H            SYMBOL             COMM23_NFET_OFF_REV
	C:0D3BH            SYMBOL             COMP_READ_OK
	C:0B3EH            SYMBOL             CALC_NEW_WAIT_TIMES_FAST_DONE
	C:09F7H            SYMBOL             CALC_NEXT_COMM_TIMING
	C:0785H            SYMBOL             CALC_GOVERNOR_TARGET_EXIT
	C:04B3H            SYMBOL             PCA_INT_STORE_DATA
	C:0286H            SYMBOL             T2_INT_RCP_GAIN_POS
	C:0248H            SYMBOL             T2_INT_RCP_UPDATE_START
	C:01B2H            SYMBOL             PWM_BFET_DAMPED_DONE
	C:19FDH            SYMBOL             RESET
	C:1A1AH            SYMBOL             EEP_PGM_PPM_MAX_THROTTLE
	I:00A4H            SYMBOL             PGM_GOV_P_GAIN_DECODED
	I:00A0H            SYMBOL             PGM_ENABLE_TEMP_PROT
	I:009BH            SYMBOL             _PGM_THROTTLE_RATE
	I:008FH            SYMBOL             _PGM_STARTUP_RPM
	D:0062H            SYMBOL             PWM_LIMIT_SPOOLUP
	D:0056H            SYMBOL             RCP_PREPREV_EDGE_H
	D:004DH            SYMBOL             WT_ZC_SCAN_START_L
	B:00C3H            SYMBOL             ACKRQ1
	D:0081H            SYMBOL             SP
	D:00C0H            SYMBOL             SMB0CN
	D:0098H            SYMBOL             SCON0
	D:00EDH            SYMBOL             P1MAT
	C:1D01H            SYMBOL             PRO3
	C:1DD6H            SYMBOL             BOOT_SIGN
	D:0027H            SYMBOL             BYTE_CNTL
	D:0025H            SYMBOL             BAUDH
	D:0022H            SYMBOL             CRCL
	C:18BFH            SYMBOL             FUNCTION_NEXT
	C:1300H            SYMBOL             THROTTLE_HIGH_CAL
	C:0F8CH            SYMBOL             COMM61_NFET_DONE
	C:0C09H            SYMBOL             STORE_TIMES_INCREASE_FAST
	C:09E5H            SYMBOL             STARTUP_PWM_SET_PWM
	C:01C3H            SYMBOL             PWM_CFET_DAMPED_DONE
	I:0088H            SYMBOL             PGM_DIRECTION
	I:0087H            SYMBOL             PGM_PWM_FREQ
	D:006EH            SYMBOL             LIPO_ADC_LIMIT_L
	D:0057H            SYMBOL             RCP_EDGE_L
	D:003FH            SYMBOL             COMM_DIFF
	D:0035H            SYMBOL             STALL_CNT
	B:00D6H            SYMBOL             AC
	D:00C0H            SYMBOL             SMB1CN
	D:00E7H            SYMBOL             SMB0ADM
LX51 CODE BANKING LINKER/LOCATOR V06.16.13.326             01/01/16  17:30:09

	D:00E6H            SYMBOL             EIE1
	D:00BAH            SYMBOL             AMX0N
	D:00C5H            SYMBOL             ADC0LTL
	D:00BDH            SYMBOL             ADC0L
	C:1D0DH            SYMBOL             PRO4
	C:1C7CH            SYMBOL             MAIN
	C:18A9H            SYMBOL             PARAVAL_NEXT
	C:1739H            SYMBOL             WRITE_EEPROM_BYTE
	C:126FH            SYMBOL             TEST_FOR_ONESHOT
	C:121CH            SYMBOL             MEASURE_PWM_FREQ_INIT
	C:0F71H            SYMBOL             COMM61_NFET_OFF_REV
	C:0FA7H            SYMBOL             COMM_EXIT
	C:0877H            SYMBOL             CALC_GOVERNOR_INT_CORRECTION
	C:052CH            SYMBOL             PCA_INT_PPM_CHECK_FULL_RANGE
	C:0503H            SYMBOL             PCA_INT_FALL_CHECK_RANGE
	C:05C0H            SYMBOL             PCA_INT_PWM_DIVIDE
	C:05E3H            SYMBOL             PCA_INT_LIMITED
	C:0325H            SYMBOL             T2H_INT_START
	C:028DH            SYMBOL             T2_INT_PWM_UPDATE
	C:0147H            SYMBOL             T0_INT_PWM_OFF_DAMPED
	C:1A27H            SYMBOL             EEP_DUMMY
	C:1A25H            SYMBOL             EEP_PGM_ENABLE_PWM_INPUT
	C:1A13H            SYMBOL             _EEP_PGM_STARTUP_ACCEL
	C:1A02H            SYMBOL             EEP_LAYOUT_REVISION
	I:009EH            SYMBOL             PGM_PPM_CENTER_THROTTLE
	I:008EH            SYMBOL             PGM_GOV_SETUP_TARGET
	D:007AH            SYMBOL             CLOCK_SET_AT_48MHZ
	D:003DH            SYMBOL             COMM_PERIOD4X_L
	D:0022H            SYMBOL             REQUESTED_PWM
	B:00D2H            SYMBOL             OV
	B:009DH            SYMBOL             MCE0
	D:00E7H            SYMBOL             SMB1ADM
	D:00CEH            SYMBOL             PCA0CLR
	D:00AFH            SYMBOL             EIE2
	C:1DCFH            SYMBOL             WAIT1
	C:1D13H            SYMBOL             PRO5
	C:186FH            SYMBOL             FUNC_PARAVAL_WAIT
	C:178EH            SYMBOL             WRITE_TAG
	C:16CAH            SYMBOL             READ_EEPROM_STORE_DEFAULTS
	C:1622H            SYMBOL             RUN6_CHECK_DIR
	C:14EEH            SYMBOL             RUN1
	C:141DH            SYMBOL             WAIT_FOR_POWER_ON_CHECK_TIMEOUT
	C:122DH            SYMBOL             MEASURE_PWM_FREQ_WAIT
	C:117CH            SYMBOL             CLEAR_RAM
	C:10ABH            SYMBOL             SET_BEC_VOLTAGE
	C:109DH            SYMBOL             DECODE_DEMAG_DONE
	C:0EF1H            SYMBOL             COMM45_NFET_DONE
	C:0D8EH            SYMBOL             WAIT_FOR_COMM
	C:0BFCH            SYMBOL             ADJUST_TIMING_TWO_STEPS_FAST
	C:07BAH            SYMBOL             CALC_GOVERNOR_PROP_ERROR_EXIT
	C:06A3H            SYMBOL             DIV_U16_BY_U16_DIV1
	C:0635H            SYMBOL             WAIT100MS
	C:0621H            SYMBOL             WAIT1MS
	C:0127H            SYMBOL             T0_INT_PWM_OFF_TIMER_SET
	C:0125H            SYMBOL             T0_INT_PWM_OFF_SET_TIMER
	C:008DH            SYMBOL             STARTUP_POWER_TABLE
	C:1A1BH            SYMBOL             EEP_PGM_BEEP_STRENGTH
	D:0077H            SYMBOL             SKIP_T2_INT
	D:0076H            SYMBOL             TX_PGM_BEEP_NO
	D:006AH            SYMBOL             SPOOLUP_LIMIT_SKIP
	D:0050H            SYMBOL             WT_ZC_TOUT_START_H
	B:00FDH            SYMBOL             MODF
	B:00C4H            SYMBOL             STO0
	B:00AFH            SYMBOL             EA
	D:008FH            SYMBOL             PSCTL
	D:0097H            SYMBOL             IDA0H
	D:00BBH            SYMBOL             AMX0P
	C:1D2AH            SYMBOL             RD1
LX51 CODE BANKING LINKER/LOCATOR V06.16.13.326             01/01/16  17:30:09

	C:1D20H            SYMBOL             PRO6
	C:1C2BH            SYMBOL             ABD
	C:183AH            SYMBOL             FUNCTION_PARAVAL_BEEP
	C:1796H            SYMBOL             STORE_NEW_VALUE_IN_RAM
	C:150CH            SYMBOL             RUN2
	C:12C6H            SYMBOL             ARMING_PPM_CHECK
	C:0ED5H            SYMBOL             COMM45_NFET_OFF_REV
	C:0E1BH            SYMBOL             COMM23_FETS_DONE
	C:0D1BH            SYMBOL             COMP_READ_WRONG_TIMEOUT_SET
	C:0C17H            SYMBOL             WAIT_BEFORE_ZC_SCAN
	C:0BE2H            SYMBOL             STORE_TIMES_EXIT
	C:09C7H            SYMBOL             CHECK_VOLTAGE_PWM_DONE
	C:08BDH            SYMBOL             GOVERNOR_CORR_INT_MIN_PWM
	C:07B6H            SYMBOL             GOVERNOR_STORE_PROP_ERROR
	C:06ADH            SYMBOL             DIV_U16_BY_U16_DIV2
	C:063AH            SYMBOL             WAIT200MS
	C:027DH            SYMBOL             T2_INT_RCP_GAIN_CORR
	C:02A4H            SYMBOL             T2_INT_CURRENT_PWM_UPDATE
	C:01F3H            SYMBOL             T2_INT_PULSES_ABSENT
	C:1A09H            SYMBOL             EEP_PGM_STARTUP_PWR
	I:009FH            SYMBOL             PGM_MAIN_SPOOLUP_TIME
	I:0083H            SYMBOL             PGM_LOW_VOLTAGE_LIM
	D:0055H            SYMBOL             RCP_PREPREV_EDGE_L
	B:00C4H            SYMBOL             STO1
	B:00C2H            SYMBOL             ARBLOST0
	D:00E4H            SYMBOL             IT01CF
	D:0097H            SYMBOL             IDA1H
	D:00ABH            SYMBOL             DERIVID
	D:00E0H            SYMBOL             ACC
	C:1C7EH            SYMBOL             MAI1
	C:1C74H            SYMBOL             IN1
	D:0024H            SYMBOL             BAUDL
	C:1539H            SYMBOL             RUN3
	C:08A5H            SYMBOL             GOVERNOR_LIMIT_INT_CORR_NEG
	C:07DCH            SYMBOL             GOVERNOR_CHECK_INT_LIMIT_POS
	C:06C4H            SYMBOL             DIV_U16_BY_U16_DIV3
	C:0626H            SYMBOL             WAIT3MS
	C:0228H            SYMBOL             T2_INT_PULSES_ABSENT_NO_MAX
	C:0107H            SYMBOL             T0_INT_PWM_ON_TIMER_SET
	C:0105H            SYMBOL             T0_INT_PWM_ON_SET_TIMER
	C:00C4H            SYMBOL             REMAP_LOW_SLOPE
	C:1A1FH            SYMBOL             EEP_PGM_DEMAG_COMP
	C:1A00H            SYMBOL             EEP_FW_MAIN_REVISION
	I:0096H            SYMBOL             PGM_PPM_MIN_THROTTLE
	I:008BH            SYMBOL             INITIALIZED_H_DUMMY
	D:0045H            SYMBOL             GOV_INTEGRAL_H
	D:0032H            SYMBOL             POWER_ON_WAIT_CNT_H
	B:00EFH            SYMBOL             AD0EN
	B:00C2H            SYMBOL             ARBLOST1
	B:00ACH            SYMBOL             ES0
	B:009FH            SYMBOL             S0MODE
	D:00FFH            SYMBOL             VDM0CN
	D:00D2H            SYMBOL             TS0CN
	D:00A7H            SYMBOL             SFRPAGE
	D:00F1H            SYMBOL             P0MDIN
	D:009DH            SYMBOL             CPT0MD
	D:009BH            SYMBOL             CPT0CN
	C:1D40H            SYMBOL             PUTP
	C:1CBFH            SYMBOL             SETBUF
	C:1CA0H            SYMBOL             MAI2
	C:1868H            SYMBOL             BEEP_NO_ENTRY
	C:16AFH            SYMBOL             JMP_WAIT_FOR_POWER_ON
	C:15E8H            SYMBOL             DIRECT_START_CHECK_RCP
	C:155AH            SYMBOL             RUN4
	C:0F53H            SYMBOL             COMM61_FETS_DONE
	C:0E5DH            SYMBOL             COMM23_NONDAMP_REV
	C:0D4DH            SYMBOL             COMP_READ_OK_JMP
	C:0BA0H            SYMBOL             STORE_TIMES_UP_OR_DOWN
LX51 CODE BANKING LINKER/LOCATOR V06.16.13.326             01/01/16  17:30:09

	C:0BB3H            SYMBOL             STORE_TIMES_DECREASE
	C:0A83H            SYMBOL             CALC_NEXT_COMM_NEW_PERIOD_DIV
	C:0972H            SYMBOL             TEMP_AVERAGE_INC
	C:08CEH            SYMBOL             GOVERNOR_CORR_INT_MAX_PWM
	C:06D3H            SYMBOL             MULT_S16_BY_U8_DIV_16
	C:0580H            SYMBOL             PCA_INT_PPM_NEG_CHECKED
	C:030BH            SYMBOL             T2_INT_EXIT
	C:1A16H            SYMBOL             _EEP_PGM_DAMPING_FORCE
	C:1A08H            SYMBOL             _EEP_PGM_MOTOR_IDLE
	D:0067H            SYMBOL             PWM_DITHER_EXCESS_POWER
	D:0030H            SYMBOL             INITIAL_ARM
	B:00DFH            SYMBOL             CF
	B:00A9H            SYMBOL             ET0
	D:00D7H            SYMBOL             SMB0ADR
	D:00F2H            SYMBOL             P1MDIN
	D:00A4H            SYMBOL             P0MDOUT
	D:00E8H            SYMBOL             ADC0CN
	C:1D46H            SYMBOL             PUT1
	C:1774H            SYMBOL             READ_TAGS
	C:157BH            SYMBOL             RUN5
	C:0AF5H            SYMBOL             CALC_NEW_WAIT_TIMES_EXIT
	C:091AH            SYMBOL             SET_PWM_LIMIT_HIGH_RPM
	C:08C2H            SYMBOL             GOVERNOR_CORR_NEG_INT
	C:07ABH            SYMBOL             GOVERNOR_LIMIT_PROP_ERROR_POS
	C:0732H            SYMBOL             GOVERNOR_TARGET_CALC
	C:072AH            SYMBOL             CALC_GOVERNOR_TARGET
	C:05C7H            SYMBOL             PCA_INT_PWM_DIVIDE_DONE
	C:0432H            SYMBOL             PCA_INT_CHECK_12KHZ
	I:0097H            SYMBOL             PGM_PPM_MAX_THROTTLE
	D:007CH            SYMBOL             CURRENT_PWM_LIMITED_REMAPPED
	D:0073H            SYMBOL             BEEP_STRENGTH
	D:005AH            SYMBOL             RCP_PREV_PERIOD_H
	D:0052H            SYMBOL             WT_COMM_START_H
	D:004FH            SYMBOL             WT_ZC_TOUT_START_L
	B:00ABH            SYMBOL             ET1
	B:008DH            SYMBOL             TF0
	D:00D7H            SYMBOL             SMB1ADR
	D:00F3H            SYMBOL             P2MDIN
	D:00A5H            SYMBOL             P1MDOUT
	D:0096H            SYMBOL             IDA0L
	C:1D59H            SYMBOL             PUT2
	C:1CD6H            SYMBOL             MAI4
	C:1635H            SYMBOL             RUN6_CHECK_DIR_CHANGE
	C:159CH            SYMBOL             RUN6
	C:12A6H            SYMBOL             ARMING_START
	C:1222H            SYMBOL             MEASURE_PWM_FREQ_LOOP
	C:0F93H            SYMBOL             COMM61_NONDAMP_REV
	C:0EB7H            SYMBOL             COMM45_FETS_DONE
	C:0C1FH            SYMBOL             WAIT_BEFORE_ZC_SCAN_RAND
	C:073CH            SYMBOL             GOVERNOR_DEACTIVATE
	C:05D8H            SYMBOL             PCA_INT_CHECK_LEGAL_RANGE
	C:04E4H            SYMBOL             PCA_INT_FALL_NOT_ONESHOT
	C:1A07H            SYMBOL             EEP_PGM_MOTOR_GAIN
	I:008DH            SYMBOL             PGM_MAIN_REARM_START
	D:003CH            SYMBOL             PREV_PREV_COMM_H
	B:00CDH            SYMBOL             TF2LEN
	B:00ADH            SYMBOL             ET2
	B:0098H            SYMBOL             RI0
	B:008FH            SYMBOL             TF1
	D:00CBH            SYMBOL             TMR2RLH
	D:00C2H            SYMBOL             SMB0DAT
	D:00A6H            SYMBOL             P2MDOUT
	D:0096H            SYMBOL             IDA1L
	C:1D65H            SYMBOL             PUT3
	C:1D25H            SYMBOL             MAI5
	C:1C42H            SYMBOL             WAIT_FOR_LOW
	C:138CH            SYMBOL             ARM_TARGET_UPDATED
	C:0D52H            SYMBOL             EVALUATE_COMPARATOR_INTEGRITY
LX51 CODE BANKING LINKER/LOCATOR V06.16.13.326             01/01/16  17:30:09

	C:0CE2H            SYMBOL             COMP_WAIT_READ_COMP
	C:099CH            SYMBOL             TEMP_CHECK_EXIT
	C:084DH            SYMBOL             GOVERNOR_APPLY_PROP_CORR
	C:017EH            SYMBOL             PWM_AFET_EXIT
	C:1A05H            SYMBOL             EEP_PGM_GOV_MODE
	I:00A2H            SYMBOL             PGM_ENABLE_PWM_INPUT
	I:0090H            SYMBOL             _PGM_STARTUP_ACCEL
	I:008CH            SYMBOL             PGM_ENABLE_TX_PROGRAM
	I:008AH            SYMBOL             INITIALIZED_L_DUMMY
	D:007DH            SYMBOL             CURRENT_PWM_LIM_DITH_REMAPPED
	D:0044H            SYMBOL             GOV_INTEGRAL_L
	D:0031H            SYMBOL             POWER_ON_WAIT_CNT_L
	D:0023H            SYMBOL             GOVERNOR_REQ_PWM
	B:00C0H            SYMBOL             SI0
	B:00BEH            SYMBOL             PSPI0
	D:0093H            SYMBOL             TMR3RLH
	D:008CH            SYMBOL             TH0
	D:00A1H            SYMBOL             SPI0CFG
	D:00C2H            SYMBOL             SMB1DAT
	D:00FAH            SYMBOL             PCA0H
	D:00FEH            SYMBOL             P0MASK
	C:1D77H            SYMBOL             PUT4
	C:1D36H            SYMBOL             MAI6
	C:1716H            SYMBOL             WRITE_EEPROM_BLOCK1
	C:15F5H            SYMBOL             NORMAL_RUN_CHECKS
	C:11A6H            SYMBOL             INIT_NO_SIGNAL
	C:0EF9H            SYMBOL             COMM45_NONDAMP_REV
	C:0C7AH            SYMBOL             WAIT_FOR_COMP_OUT_START
	C:0B43H            SYMBOL             WAIT_ADVANCE_TIMING
	C:0AADH            SYMBOL             CALC_NEW_WAIT_PER_STARTUP_DONE
	C:0786H            SYMBOL             CALC_GOVERNOR_PROP_ERROR
	C:057AH            SYMBOL             PCA_INT_PPM_UNIDIR_NEG
	C:0234H            SYMBOL             T2_INT_PPM_TIMEOUT_SET
	C:0188H            SYMBOL             PWM_BFET_EXIT
	C:0134H            SYMBOL             T0_INT_PWM_OFF_EXIT_NFETS_OFF
	C:1A01H            SYMBOL             EEP_FW_SUB_REVISION
	I:0098H            SYMBOL             PGM_BEEP_STRENGTH
	B:00C0H            SYMBOL             SI1
	B:00A8H            SYMBOL             EX0
	B:0099H            SYMBOL             TI0
	B:0088H            SYMBOL             IT0
	D:0093H            SYMBOL             TMR4RLH
	D:00CDH            SYMBOL             TMR2H
	D:008DH            SYMBOL             TH1
	D:00F8H            SYMBOL             SPI0CN
	D:00EEH            SYMBOL             P1MASK
	D:00DEH            SYMBOL             CRC0CNT
	C:1724H            SYMBOL             WRITE_EEPROM_BLOCK2
	C:1373H            SYMBOL             PROGRAM_BY_TX_ENTRY_WAIT_PPM
	C:16B1H            SYMBOL             READ_ALL_EEPROM_PARAMETERS
	C:0E6CH            SYMBOL             COMM23_NFET_DONE_REV
	C:0A8CH            SYMBOL             CALC_NEXT_COMM_NEW_PERIOD_DIV_DONE
	C:09BBH            SYMBOL             CHECK_VOLTAGE_LOW_RPM
	C:0192H            SYMBOL             PWM_CFET_EXIT
	C:00CFH            SYMBOL             T0_INT
	C:1A18H            SYMBOL             _EEP_PGM_STARTUP_METHOD
	C:1A14H            SYMBOL             _EEP_PGM_VOLT_COMP
	C:1A04H            SYMBOL             EEP_PGM_GOV_I_GAIN
	I:0086H            SYMBOL             PGM_STARTUP_PWR
	D:0078H            SYMBOL             SKIP_T2H_INT
	D:006BH            SYMBOL             MAIN_SPOOLUP_TIME_3X
	D:005FH            SYMBOL             RCP_STOP_CNT
	D:005CH            SYMBOL             NEW_RCP
	D:0059H            SYMBOL             RCP_PREV_PERIOD_L
	D:0051H            SYMBOL             WT_COMM_START_L
	B:00CDH            SYMBOL             TF5LEN
	B:00AAH            SYMBOL             EX1
	B:008AH            SYMBOL             IT1
LX51 CODE BANKING LINKER/LOCATOR V06.16.13.326             01/01/16  17:30:09

	D:00CBH            SYMBOL             TMR5RLH
	D:0095H            SYMBOL             TMR3H
	D:00B1H            SYMBOL             OSCXCN
	D:00A8H            SYMBOL             IE
	D:008EH            SYMBOL             CKCON
	C:14BDH            SYMBOL             INIT_START_BIDIR_DONE
	C:0D70H            SYMBOL             EVAL_COMP_EXIT
	C:05FBH            SYMBOL             PCA_INT_SET_TIMEOUT
	C:0174H            SYMBOL             PWM_NOFET
	C:00F3H            SYMBOL             T0_INT_PWM_ON_EXECUTE
	C:1A26H            SYMBOL             EEP_PGM_PWM_DITHER
	C:1A15H            SYMBOL             EEP_PGM_COMM_TIMING
	I:009CH            SYMBOL             PGM_DEMAG_COMP
	D:003BH            SYMBOL             PREV_PREV_COMM_L
	D:003AH            SYMBOL             PREV_COMM_H
	D:002AH            SYMBOL             RCP_TIMEOUT_CNT
	B:00F9H            SYMBOL             TXBMT
	B:00FCH            SYMBOL             RXOVRN
	D:0095H            SYMBOL             TMR4H
	D:00CAH            SYMBOL             TMR2RLL
	D:00ACH            SYMBOL             REVISION
	D:00FCH            SYMBOL             PCA0CPH0
	D:00B9H            SYMBOL             IDA0CN
	D:00F6H            SYMBOL             EIP1
	C:1D38H            SYMBOL             PUTW
	C:11B6H            SYMBOL             BOOTLOADER_DONE
	C:10E3H            SYMBOL             AVERAGE_THROTTLE
	C:1043H            SYMBOL             DECODE_PARAMS_DIR_SET
	C:0FA2H            SYMBOL             COMM61_NFET_DONE_REV
	C:0D71H            SYMBOL             SETUP_COMM_WAIT
	C:0AF6H            SYMBOL             CALC_NEXT_COMM_TIMING_FAST
	C:0818H            SYMBOL             CALC_GOVERNOR_INT_ERROR_EXIT
	C:01C7H            SYMBOL             T2_INT
	I:0093H            SYMBOL             _PGM_DAMPING_FORCE
	D:0060H            SYMBOL             AUTO_BAILOUT_ARMED
	D:0020H            SYMBOL             BIT_ACCESS
	B:00D0H            SYMBOL             P
	D:00CDH            SYMBOL             TMR5H
	D:0092H            SYMBOL             TMR3RLL
	D:008AH            SYMBOL             TL0
	D:0087H            SYMBOL             PCON
	D:00F9H            SYMBOL             PCA0L
	D:00EAH            SYMBOL             PCA0CPH1
	D:00B9H            SYMBOL             IDA1CN
	D:00BFH            SYMBOL             EIP2
	C:1D84H            SYMBOL             GET1
	D:0021H            SYMBOL             BYTE_REG
	C:13A1H            SYMBOL             ARM_END_BEEP
	C:12FEH            SYMBOL             THROTTLE_HIGH_CAL_START
	C:110EH            SYMBOL             PGM_START
	C:0C5BH            SYMBOL             WAIT_FOR_COMP_OUT_LOW
	C:0B54H            SYMBOL             CALC_NEW_WAIT_TIMES
	C:0AF1H            SYMBOL             LOAD_MIN_TIME
	C:09D0H            SYMBOL             SET_STARTUP_PWM
	C:0812H            SYMBOL             GOVERNOR_STORE_INT_ERROR
	C:0778H            SYMBOL             GOVERNOR_ACTIVATE_50K
	C:0352H            SYMBOL             T2H_INT_EXIT
	C:0080H            SYMBOL             GOV_GAIN_TABLE
	C:035CH            SYMBOL             T3_INT
	I:0085H            SYMBOL             PGM_MOTOR_IDLE
	D:0075H            SYMBOL             TX_PGM_PARAVAL_NO
	D:0070H            SYMBOL             ADC_CONVERSION_CNT
	D:004AH            SYMBOL             GOV_ARM_TARGET
	D:0029H            SYMBOL             RCP_OUTSIDE_RANGE_CNT
	C:1A40H            SYMBOL             EEP_ESC_LAYOUT
	D:0092H            SYMBOL             TMR4RLL
	D:00CCH            SYMBOL             TMR2L
	D:008BH            SYMBOL             TL1
LX51 CODE BANKING LINKER/LOCATOR V06.16.13.326             01/01/16  17:30:09

	D:00ABH            SYMBOL             SN0
	D:00ECH            SYMBOL             PCA0CPH2
	C:1D99H            SYMBOL             GET2
	C:186BH            SYMBOL             FUNC_PARAVAL
	C:17D6H            SYMBOL             WAIT1S_LOOP
	C:179AH            SYMBOL             STORE_MULTI_FUNC_1
	C:1630H            SYMBOL             RUN6_CHECK_DIR_REV
	C:10FFH            SYMBOL             AVERAGE_THROTTLE_DIV
	C:0876H            SYMBOL             CALC_GOVERNOR_PROP_CORR_EXIT
	C:080DH            SYMBOL             GOVERNOR_INT_MIN_PWM
	C:07B2H            SYMBOL             GOVERNOR_LIMIT_PROP_ERROR_NEG
	C:064AH            SYMBOL             BEEP_F1
	C:051AH            SYMBOL             PCA_INT_PPM_OUTSIDE_RANGE
	C:1A1DH            SYMBOL             EEP_PGM_BEACON_DELAY
	C:1A1CH            SYMBOL             EEP_PGM_BEACON_STRENGTH
	I:00D0H            SYMBOL             TAG_TEMPORARY_STORAGE
	I:0084H            SYMBOL             PGM_MOTOR_GAIN
	D:0071H            SYMBOL             CURRENT_AVERAGE_TEMP
	D:0064H            SYMBOL             PWM_SPOOLUP_BEG
	D:0061H            SYMBOL             PWM_LIMIT
	B:00FFH            SYMBOL             SPIF
	B:00CBH            SYMBOL             T2SPLIT
	D:00CAH            SYMBOL             TMR5RLL
	D:0094H            SYMBOL             TMR3L
	D:00ACH            SYMBOL             SN1
	C:1DBDH            SYMBOL             GET3
	C:179FH            SYMBOL             STORE_MULTI_FUNC_2
	C:1613H            SYMBOL             INITIAL_RUN_PHASE_DONE
	C:10D4H            SYMBOL             TEST_THROTTLE_GAIN
	C:0E3BH            SYMBOL             COMM23_FETS_DONE_REV
	C:0A54H            SYMBOL             CALC_NEXT_COMM_STARTUP_DONE
	C:0874H            SYMBOL             GOVERNOR_STORE_PROP_CORR
	C:0838H            SYMBOL             GOVERNOR_CHECK_PROP_CORR_LIMIT_POS
	C:06EDH            SYMBOL             MULT_S16_BY_U8_POSITIVE
	C:069BH            SYMBOL             DIV_U16_BY_U16
	C:0668H            SYMBOL             BEEP_ONOFF
	C:0651H            SYMBOL             BEEP_F2
	C:0561H            SYMBOL             PCA_INT_PPM_BIDIR_FWD
	C:04A6H            SYMBOL             PCA_INT_CHECK_DIFF
	C:0238H            SYMBOL             T2_INT_SKIP_START
	C:0176H            SYMBOL             PWM_AFET
	C:0166H            SYMBOL             T0_INT_PWM_OFF_FULLPOWER_EXIT
	C:1A24H            SYMBOL             EEP_PGM_ENABLE_POWER_PROT
	C:1A17H            SYMBOL             _EEP_PGM_GOV_RANGE
	I:0082H            SYMBOL             PGM_GOV_MODE
	D:0039H            SYMBOL             PREV_COMM_L
	B:00BCH            SYMBOL             PS0
	D:0094H            SYMBOL             TMR4L
	D:00ADH            SYMBOL             SN2
	D:00CFH            SYMBOL             SFRPGCN
	D:00FBH            SYMBOL             PCA0CPL0
	D:009AH            SYMBOL             CRC0FLIP
	C:1C00H            SYMBOL             INIT
	C:1865H            SYMBOL             PARAVAL_NO_ENTRY
	C:17A4H            SYMBOL             STORE_MULTI_FUNC_3
	C:1649H            SYMBOL             RUN6_BRAKE_DONE
	C:180BH            SYMBOL             SUCCESS_BEEP_INVERTED
	C:17DCH            SYMBOL             SUCCESS_BEEP
	C:10ACH            SYMBOL             FIND_THROTTLE_GAIN
	C:1061H            SYMBOL             DECODE_SETTINGS
	C:1667H            SYMBOL             RUN_TO_WAIT_FOR_POWER_ON_FAIL
	C:0962H            SYMBOL             TEMP_AVERAGE_INC_DEC
	C:0805H            SYMBOL             GOVERNOR_INT_MAX_PWM
	C:07E5H            SYMBOL             GOVERNOR_LIMIT_INT_ERROR_POS
	C:0658H            SYMBOL             BEEP_F3
	C:03BFH            SYMBOL             PCA_INT_FAIL_MINIMUM
	C:0180H            SYMBOL             PWM_BFET
	C:0159H            SYMBOL             T0_INT_PWM_OFF_EXIT
LX51 CODE BANKING LINKER/LOCATOR V06.16.13.326             01/01/16  17:30:09

	D:0069H            SYMBOL             SPOOLUP_LIMIT_CNT
	B:00CFH            SYMBOL             TF2H
	B:00B9H            SYMBOL             PT0
	D:00CCH            SYMBOL             TMR5L
	D:0089H            SYMBOL             TMOD
	D:0088H            SYMBOL             TCON
	D:00AEH            SYMBOL             SN3
	D:00DAH            SYMBOL             PCA0CPM0
	D:00E9H            SYMBOL             PCA0CPL1
	D:00B6H            SYMBOL             FLSCL
	C:17A9H            SYMBOL             STORE_MULTI_FUNC_4
	C:14E2H            SYMBOL             DAMPED_TRANSITION
	C:13DCH            SYMBOL             BEEP_DELAY_SET
	C:12E4H            SYMBOL             PROGRAM_BY_TX_ENTRY_WAIT_PWM
	C:112DH            SYMBOL             LOCK_BYTE_OK
	C:10F0H            SYMBOL             AVERAGE_THROTTLE_MEAS
	C:105BH            SYMBOL             DECODE_PWM_FREQ_LOW
	C:0F73H            SYMBOL             COMM61_FETS_DONE_REV
	C:0D25H            SYMBOL             COMP_READ_WRONG_LOW_RPM
	C:0917H            SYMBOL             SET_PWM_LIMIT_LOW_RPM_EXIT
	C:065FH            SYMBOL             BEEP_F4
	C:05A7H            SYMBOL             PCA_INT_PPM_MAX_CHECKED
	C:0490H            SYMBOL             PCA_INT_RESTORE_EDGE
	C:02F3H            SYMBOL             T2_INT_CURRENT_PWM_DITHER_MAX_POWER
	C:018AH            SYMBOL             PWM_CFET
	C:1A03H            SYMBOL             EEP_PGM_GOV_P_GAIN
	I:00A6H            SYMBOL             PGM_STARTUP_PWR_DECODED
	I:0095H            SYMBOL             _PGM_STARTUP_METHOD
	I:0091H            SYMBOL             _PGM_VOLT_COMP
	I:0081H            SYMBOL             PGM_GOV_I_GAIN
	B:00FAH            SYMBOL             NSSMD0
	B:00FEH            SYMBOL             WCOL
	B:00E8H            SYMBOL             AD0CM0
	B:00DEH            SYMBOL             CR
	B:00D3H            SYMBOL             RS0
	B:00CBH            SYMBOL             T5SPLIT
	B:00BBH            SYMBOL             PT1
	B:009CH            SYMBOL             REN0
	D:00A3H            SYMBOL             SPI0DAT
	D:00D9H            SYMBOL             PCA0MD
	D:00DBH            SYMBOL             PCA0CPM1
	D:00EBH            SYMBOL             PCA0CPL2
	D:00D8H            SYMBOL             PCA0CN
	C:18D0H            SYMBOL             PROGRAM_BY_TX_EXIT
	C:17AEH            SYMBOL             STORE_MULTI_FUNC_5
	C:1735H            SYMBOL             READ_EEPROM_BYTE
	C:1338H            SYMBOL             THROTTLE_LOW_CAL
	C:0CEEH            SYMBOL             COMP_READ_WRONG
	C:0C03H            SYMBOL             STORE_TIMES_UP_OR_DOWN_FAST
	C:0C10H            SYMBOL             STORE_TIMES_DECREASE_FAST
	C:097AH            SYMBOL             TEMP_AVERAGE_UPDATED
	C:092BH            SYMBOL             SET_PWM_LIMIT_HIGH_RPM_STORE
	C:08A9H            SYMBOL             GOVERNOR_APPLY_INT_CORR
	C:0843H            SYMBOL             GOVERNOR_LIMIT_PROP_CORR_POS
	C:0691H            SYMBOL             BEEP_OFF
	C:062BH            SYMBOL             WAIT10MS
	C:02D1H            SYMBOL             T2_INT_CURRENT_PWM_FULL_DITHER
	C:01A3H            SYMBOL             PWM_AFET_DAMPED_EXIT
	C:00F5H            SYMBOL             T0_INT_PWM_ON_EXIT
	C:1A20H            SYMBOL             EEP_PGM_BEC_VOLTAGE_HIGH
	C:1A0EH            SYMBOL             EEP_INITIALIZED_H
	C:1A0CH            SYMBOL             EEP_PGM_INPUT_POL
	I:00A3H            SYMBOL             PGM_PWM_DITHER
	I:0092H            SYMBOL             PGM_COMM_TIMING
	D:0074H            SYMBOL             TX_PGM_FUNC_NO
	D:0034H            SYMBOL             INITIAL_RUN_ROT_CNT
	D:0024H            SYMBOL             CURRENT_PWM
	B:00FBH            SYMBOL             NSSMD1
LX51 CODE BANKING LINKER/LOCATOR V06.16.13.326             01/01/16  17:30:09

	B:00E9H            SYMBOL             AD0CM1
	B:00EEH            SYMBOL             AD0TM
	B:00D4H            SYMBOL             RS1
	B:00D5H            SYMBOL             F0
	B:00BDH            SYMBOL             PT2
	B:008CH            SYMBOL             TR0
	D:00C8H            SYMBOL             TMR2CN
	D:00DCH            SYMBOL             PCA0CPM2
	C:1D7BH            SYMBOL             GETW
	C:17B3H            SYMBOL             STORE_MULTI_FUNC_6
	C:177DH            SYMBOL             READ_TAG
	C:1153H            SYMBOL             RESET_CAL_DONE
	C:1028H            SYMBOL             DECODE_PARAMETERS
	C:0ED7H            SYMBOL             COMM45_FETS_DONE_REV
	C:0E19H            SYMBOL             COMM23_NFET_OFF
	C:0BA6H            SYMBOL             STORE_TIMES_INCREASE
	C:0930H            SYMBOL             MEASURE_LIPO_CELLS
	C:07BBH            SYMBOL             CALC_GOVERNOR_INT_ERROR
	C:0543H            SYMBOL             PCA_INT_PPM_CALCULATE
	C:060FH            SYMBOL             PCA_INT_EXIT
	C:0265H            SYMBOL             T2_INT_RCP_UPDATE_MULT
	C:01B4H            SYMBOL             PWM_BFET_DAMPED_EXIT
	D:005BH            SYMBOL             RCP_PERIOD_DIFF_ACCEPTED
	D:0041H            SYMBOL             COMPARATOR_READ_CNT
	D:0033H            SYMBOL             STARTUP_CNT
	B:00EAH            SYMBOL             AD0CM2
	B:00EBH            SYMBOL             AD0WINT
	B:00D1H            SYMBOL             F1
	B:00CFH            SYMBOL             TF5H
	B:008EH            SYMBOL             TR1
	D:0091H            SYMBOL             TMR3CN
	D:00D4H            SYMBOL             P0SKIP
	D:0085H            SYMBOL             EIP1H
	C:1D89H            SYMBOL             GETX
	C:17B8H            SYMBOL             STORE_MULTI_FUNC_7
	C:163FH            SYMBOL             RUN6_CHECK_SPEED
	C:1405H            SYMBOL             WAIT_FOR_POWER_ON_PPM_NOT_MISSING
	C:0FAAH            SYMBOL             SWITCH_POWER_OFF
	C:0D05H            SYMBOL             COMP_READ_WRONG_NOT_STARTUP
	C:0AC9H            SYMBOL             CALC_NEW_WAIT_PER_DEMAG_DONE
	C:0630H            SYMBOL             WAIT30MS
	C:0598H            SYMBOL             PCA_INT_PPM_BIDIR_DONE
	C:047FH            SYMBOL             PCA_INT_CHECK_1KHZ
	C:0318H            SYMBOL             T2H_INT
	C:01C5H            SYMBOL             PWM_CFET_DAMPED_EXIT
	C:00AAH            SYMBOL             MOTOR_PWM_REMAP
	D:0046H            SYMBOL             GOV_INTEGRAL_X
	C:1A50H            SYMBOL             EEP_ESC_MCU
	B:00ECH            SYMBOL             AD0BUSY
	B:00C8H            SYMBOL             T2XCLK
	B:00CAH            SYMBOL             TR2
	B:00CEH            SYMBOL             TF2L
	B:00C5H            SYMBOL             STA0
	B:00B8H            SYMBOL             PX0
	D:00D3H            SYMBOL             TS0DATH
	D:0091H            SYMBOL             TMR4CN
	D:00F7H            SYMBOL             PCA0PWM
	D:00D5H            SYMBOL             P1SKIP
	D:0086H            SYMBOL             EIP2H
	C:1CBDH            SYMBOL             RST
	C:189CH            SYMBOL             FUNC_PARAVAL_CONT_WAIT
	C:17D4H            SYMBOL             WAIT1S
	C:17BDH            SYMBOL             STORE_MULTI_FUNC_8
	C:1787H            SYMBOL             WRITE_TAGS
	C:166FH            SYMBOL             RUN_TO_WAIT_FOR_POWER_ON
	C:0F51H            SYMBOL             COMM61_NFET_OFF
	C:0D60H            SYMBOL             EVAL_COMP_CHECK_TIMEOUT
	C:0CAFH            SYMBOL             COMP_WAIT_ON_COMP_ABLE_NOT_TIMED_OUT
LX51 CODE BANKING LINKER/LOCATOR V06.16.13.326             01/01/16  17:30:09

	C:0B8DH            SYMBOL             ADJUST_TIMING_TWO_STEPS
	C:09F0H            SYMBOL             INITIALIZE_TIMING
	C:09CFH            SYMBOL             CHECK_VOLTAGE_RET
	C:077FH            SYMBOL             GOVERNOR_ACTIVATE_RANGE_SET
	C:0641H            SYMBOL             WAITXMS_M
	C:046EH            SYMBOL             PCA_INT_CHECK_2KHZ
	I:009AH            SYMBOL             PGM_BEACON_DELAY
	I:0099H            SYMBOL             PGM_BEACON_STRENGTH
	D:004CH            SYMBOL             WT_ADV_START_H
	D:0043H            SYMBOL             GOV_TARGET_H
	B:00C5H            SYMBOL             STA1
	B:00BAH            SYMBOL             PX1
	D:00C8H            SYMBOL             TMR5CN
	D:00C7H            SYMBOL             SMBTC
	D:00D6H            SYMBOL             P2SKIP
	D:00B8H            SYMBOL             IP
	D:00DFH            SYMBOL             CRC0CN
	C:1CB4H            SYMBOL             EXIT
	C:1DDCH            SYMBOL             BOOT_MSG
	C:17C2H            SYMBOL             STORE_MULTI_FUNC_9
	C:145EH            SYMBOL             READ_INITIAL_TEMP
	C:13F9H            SYMBOL             WAIT_FOR_POWER_ON_NO_BEEP
	C:1060H            SYMBOL             DECODE_PWM_FREQ_END
	C:0DC7H            SYMBOL             WAIT_FOR_COMM_WAIT
	C:0934H            SYMBOL             START_ADC_CONVERSION
	C:0721H            SYMBOL             MULT_S16_BY_U8_EXIT
	C:05B9H            SYMBOL             PCA_INT_PPM_LIMIT_AFTER_MULT
	C:0396H            SYMBOL             GET_RCP_END
	C:0352H            SYMBOL             T2H_INT_RCP_GOV_PWM
	C:028DH            SYMBOL             T2_INT_PWM_MIN_RUN
	C:009AH            SYMBOL             PWM_DITHER_TABLE
	C:1A60H            SYMBOL             EEP_NAME
	C:1A0DH            SYMBOL             EEP_INITIALIZED_L
	I:00A1H            SYMBOL             PGM_ENABLE_POWER_PROT
	D:0066H            SYMBOL             PWM_DITHER_DECODED
	D:0063H            SYMBOL             PWM_LIMIT_BY_RPM
	D:0038H            SYMBOL             LOW_RPM_PWR_SLOPE
	D:0021H            SYMBOL             BIT_ACCESS_INT
	D:00D0H            SYMBOL             PSW
	C:1DC9H            SYMBOL             WAITF
	C:17D1H            SYMBOL             STORE_IN_RAM_EXIT
	C:1283H            SYMBOL             VALIDATE_RCP_START
	C:1126H            SYMBOL             LOCK_BYTE_TEST
	C:0EB5H            SYMBOL             COMM45_NFET_OFF
	C:0DECH            SYMBOL             COMM12_REV
	C:0DD8H            SYMBOL             COMM1COMM2
	C:0C21H            SYMBOL             WAIT_BEFORE_ZC_SCAN_WAIT
	C:0978H            SYMBOL             TEMP_AVERAGE_UPDATED_LOAD_ACC
	C:096EH            SYMBOL             TEMP_AVERAGE_DEC
	C:0819H            SYMBOL             CALC_GOVERNOR_PROP_CORRECTION
	C:063FH            SYMBOL             WAITXMS_O
	C:0604H            SYMBOL             PCA_INT_PPM_TIMEOUT_SET
	C:045DH            SYMBOL             PCA_INT_CHECK_4KHZ
	C:0116H            SYMBOL             T0_INT_PWM_OFF
	C:00DCH            SYMBOL             T0_INT_START
	I:0094H            SYMBOL             PGM_GOV_RANGE
	D:0048H            SYMBOL             GOV_PROPORTIONAL_H
	B:00C8H            SYMBOL             T5XCLK
	B:00CAH            SYMBOL             TR5
	B:00CEH            SYMBOL             TF5L
	D:00C1H            SYMBOL             SMB0CF
	D:00B7H            SYMBOL             FLKEY
	D:00C4H            SYMBOL             ADC0GTH
	C:1D5CH            SYMBOL             PUTC
	D:0020H            SYMBOL             BIT_REG
	C:16F2H            SYMBOL             READ_EEPROM_EXIT
	C:13B9H            SYMBOL             WAIT_FOR_POWER_ON_LOOP
	C:11AAH            SYMBOL             INPUT_HIGH_CHECK_1
LX51 CODE BANKING LINKER/LOCATOR V06.16.13.326             01/01/16  17:30:09

	C:09A0H            SYMBOL             CHECK_VOLTAGE_START
	C:08D3H            SYMBOL             SET_PWM_LIMIT_LOW_RPM
	C:08D2H            SYMBOL             CALC_GOVERNOR_INT_CORR_EXIT
	C:07EEH            SYMBOL             GOVERNOR_LIMIT_INT_ERROR_NEG
	C:0706H            SYMBOL             MULT_S16_BY_U8_DIV_LOOP
	C:0666H            SYMBOL             BEEP
	C:0566H            SYMBOL             PCA_INT_PPM_BIDIR_DIR_SET
	C:04C1H            SYMBOL             PCA_INT_FALL
	C:0302H            SYMBOL             T2_INT_PWM_EXIT
	C:0243H            SYMBOL             T2_INT_SKIP_END
	C:009FH            SYMBOL             TX_PGM_PARAMS_MULTI
	C:1A23H            SYMBOL             EEP_PGM_TEMP_PROT_ENABLE
	C:1A1EH            SYMBOL             _EEP_PGM_THROTTLE_RATE
	C:1A12H            SYMBOL             _EEP_PGM_STARTUP_RPM
	I:00A5H            SYMBOL             PGM_GOV_I_GAIN_DECODED
	I:0080H            SYMBOL             PGM_GOV_P_GAIN
	D:006CH            SYMBOL             MAIN_SPOOLUP_TIME_10X
	D:0040H            SYMBOL             COMM_PHASE
	D:0028H            SYMBOL             RCP_PREV_EDGE_H
	B:00D8H            SYMBOL             CCF0
	B:00D7H            SYMBOL             CY
	B:00C7H            SYMBOL             MASTER0
	B:009AH            SYMBOL             RB80
	D:00E1H            SYMBOL             XBR0
	D:00D2H            SYMBOL             TS0DATL
	D:00A2H            SYMBOL             SPI0CKR
	D:00C1H            SYMBOL             SMB1CF
	D:00B5H            SYMBOL             PFE0CN
	D:00AAH            SYMBOL             EMI0CN
	D:0083H            SYMBOL             DPH
	D:009FH            SYMBOL             CPT0MX
	C:1DCDH            SYMBOL             WAITH
	C:174EH            SYMBOL             ERASE_FLASH
	C:1672H            SYMBOL             RUN_TO_WAIT_FOR_POWER_ON_STALL_DONE
	C:1859H            SYMBOL             PROGRAM_BY_TX
	C:11ACH            SYMBOL             INPUT_HIGH_CHECK_2
	C:0E43H            SYMBOL             COMM23_NONDAMP
	C:0DFDH            SYMBOL             COMM2COMM3
	C:0A70H            SYMBOL             CALC_NEXT_COMM_AVG_PERIOD_DIV
	C:08D0H            SYMBOL             GOVERNOR_STORE_INT_CORR
	C:0892H            SYMBOL             GOVERNOR_CHECK_INT_CORR_LIMIT_POS
	C:0861H            SYMBOL             GOVERNOR_CORR_PROP_MIN_PWM
	C:076CH            SYMBOL             GOVERNOR_ACTIVATE_100K
	C:01E3H            SYMBOL             T2_INT_START
	C:0194H            SYMBOL             PWM_AFET_DAMPED
	C:1A11H            SYMBOL             _EEP_PGM_GOV_SETUP_TARGET
	C:1A0BH            SYMBOL             EEP_PGM_DIRECTION
	C:1A0AH            SYMBOL             EEP_PGM_PWM_FREQ
	I:009DH            SYMBOL             PGM_BEC_VOLTAGE_HIGH
	I:0089H            SYMBOL             PGM_INPUT_POL
	D:0054H            SYMBOL             NEXT_WT_START_H
	D:004BH            SYMBOL             WT_ADV_START_L
	D:0042H            SYMBOL             GOV_TARGET_L
	D:0037H            SYMBOL             DEMAG_PWR_OFF_THRESH
	D:002CH            SYMBOL             FLAGS0
	D:0025H            SYMBOL             CURRENT_PWM_LIMITED
	B:00D9H            SYMBOL             CCF1
	B:00C7H            SYMBOL             MASTER1
	D:00E2H            SYMBOL             XBR1
	D:00B3H            SYMBOL             OSCICL
	C:1C47H            SYMBOL             ID1
	C:188BH            SYMBOL             FUNC_PARAVAL_STORE
	C:173AH            SYMBOL             WRITE_EEPROM_BYTE_FROM_ACC
	C:16DAH            SYMBOL             READ_EEPROM_BLOCK1
	C:16D3H            SYMBOL             READ_EEPROM_READ
	C:0E23H            SYMBOL             COMM23_DAMP_REV
	C:0BE3H            SYMBOL             CALC_NEW_WAIT_TIMES_FAST
	C:0B3CH            SYMBOL             LOAD_MIN_TIME_FAST
LX51 CODE BANKING LINKER/LOCATOR V06.16.13.326             01/01/16  17:30:09

	C:0933H            SYMBOL             MEASURE_LIPO_EXIT
	C:0849H            SYMBOL             GOVERNOR_LIMIT_PROP_CORR_NEG
	C:079FH            SYMBOL             GOVERNOR_CHECK_PROP_LIMIT_POS
	C:03E8H            SYMBOL             PCA_INT_SECOND_MEAS_PWM_FREQ
	C:0335H            SYMBOL             T2H_INT_RCP_STOP_CHECK
	C:01A5H            SYMBOL             PWM_BFET_DAMPED
	C:0376H            SYMBOL             PCA_INT
	C:1A21H            SYMBOL             EEP_PGM_PPM_CENTER_THROTTLE
	D:002DH            SYMBOL             FLAGS1
	B:00DAH            SYMBOL             CCF2
	B:009BH            SYMBOL             TB80
	B:0089H            SYMBOL             IE0
	D:00D1H            SYMBOL             REF0CN
	D:00A9H            SYMBOL             CLKSEL
	C:1DE0H            SYMBOL             BOOT_INFO
	C:16E8H            SYMBOL             READ_EEPROM_BLOCK2
	C:1220H            SYMBOL             MEASURE_PWM_FREQ_START
	C:0F7AH            SYMBOL             COMM61_NONDAMP
	C:0F35H            SYMBOL             COMM6COMM1
	C:0E88H            SYMBOL             COMM34_REV
	C:0E74H            SYMBOL             COMM3COMM4
	C:0C9EH            SYMBOL             COMP_WAIT_NO_OF_READINGS
	C:0C6CH            SYMBOL             WAIT_FOR_COMP_OUT_HIGH
	C:0872H            SYMBOL             GOVERNOR_CORR_PROP_MAX_PWM
	C:055AH            SYMBOL             PCA_INT_PPM_BIDIR_REV
	C:044CH            SYMBOL             PCA_INT_CHECK_8KHZ
	C:02EAH            SYMBOL             T2_INT_CURRENT_PWM_DITHER_MAX_EXCESS_P&
OWER
	C:01B6H            SYMBOL             PWM_CFET_DAMPED
	C:1A22H            SYMBOL             _EEP_PGM_MAIN_SPOOLUP_TIME
	C:1A06H            SYMBOL             _EEP_PGM_LOW_VOLTAGE_LIM
	D:007BH            SYMBOL             DAMPINGFET
	D:004EH            SYMBOL             WT_ZC_SCAN_START_H
	D:0049H            SYMBOL             GOV_PROP_PWM
	D:0047H            SYMBOL             GOV_PROPORTIONAL_L
	D:002EH            SYMBOL             FLAGS2
	D:002BH            SYMBOL             RCP_SKIP_CNT
	D:0026H            SYMBOL             CURRENT_PWM_LIM_DITH
	B:00F8H            SYMBOL             SPIEN
	B:00C1H            SYMBOL             ACK0
	B:008BH            SYMBOL             IE1
	D:00C9H            SYMBOL             REG0CN
	D:00B2H            SYMBOL             OSCICN
	D:009CH            SYMBOL             CRC0IN
	D:00F4H            SYMBOL             CKCON1
	D:00C3H            SYMBOL             ADC0GTL
	C:0000H            LINE#              2288
	C:00AAH            LINE#              2327
	C:00ACH            LINE#              2329
	C:00ADH            LINE#              2330
	C:00AFH            LINE#              2331
	C:00B1H            LINE#              2334
	C:00B4H            LINE#              2335
	C:00B5H            LINE#              2337
	C:00B6H            LINE#              2338
	C:00B8H            LINE#              2339
	C:00B9H            LINE#              2340
	C:00BBH            LINE#              2341
	C:00BCH            LINE#              2342
	C:00BEH            LINE#              2343
	C:00BFH            LINE#              2344
	C:00C1H            LINE#              2345
	C:00C3H            LINE#              2346
	C:00C4H            LINE#              2350
	C:00C6H            LINE#              2351
	C:00C9H            LINE#              2352
	C:00CAH            LINE#              2353
	C:00CCH            LINE#              2354
LX51 CODE BANKING LINKER/LOCATOR V06.16.13.326             01/01/16  17:30:09

	C:00CEH            LINE#              2355
	C:00CFH            LINE#              2366
	C:00D1H            LINE#              2369
	C:00D4H            LINE#              2371
	C:00D6H            LINE#              2372
	C:00D9H            LINE#              2373
	C:00DBH            LINE#              2374
	C:00DCH            LINE#              2378
	C:00DEH            LINE#              2379
	C:00E0H            LINE#              2384
	C:00E2H            LINE#              2385
	C:00E4H            LINE#              2386
	C:00E6H            LINE#              2389
	C:00E8H            LINE#              2390
	C:00EAH            LINE#              2391
	C:00ECH            LINE#              2394
	C:00EFH            LINE#              2397
	C:00F1H            LINE#              2398
	C:00F3H            LINE#              2401
	C:00F4H            LINE#              2402
	C:00F5H            LINE#              2406
	C:00F7H            LINE#              2407
	C:00F8H            LINE#              2411
	C:00F9H            LINE#              2412
	C:00FAH            LINE#              2413
	C:00FCH            LINE#              2415
	C:00FFH            LINE#              2416
	C:0101H            LINE#              2417
	C:0103H            LINE#              2418
	C:0105H            LINE#              2421
	C:0107H            LINE#              2425
	C:010AH            LINE#              2427
	C:010DH            LINE#              2429
	C:010FH            LINE#              2431
	C:0111H            LINE#              2432
	C:0113H            LINE#              2433
	C:0115H            LINE#              2434
	C:0116H            LINE#              2442
	C:0117H            LINE#              2443
	C:0119H            LINE#              2444
	C:011AH            LINE#              2445
	C:011CH            LINE#              2447
	C:011FH            LINE#              2448
	C:0121H            LINE#              2449
	C:0123H            LINE#              2450
	C:0125H            LINE#              2453
	C:0127H            LINE#              2457
	C:0129H            LINE#              2459
	C:012BH            LINE#              2460
	C:012CH            LINE#              2461
	C:012EH            LINE#              2465
	C:0131H            LINE#              2468
	C:0134H            LINE#              2473
	C:0137H            LINE#              2475
	C:013AH            LINE#              2477
	C:013CH            LINE#              2478
	C:013EH            LINE#              2479
	C:0144H            LINE#              2480
	C:0146H            LINE#              2481
	C:0147H            LINE#              2485
	C:014DH            LINE#              2486
	C:0150H            LINE#              2488
	C:0152H            LINE#              2489
	C:0155H            LINE#              2491
	C:0159H            LINE#              2503
	C:015CH            LINE#              2505
	C:015FH            LINE#              2507
	C:0161H            LINE#              2508
LX51 CODE BANKING LINKER/LOCATOR V06.16.13.326             01/01/16  17:30:09

	C:0163H            LINE#              2509
	C:0165H            LINE#              2510
	C:0166H            LINE#              2513
	C:0169H            LINE#              2515
	C:016BH            LINE#              2516
	C:016EH            LINE#              2518
	C:0170H            LINE#              2519
	C:0172H            LINE#              2520
	C:0174H            LINE#              2524
	C:0176H            LINE#              2527
	C:0179H            LINE#              2528
	C:017CH            LINE#              2529
	C:017EH            LINE#              2531
	C:0180H            LINE#              2534
	C:0183H            LINE#              2535
	C:0186H            LINE#              2536
	C:0188H            LINE#              2538
	C:018AH            LINE#              2541
	C:018DH            LINE#              2542
	C:0190H            LINE#              2543
	C:0192H            LINE#              2545
	C:0194H            LINE#              2548
	C:0196H            LINE#              2549
	C:0199H            LINE#              2550
	C:019CH            LINE#              2552
	C:019EH            LINE#              2553
	C:01A1H            LINE#              2556
	C:01A3H            LINE#              2558
	C:01A5H            LINE#              2561
	C:01A7H            LINE#              2562
	C:01AAH            LINE#              2563
	C:01ADH            LINE#              2565
	C:01AFH            LINE#              2566
	C:01B2H            LINE#              2569
	C:01B4H            LINE#              2571
	C:01B6H            LINE#              2574
	C:01B8H            LINE#              2575
	C:01BBH            LINE#              2576
	C:01BEH            LINE#              2578
	C:01C0H            LINE#              2579
	C:01C3H            LINE#              2582
	C:01C5H            LINE#              2584
	C:01C7H            LINE#              2595
	C:01C9H            LINE#              2596
	C:01CBH            LINE#              2597
	C:01CEH            LINE#              2598
	C:01D0H            LINE#              2599
	C:01D2H            LINE#              2600
	C:01D4H            LINE#              2601
	C:01D6H            LINE#              2603
	C:01D8H            LINE#              2604
	C:01DAH            LINE#              2607
	C:01DCH            LINE#              2608
	C:01DEH            LINE#              2610
	C:01E1H            LINE#              2611
	C:01E3H            LINE#              2614
	C:01E6H            LINE#              2617
	C:01E8H            LINE#              2619
	C:01EAH            LINE#              2620
	C:01ECH            LINE#              2623
	C:01EFH            LINE#              2625
	C:01F1H            LINE#              2626
	C:01F3H            LINE#              2630
	C:01F5H            LINE#              2631
	C:01F7H            LINE#              2632
	C:01FAH            LINE#              2634
	C:0200H            LINE#              2635
	C:0203H            LINE#              2636
LX51 CODE BANKING LINKER/LOCATOR V06.16.13.326             01/01/16  17:30:09

	C:0205H            LINE#              2637
	C:0214H            LINE#              2638
	C:0216H            LINE#              2639
	C:0218H            LINE#              2640
	C:021EH            LINE#              2641
	C:0221H            LINE#              2642
	C:0223H            LINE#              2643
	C:0224H            LINE#              2644
	C:0225H            LINE#              2645
	C:0226H            LINE#              2646
	C:0228H            LINE#              2649
	C:022BH            LINE#              2651
	C:022EH            LINE#              2653
	C:0231H            LINE#              2655
	C:0234H            LINE#              2658
	C:0236H            LINE#              2659
	C:0238H            LINE#              2662
	C:023BH            LINE#              2665
	C:023DH            LINE#              2666
	C:023FH            LINE#              2669
	C:0241H            LINE#              2670
	C:0243H            LINE#              2674
	C:0246H            LINE#              2675
	C:0248H            LINE#              2679
	C:024BH            LINE#              2680
	C:024DH            LINE#              2682
	C:024FH            LINE#              2683
	C:0252H            LINE#              2685
	C:0254H            LINE#              2688
	C:0257H            LINE#              2695
	C:0259H            LINE#              2696
	C:025CH            LINE#              2700
	C:025DH            LINE#              2701
	C:025EH            LINE#              2702
	C:0260H            LINE#              2703
	C:0262H            LINE#              2705
	C:0264H            LINE#              2706
	C:0265H            LINE#              2710
	C:0266H            LINE#              2711
	C:0267H            LINE#              2712
	C:0269H            LINE#              2713
	C:026AH            LINE#              2714
	C:026BH            LINE#              2716
	C:026DH            LINE#              2717
	C:0270H            LINE#              2718
	C:0272H            LINE#              2720
	C:0273H            LINE#              2721
	C:0274H            LINE#              2722
	C:0275H            LINE#              2723
	C:0276H            LINE#              2724
	C:0278H            LINE#              2725
	C:027BH            LINE#              2727
	C:027CH            LINE#              2728
	C:027DH            LINE#              2731
	C:0280H            LINE#              2733
	C:0281H            LINE#              2734
	C:0282H            LINE#              2735
	C:0283H            LINE#              2736
	C:0284H            LINE#              2737
	C:0286H            LINE#              2740
	C:0287H            LINE#              2741
	C:0288H            LINE#              2742
	C:028AH            LINE#              2744
	C:028CH            LINE#              2745
	C:028DH            LINE#              2762
	C:028FH            LINE#              2765
	C:0291H            LINE#              2766
	C:0293H            LINE#              2767
LX51 CODE BANKING LINKER/LOCATOR V06.16.13.326             01/01/16  17:30:09

	C:0295H            LINE#              2769
	C:0297H            LINE#              2770
	C:0298H            LINE#              2771
	C:0299H            LINE#              2772
	C:029AH            LINE#              2773
	C:029BH            LINE#              2774
	C:029DH            LINE#              2775
	C:029FH            LINE#              2776
	C:02A1H            LINE#              2778
	C:02A4H            LINE#              2783
	C:02A6H            LINE#              2784
	C:02A9H            LINE#              2787
	C:02ACH            LINE#              2790
	C:02AEH            LINE#              2791
	C:02AFH            LINE#              2792
	C:02B1H            LINE#              2793
	C:02B3H            LINE#              2794
	C:02B5H            LINE#              2796
	C:02B7H            LINE#              2800
	C:02B8H            LINE#              2801
	C:02B9H            LINE#              2802
	C:02BBH            LINE#              2803
	C:02BDH            LINE#              2805
	C:02BFH            LINE#              2808
	C:02C1H            LINE#              2810
	C:02C3H            LINE#              2811
	C:02C5H            LINE#              2812
	C:02C7H            LINE#              2814
	C:02C8H            LINE#              2815
	C:02C9H            LINE#              2816
	C:02CBH            LINE#              2817
	C:02CCH            LINE#              2818
	C:02CEH            LINE#              2820
	C:02CFH            LINE#              2821
	C:02D0H            LINE#              2822
	C:02D1H            LINE#              2825
	C:02D2H            LINE#              2826
	C:02D3H            LINE#              2827
	C:02D4H            LINE#              2828
	C:02D5H            LINE#              2829
	C:02D6H            LINE#              2830
	C:02D8H            LINE#              2831
	C:02D9H            LINE#              2832
	C:02DAH            LINE#              2833
	C:02DBH            LINE#              2834
	C:02DDH            LINE#              2836
	C:02DFH            LINE#              2837
	C:02E0H            LINE#              2838
	C:02E2H            LINE#              2839
	C:02E4H            LINE#              2840
	C:02E6H            LINE#              2841
	C:02E8H            LINE#              2843
	C:02EAH            LINE#              2846
	C:02EBH            LINE#              2847
	C:02ECH            LINE#              2848
	C:02EEH            LINE#              2849
	C:02EFH            LINE#              2850
	C:02F1H            LINE#              2851
	C:02F3H            LINE#              2854
	C:02F5H            LINE#              2857
	C:02F7H            LINE#              2860
	C:02F9H            LINE#              2861
	C:02FAH            LINE#              2862
	C:02FCH            LINE#              2863
	C:02FEH            LINE#              2864
	C:0300H            LINE#              2865
	C:0302H            LINE#              2870
	C:0303H            LINE#              2871
LX51 CODE BANKING LINKER/LOCATOR V06.16.13.326             01/01/16  17:30:09

	C:0305H            LINE#              2872
	C:0307H            LINE#              2873
	C:0309H            LINE#              2875
	C:030BH            LINE#              2879
	C:030EH            LINE#              2880
	C:0310H            LINE#              2881
	C:0312H            LINE#              2882
	C:0315H            LINE#              2883
	C:0317H            LINE#              2884
	C:0318H            LINE#              2888
	C:031AH            LINE#              2889
	C:031CH            LINE#              2892
	C:031EH            LINE#              2893
	C:0320H            LINE#              2895
	C:0323H            LINE#              2896
	C:0325H            LINE#              2899
	C:0328H            LINE#              2902
	C:032AH            LINE#              2903
	C:032CH            LINE#              2905
	C:032EH            LINE#              2906
	C:0330H            LINE#              2909
	C:0333H            LINE#              2911
	C:0335H            LINE#              2915
	C:0336H            LINE#              2916
	C:0338H            LINE#              2917
	C:033AH            LINE#              2918
	C:033CH            LINE#              2921
	C:033FH            LINE#              2922
	C:0341H            LINE#              2926
	C:0344H            LINE#              2927
	C:0347H            LINE#              2928
	C:0349H            LINE#              2929
	C:034BH            LINE#              2930
	C:034DH            LINE#              2931
	C:034FH            LINE#              2933
	C:0352H            LINE#              3063
	C:0354H            LINE#              3064
	C:0356H            LINE#              3065
	C:0359H            LINE#              3066
	C:035BH            LINE#              3067
	C:035CH            LINE#              3078
	C:035EH            LINE#              3079
	C:0360H            LINE#              3080
	C:0363H            LINE#              3081
	C:0365H            LINE#              3083
	C:0368H            LINE#              3084
	C:036BH            LINE#              3085
	C:036EH            LINE#              3086
	C:0371H            LINE#              3087
	C:0373H            LINE#              3088
	C:0375H            LINE#              3089
	C:0376H            LINE#              3100
	C:0378H            LINE#              3101
	C:037BH            LINE#              3102
	C:037DH            LINE#              3103
	C:037FH            LINE#              3104
	C:0381H            LINE#              3105
	C:0383H            LINE#              3106
	C:0385H            LINE#              3107
	C:0387H            LINE#              3109
	C:0396H            LINE#              3111
	C:0398H            LINE#              3113
	C:039BH            LINE#              3114
	C:039DH            LINE#              3116
	C:03ACH            LINE#              3117
	C:03AEH            LINE#              3119
	C:03B4H            LINE#              3121
	C:03B7H            LINE#              3122
LX51 CODE BANKING LINKER/LOCATOR V06.16.13.326             01/01/16  17:30:09

	C:03B9H            LINE#              3125
	C:03BBH            LINE#              3126
	C:03BDH            LINE#              3127
	C:03BFH            LINE#              3131
	C:03CEH            LINE#              3132
	C:03D0H            LINE#              3133
	C:03D2H            LINE#              3134
	C:03D5H            LINE#              3136
	C:03D7H            LINE#              3138
	C:03D9H            LINE#              3139
	C:03DFH            LINE#              3140
	C:03E2H            LINE#              3142
	C:03E4H            LINE#              3144
	C:03E6H            LINE#              3145
	C:03E8H            LINE#              3149
	C:03F7H            LINE#              3150
	C:03F9H            LINE#              3152
	C:03FCH            LINE#              3153
	C:03FEH            LINE#              3156
	C:040DH            LINE#              3157
	C:040FH            LINE#              3158
	C:0411H            LINE#              3160
	C:0413H            LINE#              3161
	C:0415H            LINE#              3163
	C:0416H            LINE#              3164
	C:0417H            LINE#              3165
	C:0419H            LINE#              3166
	C:041AH            LINE#              3167
	C:041BH            LINE#              3168
	C:041DH            LINE#              3169
	C:041EH            LINE#              3170
	C:0420H            LINE#              3171
	C:0422H            LINE#              3172
	C:0424H            LINE#              3174
	C:0425H            LINE#              3175
	C:0426H            LINE#              3176
	C:0428H            LINE#              3177
	C:0429H            LINE#              3178
	C:042BH            LINE#              3179
	C:042DH            LINE#              3181
	C:0430H            LINE#              3182
	C:0432H            LINE#              3185
	C:0434H            LINE#              3186
	C:0436H            LINE#              3187
	C:0437H            LINE#              3188
	C:0439H            LINE#              3189
	C:043BH            LINE#              3192
	C:043CH            LINE#              3193
	C:043DH            LINE#              3194
	C:043FH            LINE#              3195
	C:0440H            LINE#              3196
	C:0442H            LINE#              3197
	C:0444H            LINE#              3199
	C:0445H            LINE#              3200
	C:0447H            LINE#              3201
	C:0448H            LINE#              3202
	C:044AH            LINE#              3203
	C:044CH            LINE#              3207
	C:044DH            LINE#              3208
	C:044EH            LINE#              3209
	C:0450H            LINE#              3210
	C:0451H            LINE#              3211
	C:0453H            LINE#              3212
	C:0455H            LINE#              3214
	C:0456H            LINE#              3215
	C:0458H            LINE#              3216
	C:0459H            LINE#              3217
	C:045BH            LINE#              3218
LX51 CODE BANKING LINKER/LOCATOR V06.16.13.326             01/01/16  17:30:09

	C:045DH            LINE#              3222
	C:045EH            LINE#              3223
	C:045FH            LINE#              3224
	C:0461H            LINE#              3225
	C:0462H            LINE#              3226
	C:0464H            LINE#              3227
	C:0466H            LINE#              3229
	C:0467H            LINE#              3230
	C:0469H            LINE#              3231
	C:046AH            LINE#              3232
	C:046CH            LINE#              3233
	C:046EH            LINE#              3237
	C:046FH            LINE#              3238
	C:0470H            LINE#              3239
	C:0472H            LINE#              3240
	C:0473H            LINE#              3241
	C:0475H            LINE#              3242
	C:0477H            LINE#              3244
	C:0478H            LINE#              3245
	C:047AH            LINE#              3246
	C:047BH            LINE#              3247
	C:047DH            LINE#              3248
	C:047FH            LINE#              3252
	C:0480H            LINE#              3253
	C:0481H            LINE#              3254
	C:0483H            LINE#              3255
	C:0484H            LINE#              3256
	C:0486H            LINE#              3257
	C:0488H            LINE#              3259
	C:0489H            LINE#              3260
	C:048BH            LINE#              3261
	C:048CH            LINE#              3262
	C:048EH            LINE#              3265
	C:0490H            LINE#              3268
	C:0491H            LINE#              3269
	C:0492H            LINE#              3270
	C:0494H            LINE#              3271
	C:0495H            LINE#              3272
	C:0496H            LINE#              3273
	C:0498H            LINE#              3274
	C:0499H            LINE#              3276
	C:049CH            LINE#              3277
	C:049DH            LINE#              3278
	C:049EH            LINE#              3279
	C:04A0H            LINE#              3280
	C:04A1H            LINE#              3281
	C:04A2H            LINE#              3282
	C:04A3H            LINE#              3283
	C:04A5H            LINE#              3284
	C:04A6H            LINE#              3288
	C:04A9H            LINE#              3289
	C:04AAH            LINE#              3290
	C:04ABH            LINE#              3291
	C:04ACH            LINE#              3292
	C:04ADH            LINE#              3293
	C:04AEH            LINE#              3294
	C:04B0H            LINE#              3296
	C:04B3H            LINE#              3300
	C:04B5H            LINE#              3301
	C:04B7H            LINE#              3303
	C:04BAH            LINE#              3304
	C:04BDH            LINE#              3305
	C:04BFH            LINE#              3306
	C:04C1H            LINE#              3310
	C:04C2H            LINE#              3311
	C:04C3H            LINE#              3312
	C:04C5H            LINE#              3313
	C:04C6H            LINE#              3314
LX51 CODE BANKING LINKER/LOCATOR V06.16.13.326             01/01/16  17:30:09

	C:04C7H            LINE#              3315
	C:04C9H            LINE#              3316
	C:04CAH            LINE#              3317
	C:04CDH            LINE#              3318
	C:04CFH            LINE#              3320
	C:04D2H            LINE#              3321
	C:04D4H            LINE#              3323
	C:04D7H            LINE#              3324
	C:04D9H            LINE#              3326
	C:04DCH            LINE#              3327
	C:04DEH            LINE#              3329
	C:04DFH            LINE#              3330
	C:04E0H            LINE#              3331
	C:04E1H            LINE#              3332
	C:04E2H            LINE#              3333
	C:04E4H            LINE#              3336
	C:04E5H            LINE#              3337
	C:04E6H            LINE#              3338
	C:04E7H            LINE#              3339
	C:04E8H            LINE#              3340
	C:04E9H            LINE#              3341
	C:04EAH            LINE#              3342
	C:04EBH            LINE#              3344
	C:04EEH            LINE#              3345
	C:04F0H            LINE#              3347
	C:04F1H            LINE#              3348
	C:04F2H            LINE#              3349
	C:04F3H            LINE#              3350
	C:04F4H            LINE#              3351
	C:04F5H            LINE#              3352
	C:04F6H            LINE#              3353
	C:04F7H            LINE#              3355
	C:04FAH            LINE#              3356
	C:04FCH            LINE#              3358
	C:04FDH            LINE#              3359
	C:04FEH            LINE#              3360
	C:04FFH            LINE#              3361
	C:0500H            LINE#              3362
	C:0501H            LINE#              3363
	C:0502H            LINE#              3364
	C:0503H            LINE#              3367
	C:0506H            LINE#              3370
	C:0507H            LINE#              3371
	C:0508H            LINE#              3372
	C:050AH            LINE#              3373
	C:050BH            LINE#              3374
	C:050DH            LINE#              3375
	C:050FH            LINE#              3377
	C:0511H            LINE#              3381
	C:0512H            LINE#              3382
	C:0514H            LINE#              3384
	C:0515H            LINE#              3385
	C:0516H            LINE#              3386
	C:0518H            LINE#              3387
	C:051AH            LINE#              3390
	C:051CH            LINE#              3391
	C:051DH            LINE#              3392
	C:051FH            LINE#              3393
	C:0521H            LINE#              3394
	C:0523H            LINE#              3395
	C:0525H            LINE#              3397
	C:0528H            LINE#              3398
	C:052AH            LINE#              3399
	C:052CH            LINE#              3402
	C:052EH            LINE#              3403
	C:0530H            LINE#              3405
	C:0532H            LINE#              3409
	C:0534H            LINE#              3410
LX51 CODE BANKING LINKER/LOCATOR V06.16.13.326             01/01/16  17:30:09

	C:0535H            LINE#              3411
	C:0536H            LINE#              3413
	C:0538H            LINE#              3414
	C:053BH            LINE#              3416
	C:053DH            LINE#              3418
	C:0540H            LINE#              3420
	C:0542H            LINE#              3422
	C:0543H            LINE#              3425
	C:0545H            LINE#              3426
	C:0546H            LINE#              3427
	C:0547H            LINE#              3428
	C:0549H            LINE#              3429
	C:054AH            LINE#              3431
	C:054BH            LINE#              3432
	C:054CH            LINE#              3433
	C:054DH            LINE#              3434
	C:054EH            LINE#              3435
	C:054FH            LINE#              3436
	C:0550H            LINE#              3437
	C:0551H            LINE#              3439
	C:0553H            LINE#              3440
	C:0556H            LINE#              3442
	C:0558H            LINE#              3443
	C:055AH            LINE#              3446
	C:055DH            LINE#              3448
	C:055FH            LINE#              3449
	C:0561H            LINE#              3452
	C:0564H            LINE#              3454
	C:0566H            LINE#              3457
	C:0568H            LINE#              3459
	C:056AH            LINE#              3462
	C:056DH            LINE#              3464
	C:056EH            LINE#              3465
	C:056FH            LINE#              3466
	C:0571H            LINE#              3467
	C:0572H            LINE#              3468
	C:0573H            LINE#              3469
	C:0574H            LINE#              3470
	C:0576H            LINE#              3471
	C:0577H            LINE#              3472
	C:057AH            LINE#              3476
	C:057CH            LINE#              3477
	C:057EH            LINE#              3478
	C:0580H            LINE#              3482
	C:0583H            LINE#              3484
	C:0584H            LINE#              3485
	C:0585H            LINE#              3486
	C:0586H            LINE#              3487
	C:0587H            LINE#              3488
	C:0588H            LINE#              3489
	C:0589H            LINE#              3490
	C:058AH            LINE#              3491
	C:058BH            LINE#              3492
	C:058DH            LINE#              3493
	C:058EH            LINE#              3494
	C:058FH            LINE#              3495
	C:0591H            LINE#              3496
	C:0592H            LINE#              3497
	C:0594H            LINE#              3499
	C:0596H            LINE#              3500
	C:0598H            LINE#              3504
	C:0599H            LINE#              3505
	C:059AH            LINE#              3506
	C:059CH            LINE#              3507
	C:059DH            LINE#              3508
	C:059FH            LINE#              3509
	C:05A1H            LINE#              3511
	C:05A3H            LINE#              3512
LX51 CODE BANKING LINKER/LOCATOR V06.16.13.326             01/01/16  17:30:09

	C:05A5H            LINE#              3513
	C:05A7H            LINE#              3516
	C:05A8H            LINE#              3517
	C:05ABH            LINE#              3518
	C:05ACH            LINE#              3519
	C:05AEH            LINE#              3520
	C:05B0H            LINE#              3521
	C:05B1H            LINE#              3522
	C:05B2H            LINE#              3523
	C:05B4H            LINE#              3524
	C:05B6H            LINE#              3526
	C:05B9H            LINE#              3529
	C:05BBH            LINE#              3530
	C:05BDH            LINE#              3531
	C:05C0H            LINE#              3534
	C:05C1H            LINE#              3535
	C:05C2H            LINE#              3536
	C:05C3H            LINE#              3537
	C:05C4H            LINE#              3538
	C:05C5H            LINE#              3539
	C:05C6H            LINE#              3540
	C:05C7H            LINE#              3543
	C:05CAH            LINE#              3544
	C:05CBH            LINE#              3545
	C:05CDH            LINE#              3547
	C:05CFH            LINE#              3549
	C:05D0H            LINE#              3550
	C:05D1H            LINE#              3551
	C:05D2H            LINE#              3552
	C:05D3H            LINE#              3553
	C:05D4H            LINE#              3554
	C:05D5H            LINE#              3555
	C:05D7H            LINE#              3556
	C:05D8H            LINE#              3560
	C:05D9H            LINE#              3561
	C:05DAH            LINE#              3562
	C:05DCH            LINE#              3563
	C:05DDH            LINE#              3564
	C:05DFH            LINE#              3565
	C:05E1H            LINE#              3567
	C:05E3H            LINE#              3571
	C:05E5H            LINE#              3572
	C:05E7H            LINE#              3573
	C:05EAH            LINE#              3575
	C:05ECH            LINE#              3577
	C:05EEH            LINE#              3578
	C:05EFH            LINE#              3579
	C:05F1H            LINE#              3580
	C:05F2H            LINE#              3581
	C:05F4H            LINE#              3582
	C:05F6H            LINE#              3583
	C:05F7H            LINE#              3584
	C:05F9H            LINE#              3586
	C:05FBH            LINE#              3589
	C:05FEH            LINE#              3590
	C:0601H            LINE#              3592
	C:0604H            LINE#              3595
	C:0607H            LINE#              3597
	C:0609H            LINE#              3599
	C:060CH            LINE#              3601
	C:060FH            LINE#              3604
	C:0612H            LINE#              3606
	C:0615H            LINE#              3608
	C:0617H            LINE#              3609
	C:0619H            LINE#              3610
	C:061BH            LINE#              3611
	C:061DH            LINE#              3612
	C:0620H            LINE#              3613
LX51 CODE BANKING LINKER/LOCATOR V06.16.13.326             01/01/16  17:30:09

	C:0621H            LINE#              3626
	C:0623H            LINE#              3627
	C:0626H            LINE#              3630
	C:0628H            LINE#              3631
	C:062BH            LINE#              3634
	C:062DH            LINE#              3635
	C:0630H            LINE#              3638
	C:0632H            LINE#              3639
	C:0635H            LINE#              3642
	C:0637H            LINE#              3643
	C:063AH            LINE#              3646
	C:063CH            LINE#              3647
	C:063FH            LINE#              3650
	C:0641H            LINE#              3652
	C:0642H            LINE#              3653
	C:0645H            LINE#              3654
	C:0647H            LINE#              3655
	C:0649H            LINE#              3656
	C:064AH            LINE#              3667
	C:064CH            LINE#              3668
	C:064EH            LINE#              3669
	C:0651H            LINE#              3672
	C:0653H            LINE#              3673
	C:0655H            LINE#              3674
	C:0658H            LINE#              3677
	C:065AH            LINE#              3678
	C:065CH            LINE#              3679
	C:065FH            LINE#              3682
	C:0661H            LINE#              3683
	C:0663H            LINE#              3684
	C:0666H            LINE#              3687
	C:0668H            LINE#              3689
	C:066AH            LINE#              3690
	C:066BH            LINE#              3691
	C:066DH            LINE#              3692
	C:0670H            LINE#              3693
	C:0672H            LINE#              3694
	C:0675H            LINE#              3695
	C:0677H            LINE#              3696
	C:067AH            LINE#              3697
	C:067CH            LINE#              3698
	C:067FH            LINE#              3700
	C:0681H            LINE#              3701
	C:0683H            LINE#              3702
	C:0686H            LINE#              3704
	C:0688H            LINE#              3705
	C:068AH            LINE#              3706
	C:068DH            LINE#              3707
	C:068FH            LINE#              3709
	C:0690H            LINE#              3710
	C:0691H            LINE#              3712
	C:0694H            LINE#              3713
	C:0696H            LINE#              3714
	C:0698H            LINE#              3715
	C:069AH            LINE#              3716
	C:069BH            LINE#              3728
	C:069CH            LINE#              3729
	C:069EH            LINE#              3730
	C:06A0H            LINE#              3731
	C:06A3H            LINE#              3733
	C:06A5H            LINE#              3734
	C:06A6H            LINE#              3735
	C:06A7H            LINE#              3736
	C:06A8H            LINE#              3737
	C:06A9H            LINE#              3738
	C:06AAH            LINE#              3739
	C:06ABH            LINE#              3740
	C:06ADH            LINE#              3742
LX51 CODE BANKING LINKER/LOCATOR V06.16.13.326             01/01/16  17:30:09

	C:06AEH            LINE#              3743
	C:06AFH            LINE#              3744
	C:06B0H            LINE#              3745
	C:06B1H            LINE#              3746
	C:06B2H            LINE#              3747
	C:06B3H            LINE#              3748
	C:06B4H            LINE#              3749
	C:06B5H            LINE#              3750
	C:06B6H            LINE#              3751
	C:06B7H            LINE#              3752
	C:06B8H            LINE#              3753
	C:06B9H            LINE#              3754
	C:06BAH            LINE#              3755
	C:06BBH            LINE#              3756
	C:06BCH            LINE#              3757
	C:06BDH            LINE#              3758
	C:06BEH            LINE#              3759
	C:06C0H            LINE#              3760
	C:06C1H            LINE#              3761
	C:06C2H            LINE#              3762
	C:06C3H            LINE#              3763
	C:06C4H            LINE#              3765
	C:06C5H            LINE#              3766
	C:06C6H            LINE#              3767
	C:06C7H            LINE#              3768
	C:06C8H            LINE#              3769
	C:06C9H            LINE#              3770
	C:06CAH            LINE#              3771
	C:06CBH            LINE#              3772
	C:06CEH            LINE#              3773
	C:06CFH            LINE#              3774
	C:06D0H            LINE#              3775
	C:06D1H            LINE#              3776
	C:06D2H            LINE#              3777
	C:06D3H            LINE#              3789
	C:06D4H            LINE#              3790
	C:06D6H            LINE#              3791
	C:06D8H            LINE#              3792
	C:06DAH            LINE#              3793
	C:06DBH            LINE#              3794
	C:06DDH            LINE#              3795
	C:06DFH            LINE#              3796
	C:06E2H            LINE#              3798
	C:06E4H            LINE#              3799
	C:06E5H            LINE#              3800
	C:06E7H            LINE#              3801
	C:06E8H            LINE#              3802
	C:06E9H            LINE#              3803
	C:06EAH            LINE#              3804
	C:06ECH            LINE#              3805
	C:06EDH            LINE#              3807
	C:06EEH            LINE#              3808
	C:06F1H            LINE#              3809
	C:06F2H            LINE#              3810
	C:06F4H            LINE#              3811
	C:06F5H            LINE#              3812
	C:06F6H            LINE#              3813
	C:06F9H            LINE#              3814
	C:06FAH            LINE#              3815
	C:06FCH            LINE#              3816
	C:06FDH            LINE#              3817
	C:06FEH            LINE#              3818
	C:06FFH            LINE#              3819
	C:0700H            LINE#              3820
	C:0702H            LINE#              3821
	C:0703H            LINE#              3822
	C:0704H            LINE#              3823
	C:0706H            LINE#              3825
LX51 CODE BANKING LINKER/LOCATOR V06.16.13.326             01/01/16  17:30:09

	C:0707H            LINE#              3826
	C:0708H            LINE#              3827
	C:0709H            LINE#              3828
	C:070AH            LINE#              3829
	C:070BH            LINE#              3830
	C:070CH            LINE#              3831
	C:070DH            LINE#              3832
	C:070EH            LINE#              3833
	C:070FH            LINE#              3834
	C:0710H            LINE#              3835
	C:0712H            LINE#              3837
	C:0714H            LINE#              3838
	C:0717H            LINE#              3840
	C:0718H            LINE#              3841
	C:0719H            LINE#              3842
	C:071BH            LINE#              3843
	C:071CH            LINE#              3844
	C:071DH            LINE#              3845
	C:071EH            LINE#              3846
	C:0720H            LINE#              3847
	C:0721H            LINE#              3850
	C:0722H            LINE#              3851
	C:0724H            LINE#              3852
	C:0726H            LINE#              3853
	C:0727H            LINE#              3854
	C:0729H            LINE#              3855
	C:072AH            LINE#              4013
	C:072CH            LINE#              4014
	C:072FH            LINE#              4015
	C:0732H            LINE#              4019
	C:0733H            LINE#              4020
	C:0735H            LINE#              4021
	C:0737H            LINE#              4022
	C:0739H            LINE#              4024
	C:073CH            LINE#              4027
	C:073FH            LINE#              4028
	C:0740H            LINE#              4029
	C:0742H            LINE#              4030
	C:0744H            LINE#              4031
	C:0746H            LINE#              4032
	C:0748H            LINE#              4033
	C:074AH            LINE#              4034
	C:074CH            LINE#              4035
	C:074FH            LINE#              4038
	C:0751H            LINE#              4039
	C:0752H            LINE#              4040
	C:0753H            LINE#              4041
	C:0755H            LINE#              4042
	C:0757H            LINE#              4043
	C:0759H            LINE#              4045
	C:075BH            LINE#              4046
	C:075DH            LINE#              4047
	C:075FH            LINE#              4048
	C:0761H            LINE#              4050
	C:0762H            LINE#              4051
	C:0763H            LINE#              4052
	C:0764H            LINE#              4053
	C:0765H            LINE#              4054
	C:0766H            LINE#              4055
	C:0767H            LINE#              4056
	C:0768H            LINE#              4058
	C:0769H            LINE#              4059
	C:076AH            LINE#              4060
	C:076CH            LINE#              4062
	C:076DH            LINE#              4063
	C:076EH            LINE#              4064
	C:076FH            LINE#              4065
	C:0770H            LINE#              4066
LX51 CODE BANKING LINKER/LOCATOR V06.16.13.326             01/01/16  17:30:09

	C:0771H            LINE#              4067
	C:0772H            LINE#              4068
	C:0773H            LINE#              4069
	C:0774H            LINE#              4070
	C:0775H            LINE#              4071
	C:0776H            LINE#              4072
	C:0778H            LINE#              4074
	C:0779H            LINE#              4075
	C:077AH            LINE#              4076
	C:077BH            LINE#              4077
	C:077CH            LINE#              4078
	C:077DH            LINE#              4079
	C:077EH            LINE#              4080
	C:077FH            LINE#              4082
	C:0781H            LINE#              4084
	C:0783H            LINE#              4085
	C:0785H            LINE#              4087
	C:0786H            LINE#              4113
	C:0787H            LINE#              4114
	C:0789H            LINE#              4115
	C:078BH            LINE#              4116
	C:078CH            LINE#              4117
	C:078EH            LINE#              4118
	C:0790H            LINE#              4119
	C:0791H            LINE#              4122
	C:0793H            LINE#              4124
	C:0794H            LINE#              4125
	C:0795H            LINE#              4126
	C:0797H            LINE#              4127
	C:0798H            LINE#              4128
	C:079AH            LINE#              4129
	C:079CH            LINE#              4130
	C:079FH            LINE#              4133
	C:07A0H            LINE#              4134
	C:07A1H            LINE#              4135
	C:07A3H            LINE#              4136
	C:07A4H            LINE#              4137
	C:07A6H            LINE#              4138
	C:07A8H            LINE#              4139
	C:07ABH            LINE#              4142
	C:07ADH            LINE#              4143
	C:07AFH            LINE#              4144
	C:07B2H            LINE#              4147
	C:07B4H            LINE#              4148
	C:07B6H            LINE#              4152
	C:07B8H            LINE#              4153
	C:07BAH            LINE#              4155
	C:07BBH            LINE#              4161
	C:07BDH            LINE#              4162
	C:07BFH            LINE#              4163
	C:07C0H            LINE#              4164
	C:07C2H            LINE#              4165
	C:07C4H            LINE#              4166
	C:07C5H            LINE#              4167
	C:07C8H            LINE#              4168
	C:07C9H            LINE#              4169
	C:07CCH            LINE#              4170
	C:07CDH            LINE#              4171
	C:07CFH            LINE#              4172
	C:07D0H            LINE#              4174
	C:07D3H            LINE#              4176
	C:07D4H            LINE#              4177
	C:07D5H            LINE#              4178
	C:07D7H            LINE#              4179
	C:07D9H            LINE#              4180
	C:07DCH            LINE#              4183
	C:07DDH            LINE#              4184
	C:07DEH            LINE#              4185
LX51 CODE BANKING LINKER/LOCATOR V06.16.13.326             01/01/16  17:30:09

	C:07E0H            LINE#              4186
	C:07E2H            LINE#              4187
	C:07E5H            LINE#              4190
	C:07E7H            LINE#              4191
	C:07E9H            LINE#              4192
	C:07EBH            LINE#              4193
	C:07EEH            LINE#              4196
	C:07F0H            LINE#              4197
	C:07F2H            LINE#              4198
	C:07F4H            LINE#              4202
	C:07F5H            LINE#              4203
	C:07F7H            LINE#              4204
	C:07F9H            LINE#              4205
	C:07FBH            LINE#              4207
	C:07FCH            LINE#              4208
	C:07FEH            LINE#              4209
	C:0800H            LINE#              4210
	C:0802H            LINE#              4212
	C:0805H            LINE#              4215
	C:0807H            LINE#              4216
	C:080AH            LINE#              4218
	C:080DH            LINE#              4221
	C:080FH            LINE#              4222
	C:0812H            LINE#              4226
	C:0814H            LINE#              4227
	C:0816H            LINE#              4228
	C:0818H            LINE#              4230
	C:0819H            LINE#              4236
	C:081BH            LINE#              4237
	C:081CH            LINE#              4238
	C:081DH            LINE#              4240
	C:081EH            LINE#              4241
	C:0820H            LINE#              4242
	C:0821H            LINE#              4243
	C:0822H            LINE#              4244
	C:0824H            LINE#              4245
	C:0825H            LINE#              4246
	C:0826H            LINE#              4248
	C:0829H            LINE#              4250
	C:082AH            LINE#              4251
	C:082DH            LINE#              4253
	C:082EH            LINE#              4254
	C:082FH            LINE#              4255
	C:0831H            LINE#              4256
	C:0832H            LINE#              4257
	C:0834H            LINE#              4258
	C:0836H            LINE#              4259
	C:0838H            LINE#              4262
	C:0839H            LINE#              4263
	C:083AH            LINE#              4264
	C:083CH            LINE#              4265
	C:083DH            LINE#              4266
	C:083FH            LINE#              4267
	C:0841H            LINE#              4268
	C:0843H            LINE#              4271
	C:0845H            LINE#              4272
	C:0847H            LINE#              4273
	C:0849H            LINE#              4276
	C:084BH            LINE#              4277
	C:084DH            LINE#              4281
	C:084EH            LINE#              4282
	C:0851H            LINE#              4285
	C:0852H            LINE#              4286
	C:0854H            LINE#              4287
	C:0855H            LINE#              4288
	C:0856H            LINE#              4290
	C:0858H            LINE#              4292
	C:0859H            LINE#              4293
LX51 CODE BANKING LINKER/LOCATOR V06.16.13.326             01/01/16  17:30:09

	C:085AH            LINE#              4294
	C:085CH            LINE#              4295
	C:085EH            LINE#              4296
	C:0861H            LINE#              4299
	C:0863H            LINE#              4300
	C:0866H            LINE#              4304
	C:0867H            LINE#              4305
	C:0868H            LINE#              4306
	C:086AH            LINE#              4307
	C:086CH            LINE#              4308
	C:086DH            LINE#              4310
	C:086FH            LINE#              4311
	C:0872H            LINE#              4314
	C:0874H            LINE#              4317
	C:0876H            LINE#              4319
	C:0877H            LINE#              4325
	C:0879H            LINE#              4326
	C:087AH            LINE#              4327
	C:087BH            LINE#              4329
	C:087DH            LINE#              4330
	C:087FH            LINE#              4332
	C:0882H            LINE#              4334
	C:0883H            LINE#              4335
	C:0886H            LINE#              4337
	C:0887H            LINE#              4338
	C:0888H            LINE#              4339
	C:088AH            LINE#              4340
	C:088BH            LINE#              4341
	C:088DH            LINE#              4342
	C:088FH            LINE#              4343
	C:0892H            LINE#              4346
	C:0893H            LINE#              4347
	C:0894H            LINE#              4348
	C:0896H            LINE#              4349
	C:0897H            LINE#              4350
	C:0899H            LINE#              4351
	C:089BH            LINE#              4352
	C:089EH            LINE#              4355
	C:08A0H            LINE#              4356
	C:08A2H            LINE#              4357
	C:08A5H            LINE#              4360
	C:08A7H            LINE#              4361
	C:08A9H            LINE#              4365
	C:08AAH            LINE#              4366
	C:08ADH            LINE#              4369
	C:08AEH            LINE#              4370
	C:08B0H            LINE#              4371
	C:08B1H            LINE#              4372
	C:08B2H            LINE#              4374
	C:08B4H            LINE#              4376
	C:08B5H            LINE#              4377
	C:08B6H            LINE#              4378
	C:08B8H            LINE#              4379
	C:08BAH            LINE#              4380
	C:08BDH            LINE#              4383
	C:08BFH            LINE#              4384
	C:08C2H            LINE#              4388
	C:08C3H            LINE#              4389
	C:08C4H            LINE#              4390
	C:08C6H            LINE#              4391
	C:08C8H            LINE#              4392
	C:08C9H            LINE#              4394
	C:08CBH            LINE#              4395
	C:08CEH            LINE#              4398
	C:08D0H            LINE#              4401
	C:08D2H            LINE#              4403
	C:08D3H            LINE#              4417
	C:08D5H            LINE#              4418
LX51 CODE BANKING LINKER/LOCATOR V06.16.13.326             01/01/16  17:30:09

	C:08D7H            LINE#              4419
	C:08DAH            LINE#              4420
	C:08DDH            LINE#              4422
	C:08DFH            LINE#              4423
	C:08E0H            LINE#              4424
	C:08E2H            LINE#              4425
	C:08E4H            LINE#              4426
	C:08E6H            LINE#              4428
	C:08E7H            LINE#              4429
	C:08E9H            LINE#              4430
	C:08EBH            LINE#              4431
	C:08EDH            LINE#              4433
	C:08EFH            LINE#              4436
	C:08F1H            LINE#              4437
	C:08F2H            LINE#              4438
	C:08F4H            LINE#              4440
	C:08F6H            LINE#              4441
	C:08F8H            LINE#              4443
	C:08FAH            LINE#              4444
	C:08FDH            LINE#              4445
	C:08FEH            LINE#              4446
	C:0901H            LINE#              4447
	C:0904H            LINE#              4448
	C:0907H            LINE#              4449
	C:0908H            LINE#              4450
	C:0909H            LINE#              4451
	C:090BH            LINE#              4452
	C:090DH            LINE#              4454
	C:090FH            LINE#              4456
	C:0910H            LINE#              4457
	C:0911H            LINE#              4458
	C:0913H            LINE#              4459
	C:0915H            LINE#              4461
	C:0917H            LINE#              4464
	C:0919H            LINE#              4465
	C:091AH            LINE#              4479
	C:091BH            LINE#              4480
	C:091DH            LINE#              4481
	C:091FH            LINE#              4482
	C:0921H            LINE#              4483
	C:0923H            LINE#              4491
	C:0925H            LINE#              4492
	C:0927H            LINE#              4494
	C:0928H            LINE#              4495
	C:092AH            LINE#              4498
	C:092BH            LINE#              4500
	C:092DH            LINE#              4502
	C:092FH            LINE#              4504
	C:0930H            LINE#              4519
	C:0933H            LINE#              4649
	C:0934H            LINE#              4663
	C:0937H            LINE#              4664
	C:0938H            LINE#              4678
	C:093AH            LINE#              4679
	C:093BH            LINE#              4680
	C:093CH            LINE#              4682
	C:093EH            LINE#              4683
	C:0941H            LINE#              4685
	C:0945H            LINE#              4689
	C:0947H            LINE#              4690
	C:0948H            LINE#              4691
	C:094AH            LINE#              4692
	C:094CH            LINE#              4693
	C:094EH            LINE#              4695
	C:0951H            LINE#              4696
	C:0952H            LINE#              4697
	C:0953H            LINE#              4698
	C:0955H            LINE#              4699
LX51 CODE BANKING LINKER/LOCATOR V06.16.13.326             01/01/16  17:30:09

	C:0956H            LINE#              4700
	C:0958H            LINE#              4702
	C:0959H            LINE#              4703
	C:095BH            LINE#              4705
	C:095DH            LINE#              4706
	C:095FH            LINE#              4707
	C:0962H            LINE#              4710
	C:0963H            LINE#              4711
	C:0964H            LINE#              4712
	C:0966H            LINE#              4713
	C:0968H            LINE#              4715
	C:096AH            LINE#              4716
	C:096CH            LINE#              4718
	C:096EH            LINE#              4720
	C:096FH            LINE#              4721
	C:0972H            LINE#              4724
	C:0973H            LINE#              4725
	C:0975H            LINE#              4726
	C:0978H            LINE#              4729
	C:097AH            LINE#              4731
	C:097CH            LINE#              4732
	C:097DH            LINE#              4733
	C:097FH            LINE#              4734
	C:0981H            LINE#              4736
	C:0984H            LINE#              4738
	C:0985H            LINE#              4739
	C:0987H            LINE#              4740
	C:0989H            LINE#              4742
	C:098CH            LINE#              4744
	C:098DH            LINE#              4745
	C:098FH            LINE#              4746
	C:0991H            LINE#              4748
	C:0994H            LINE#              4750
	C:0995H            LINE#              4751
	C:0997H            LINE#              4752
	C:0999H            LINE#              4754
	C:099CH            LINE#              4757
	C:099FH            LINE#              4758
	C:09A0H            LINE#              4841
	C:09A2H            LINE#              4842
	C:09A4H            LINE#              4843
	C:09A6H            LINE#              4845
	C:09A8H            LINE#              4847
	C:09AAH            LINE#              4849
	C:09ACH            LINE#              4850
	C:09AFH            LINE#              4851
	C:09B1H            LINE#              4853
	C:09B2H            LINE#              4854
	C:09B4H            LINE#              4855
	C:09B6H            LINE#              4856
	C:09B7H            LINE#              4857
	C:09B9H            LINE#              4859
	C:09BBH            LINE#              4863
	C:09BCH            LINE#              4864
	C:09BDH            LINE#              4865
	C:09BFH            LINE#              4866
	C:09C1H            LINE#              4868
	C:09C3H            LINE#              4870
	C:09C5H            LINE#              4871
	C:09C7H            LINE#              4875
	C:09C9H            LINE#              4876
	C:09CCH            LINE#              4878
	C:09CFH            LINE#              4881
	C:09D0H            LINE#              4895
	C:09D2H            LINE#              4896
	C:09D4H            LINE#              4897
	C:09D6H            LINE#              4898
	C:09D7H            LINE#              4899
LX51 CODE BANKING LINKER/LOCATOR V06.16.13.326             01/01/16  17:30:09

	C:09D9H            LINE#              4900
	C:09DBH            LINE#              4901
	C:09DCH            LINE#              4902
	C:09DDH            LINE#              4903
	C:09DEH            LINE#              4904
	C:09DFH            LINE#              4905
	C:09E1H            LINE#              4906
	C:09E3H            LINE#              4908
	C:09E5H            LINE#              4912
	C:09E7H            LINE#              4913
	C:09E9H            LINE#              4914
	C:09EBH            LINE#              4915
	C:09EDH            LINE#              4916
	C:09EFH            LINE#              4917
	C:09F0H            LINE#              4930
	C:09F3H            LINE#              4931
	C:09F6H            LINE#              4932
	C:09F7H            LINE#              4948
	C:09FAH            LINE#              4949
	C:09FCH            LINE#              4950
	C:09FEH            LINE#              4951
	C:0A01H            LINE#              4953
	C:0A02H            LINE#              4954
	C:0A03H            LINE#              4955
	C:0A04H            LINE#              4956
	C:0A05H            LINE#              4957
	C:0A06H            LINE#              4958
	C:0A07H            LINE#              4959
	C:0A08H            LINE#              4962
	C:0A0AH            LINE#              4963
	C:0A0CH            LINE#              4964
	C:0A0EH            LINE#              4965
	C:0A10H            LINE#              4966
	C:0A11H            LINE#              4967
	C:0A12H            LINE#              4968
	C:0A13H            LINE#              4969
	C:0A14H            LINE#              4970
	C:0A15H            LINE#              4971
	C:0A16H            LINE#              4973
	C:0A18H            LINE#              4975
	C:0A19H            LINE#              4976
	C:0A1CH            LINE#              4977
	C:0A1EH            LINE#              4979
	C:0A21H            LINE#              4981
	C:0A23H            LINE#              4982
	C:0A25H            LINE#              4983
	C:0A27H            LINE#              4984
	C:0A29H            LINE#              4985
	C:0A2AH            LINE#              4986
	C:0A2BH            LINE#              4987
	C:0A2CH            LINE#              4989
	C:0A2EH            LINE#              4991
	C:0A2FH            LINE#              4992
	C:0A30H            LINE#              4993
	C:0A31H            LINE#              4994
	C:0A32H            LINE#              4995
	C:0A34H            LINE#              4996
	C:0A36H            LINE#              4997
	C:0A38H            LINE#              4998
	C:0A39H            LINE#              4999
	C:0A3AH            LINE#              5000
	C:0A3BH            LINE#              5001
	C:0A3CH            LINE#              5002
	C:0A3DH            LINE#              5003
	C:0A3EH            LINE#              5005
	C:0A40H            LINE#              5007
	C:0A41H            LINE#              5009
	C:0A42H            LINE#              5010
LX51 CODE BANKING LINKER/LOCATOR V06.16.13.326             01/01/16  17:30:09

	C:0A44H            LINE#              5011
	C:0A45H            LINE#              5012
	C:0A46H            LINE#              5013
	C:0A48H            LINE#              5014
	C:0A49H            LINE#              5015
	C:0A4AH            LINE#              5016
	C:0A4BH            LINE#              5017
	C:0A4CH            LINE#              5018
	C:0A4EH            LINE#              5019
	C:0A4FH            LINE#              5020
	C:0A50H            LINE#              5021
	C:0A52H            LINE#              5022
	C:0A54H            LINE#              5026
	C:0A56H            LINE#              5027
	C:0A58H            LINE#              5028
	C:0A5AH            LINE#              5029
	C:0A5CH            LINE#              5030
	C:0A5EH            LINE#              5031
	C:0A60H            LINE#              5032
	C:0A61H            LINE#              5033
	C:0A62H            LINE#              5034
	C:0A64H            LINE#              5035
	C:0A66H            LINE#              5037
	C:0A67H            LINE#              5038
	C:0A68H            LINE#              5040
	C:0A69H            LINE#              5041
	C:0A6AH            LINE#              5042
	C:0A6CH            LINE#              5043
	C:0A6EH            LINE#              5045
	C:0A6FH            LINE#              5046
	C:0A70H            LINE#              5049
	C:0A71H            LINE#              5050
	C:0A72H            LINE#              5051
	C:0A73H            LINE#              5052
	C:0A74H            LINE#              5053
	C:0A75H            LINE#              5054
	C:0A76H            LINE#              5055
	C:0A77H            LINE#              5056
	C:0A79H            LINE#              5058
	C:0A7AH            LINE#              5059
	C:0A7BH            LINE#              5060
	C:0A7CH            LINE#              5061
	C:0A7DH            LINE#              5062
	C:0A7EH            LINE#              5063
	C:0A7FH            LINE#              5064
	C:0A80H            LINE#              5065
	C:0A81H            LINE#              5066
	C:0A83H            LINE#              5069
	C:0A84H            LINE#              5070
	C:0A85H            LINE#              5071
	C:0A86H            LINE#              5072
	C:0A87H            LINE#              5073
	C:0A88H            LINE#              5074
	C:0A89H            LINE#              5075
	C:0A8AH            LINE#              5076
	C:0A8CH            LINE#              5079
	C:0A8DH            LINE#              5080
	C:0A8EH            LINE#              5081
	C:0A8FH            LINE#              5082
	C:0A90H            LINE#              5083
	C:0A91H            LINE#              5084
	C:0A92H            LINE#              5085
	C:0A94H            LINE#              5086
	C:0A96H            LINE#              5087
	C:0A98H            LINE#              5089
	C:0A9AH            LINE#              5090
	C:0A9CH            LINE#              5091
	C:0A9EH            LINE#              5095
LX51 CODE BANKING LINKER/LOCATOR V06.16.13.326             01/01/16  17:30:09

	C:0A9FH            LINE#              5096
	C:0AA0H            LINE#              5097
	C:0AA2H            LINE#              5098
	C:0AA4H            LINE#              5100
	C:0AA6H            LINE#              5103
	C:0AA9H            LINE#              5105
	C:0AABH            LINE#              5106
	C:0AADH            LINE#              5109
	C:0AAFH            LINE#              5110
	C:0AB0H            LINE#              5111
	C:0AB1H            LINE#              5112
	C:0AB2H            LINE#              5113
	C:0AB4H            LINE#              5114
	C:0AB6H            LINE#              5115
	C:0AB8H            LINE#              5117
	C:0AB9H            LINE#              5119
	C:0ABAH            LINE#              5120
	C:0ABCH            LINE#              5121
	C:0ABEH            LINE#              5122
	C:0AC0H            LINE#              5124
	C:0AC1H            LINE#              5126
	C:0AC2H            LINE#              5127
	C:0AC3H            LINE#              5128
	C:0AC5H            LINE#              5129
	C:0AC7H            LINE#              5131
	C:0AC9H            LINE#              5138
	C:0ACBH            LINE#              5141
	C:0ACDH            LINE#              5142
	C:0ACEH            LINE#              5143
	C:0AD0H            LINE#              5144
	C:0AD1H            LINE#              5145
	C:0AD3H            LINE#              5146
	C:0AD4H            LINE#              5147
	C:0AD6H            LINE#              5148
	C:0AD7H            LINE#              5149
	C:0AD9H            LINE#              5150
	C:0ADAH            LINE#              5151
	C:0ADCH            LINE#              5152
	C:0ADDH            LINE#              5153
	C:0ADEH            LINE#              5155
	C:0ADFH            LINE#              5156
	C:0AE0H            LINE#              5157
	C:0AE1H            LINE#              5158
	C:0AE2H            LINE#              5159
	C:0AE3H            LINE#              5160
	C:0AE5H            LINE#              5161
	C:0AE6H            LINE#              5162
	C:0AE8H            LINE#              5164
	C:0AE9H            LINE#              5165
	C:0AEAH            LINE#              5166
	C:0AECH            LINE#              5167
	C:0AEDH            LINE#              5168
	C:0AEFH            LINE#              5169
	C:0AF1H            LINE#              5172
	C:0AF3H            LINE#              5173
	C:0AF4H            LINE#              5174
	C:0AF5H            LINE#              5177
	C:0AF6H            LINE#              5183
	C:0AF8H            LINE#              5184
	C:0AFAH            LINE#              5185
	C:0AFBH            LINE#              5186
	C:0AFCH            LINE#              5187
	C:0AFDH            LINE#              5188
	C:0AFEH            LINE#              5189
	C:0AFFH            LINE#              5190
	C:0B01H            LINE#              5191
	C:0B02H            LINE#              5192
	C:0B03H            LINE#              5193
LX51 CODE BANKING LINKER/LOCATOR V06.16.13.326             01/01/16  17:30:09

	C:0B04H            LINE#              5194
	C:0B05H            LINE#              5195
	C:0B06H            LINE#              5196
	C:0B07H            LINE#              5197
	C:0B08H            LINE#              5198
	C:0B0AH            LINE#              5199
	C:0B0BH            LINE#              5200
	C:0B0CH            LINE#              5201
	C:0B0DH            LINE#              5202
	C:0B0EH            LINE#              5203
	C:0B0FH            LINE#              5204
	C:0B10H            LINE#              5205
	C:0B11H            LINE#              5206
	C:0B12H            LINE#              5207
	C:0B13H            LINE#              5208
	C:0B14H            LINE#              5209
	C:0B15H            LINE#              5210
	C:0B17H            LINE#              5211
	C:0B18H            LINE#              5212
	C:0B1AH            LINE#              5213
	C:0B1CH            LINE#              5214
	C:0B1DH            LINE#              5215
	C:0B1EH            LINE#              5216
	C:0B20H            LINE#              5217
	C:0B22H            LINE#              5219
	C:0B24H            LINE#              5224
	C:0B26H            LINE#              5226
	C:0B27H            LINE#              5227
	C:0B28H            LINE#              5228
	C:0B29H            LINE#              5229
	C:0B2BH            LINE#              5230
	C:0B2CH            LINE#              5231
	C:0B2DH            LINE#              5232
	C:0B2FH            LINE#              5233
	C:0B30H            LINE#              5234
	C:0B31H            LINE#              5235
	C:0B32H            LINE#              5236
	C:0B33H            LINE#              5237
	C:0B34H            LINE#              5238
	C:0B35H            LINE#              5239
	C:0B37H            LINE#              5241
	C:0B38H            LINE#              5242
	C:0B3AH            LINE#              5243
	C:0B3CH            LINE#              5246
	C:0B3EH            LINE#              5249
	C:0B40H            LINE#              5250
	C:0B41H            LINE#              5251
	C:0B42H            LINE#              5252
	C:0B43H            LINE#              5266
	C:0B46H            LINE#              5267
	C:0B48H            LINE#              5270
	C:0B4BH            LINE#              5271
	C:0B4EH            LINE#              5272
	C:0B50H            LINE#              5273
	C:0B53H            LINE#              5274
	C:0B54H            LINE#              5287
	C:0B55H            LINE#              5288
	C:0B56H            LINE#              5289
	C:0B57H            LINE#              5290
	C:0B58H            LINE#              5291
	C:0B59H            LINE#              5292
	C:0B5AH            LINE#              5293
	C:0B5BH            LINE#              5295
	C:0B5CH            LINE#              5296
	C:0B5DH            LINE#              5297
	C:0B5EH            LINE#              5298
	C:0B5FH            LINE#              5299
	C:0B60H            LINE#              5300
LX51 CODE BANKING LINKER/LOCATOR V06.16.13.326             01/01/16  17:30:09

	C:0B61H            LINE#              5301
	C:0B62H            LINE#              5303
	C:0B65H            LINE#              5304
	C:0B67H            LINE#              5306
	C:0B68H            LINE#              5307
	C:0B69H            LINE#              5308
	C:0B6AH            LINE#              5309
	C:0B6BH            LINE#              5310
	C:0B6CH            LINE#              5311
	C:0B6DH            LINE#              5312
	C:0B6EH            LINE#              5313
	C:0B6FH            LINE#              5314
	C:0B70H            LINE#              5315
	C:0B71H            LINE#              5316
	C:0B72H            LINE#              5317
	C:0B74H            LINE#              5318
	C:0B76H            LINE#              5319
	C:0B77H            LINE#              5320
	C:0B78H            LINE#              5321
	C:0B7AH            LINE#              5322
	C:0B7CH            LINE#              5324
	C:0B7DH            LINE#              5325
	C:0B80H            LINE#              5327
	C:0B81H            LINE#              5328
	C:0B82H            LINE#              5329
	C:0B83H            LINE#              5330
	C:0B84H            LINE#              5331
	C:0B85H            LINE#              5332
	C:0B86H            LINE#              5333
	C:0B87H            LINE#              5334
	C:0B88H            LINE#              5335
	C:0B89H            LINE#              5336
	C:0B8AH            LINE#              5337
	C:0B8DH            LINE#              5340
	C:0B8EH            LINE#              5341
	C:0B8FH            LINE#              5342
	C:0B90H            LINE#              5343
	C:0B91H            LINE#              5344
	C:0B92H            LINE#              5345
	C:0B93H            LINE#              5346
	C:0B94H            LINE#              5347
	C:0B95H            LINE#              5348
	C:0B97H            LINE#              5349
	C:0B98H            LINE#              5350
	C:0B99H            LINE#              5351
	C:0B9BH            LINE#              5352
	C:0B9CH            LINE#              5353
	C:0B9EH            LINE#              5354
	C:0BA0H            LINE#              5357
	C:0BA1H            LINE#              5358
	C:0BA2H            LINE#              5359
	C:0BA4H            LINE#              5360
	C:0BA6H            LINE#              5363
	C:0BA8H            LINE#              5364
	C:0BAAH            LINE#              5365
	C:0BACH            LINE#              5366
	C:0BAEH            LINE#              5367
	C:0BB0H            LINE#              5368
	C:0BB2H            LINE#              5369
	C:0BB3H            LINE#              5372
	C:0BB5H            LINE#              5373
	C:0BB7H            LINE#              5374
	C:0BB9H            LINE#              5375
	C:0BBBH            LINE#              5376
	C:0BBDH            LINE#              5377
	C:0BBFH            LINE#              5378
	C:0BC2H            LINE#              5380
	C:0BC3H            LINE#              5381
LX51 CODE BANKING LINKER/LOCATOR V06.16.13.326             01/01/16  17:30:09

	C:0BC5H            LINE#              5382
	C:0BC7H            LINE#              5383
	C:0BC9H            LINE#              5385
	C:0BCBH            LINE#              5386
	C:0BCDH            LINE#              5387
	C:0BCEH            LINE#              5388
	C:0BCFH            LINE#              5389
	C:0BD1H            LINE#              5390
	C:0BD2H            LINE#              5391
	C:0BD4H            LINE#              5392
	C:0BD5H            LINE#              5393
	C:0BD7H            LINE#              5394
	C:0BDAH            LINE#              5396
	C:0BDDH            LINE#              5397
	C:0BDEH            LINE#              5398
	C:0BE0H            LINE#              5399
	C:0BE2H            LINE#              5402
	C:0BE3H            LINE#              5406
	C:0BE4H            LINE#              5407
	C:0BE5H            LINE#              5408
	C:0BE6H            LINE#              5409
	C:0BE7H            LINE#              5410
	C:0BE8H            LINE#              5411
	C:0BE9H            LINE#              5412
	C:0BEBH            LINE#              5413
	C:0BECH            LINE#              5414
	C:0BEDH            LINE#              5415
	C:0BEFH            LINE#              5416
	C:0BF1H            LINE#              5418
	C:0BF2H            LINE#              5419
	C:0BF5H            LINE#              5421
	C:0BF6H            LINE#              5422
	C:0BF7H            LINE#              5423
	C:0BF8H            LINE#              5424
	C:0BF9H            LINE#              5425
	C:0BFAH            LINE#              5426
	C:0BFCH            LINE#              5429
	C:0BFDH            LINE#              5430
	C:0BFEH            LINE#              5431
	C:0C00H            LINE#              5432
	C:0C01H            LINE#              5433
	C:0C03H            LINE#              5436
	C:0C04H            LINE#              5437
	C:0C05H            LINE#              5438
	C:0C07H            LINE#              5439
	C:0C09H            LINE#              5442
	C:0C0BH            LINE#              5443
	C:0C0DH            LINE#              5444
	C:0C0FH            LINE#              5445
	C:0C10H            LINE#              5448
	C:0C12H            LINE#              5449
	C:0C14H            LINE#              5450
	C:0C16H            LINE#              5451
	C:0C17H            LINE#              5466
	C:0C19H            LINE#              5467
	C:0C1AH            LINE#              5468
	C:0C1BH            LINE#              5469
	C:0C1DH            LINE#              5471
	C:0C1FH            LINE#              5474
	C:0C21H            LINE#              5477
	C:0C24H            LINE#              5478
	C:0C26H            LINE#              5480
	C:0C28H            LINE#              5481
	C:0C2BH            LINE#              5482
	C:0C2DH            LINE#              5483
	C:0C2FH            LINE#              5484
	C:0C31H            LINE#              5486
	C:0C33H            LINE#              5487
LX51 CODE BANKING LINKER/LOCATOR V06.16.13.326             01/01/16  17:30:09

	C:0C35H            LINE#              5488
	C:0C36H            LINE#              5489
	C:0C37H            LINE#              5490
	C:0C38H            LINE#              5491
	C:0C39H            LINE#              5492
	C:0C3AH            LINE#              5493
	C:0C3BH            LINE#              5494
	C:0C3CH            LINE#              5496
	C:0C3DH            LINE#              5497
	C:0C3EH            LINE#              5498
	C:0C3FH            LINE#              5499
	C:0C40H            LINE#              5500
	C:0C41H            LINE#              5501
	C:0C42H            LINE#              5502
	C:0C43H            LINE#              5504
	C:0C46H            LINE#              5505
	C:0C49H            LINE#              5506
	C:0C4AH            LINE#              5507
	C:0C4BH            LINE#              5508
	C:0C4CH            LINE#              5509
	C:0C4EH            LINE#              5510
	C:0C4FH            LINE#              5511
	C:0C50H            LINE#              5512
	C:0C52H            LINE#              5513
	C:0C55H            LINE#              5515
	C:0C57H            LINE#              5516
	C:0C5AH            LINE#              5519
	C:0C5BH            LINE#              5533
	C:0C5DH            LINE#              5534
	C:0C60H            LINE#              5535
	C:0C63H            LINE#              5536
	C:0C66H            LINE#              5537
	C:0C69H            LINE#              5538
	C:0C6CH            LINE#              5541
	C:0C6EH            LINE#              5542
	C:0C71H            LINE#              5543
	C:0C74H            LINE#              5544
	C:0C77H            LINE#              5545
	C:0C7AH            LINE#              5548
	C:0C7CH            LINE#              5550
	C:0C7EH            LINE#              5551
	C:0C81H            LINE#              5553
	C:0C83H            LINE#              5554
	C:0C85H            LINE#              5555
	C:0C87H            LINE#              5557
	C:0C89H            LINE#              5559
	C:0C8AH            LINE#              5560
	C:0C8CH            LINE#              5561
	C:0C8EH            LINE#              5562
	C:0C90H            LINE#              5564
	C:0C92H            LINE#              5566
	C:0C94H            LINE#              5567
	C:0C96H            LINE#              5569
	C:0C98H            LINE#              5571
	C:0C9AH            LINE#              5572
	C:0C9CH            LINE#              5574
	C:0C9EH            LINE#              5577
	C:0CA1H            LINE#              5578
	C:0CA3H            LINE#              5581
	C:0CA6H            LINE#              5583
	C:0CA8H            LINE#              5584
	C:0CAAH            LINE#              5586
	C:0CACH            LINE#              5587
	C:0CAEH            LINE#              5588
	C:0CAFH            LINE#              5592
	C:0CB1H            LINE#              5593
	C:0CB2H            LINE#              5594
	C:0CB3H            LINE#              5595
LX51 CODE BANKING LINKER/LOCATOR V06.16.13.326             01/01/16  17:30:09

	C:0CB5H            LINE#              5596
	C:0CB8H            LINE#              5598
	C:0CBAH            LINE#              5599
	C:0CBBH            LINE#              5600
	C:0CBCH            LINE#              5601
	C:0CBEH            LINE#              5602
	C:0CC0H            LINE#              5604
	C:0CC2H            LINE#              5606
	C:0CC3H            LINE#              5607
	C:0CC5H            LINE#              5608
	C:0CC8H            LINE#              5610
	C:0CC9H            LINE#              5612
	C:0CCCH            LINE#              5613
	C:0CCEH            LINE#              5615
	C:0CD1H            LINE#              5617
	C:0CD2H            LINE#              5619
	C:0CD3H            LINE#              5620
	C:0CD6H            LINE#              5621
	C:0CD8H            LINE#              5626
	C:0CDAH            LINE#              5627
	C:0CDBH            LINE#              5628
	C:0CDDH            LINE#              5629
	C:0CDEH            LINE#              5631
	C:0CDFH            LINE#              5632
	C:0CE0H            LINE#              5633
	C:0CE2H            LINE#              5636
	C:0CE4H            LINE#              5637
	C:0CE7H            LINE#              5638
	C:0CE9H            LINE#              5639
	C:0CECH            LINE#              5640
	C:0CEEH            LINE#              5643
	C:0CF1H            LINE#              5645
	C:0CF2H            LINE#              5646
	C:0CF3H            LINE#              5647
	C:0CF4H            LINE#              5648
	C:0CF6H            LINE#              5649
	C:0CF8H            LINE#              5650
	C:0CFAH            LINE#              5652
	C:0CFBH            LINE#              5653
	C:0CFDH            LINE#              5654
	C:0CFFH            LINE#              5655
	C:0D01H            LINE#              5656
	C:0D03H            LINE#              5658
	C:0D05H            LINE#              5661
	C:0D08H            LINE#              5662
	C:0D0AH            LINE#              5664
	C:0D0CH            LINE#              5665
	C:0D0FH            LINE#              5666
	C:0D12H            LINE#              5667
	C:0D15H            LINE#              5669
	C:0D18H            LINE#              5671
	C:0D1BH            LINE#              5676
	C:0D1EH            LINE#              5677
	C:0D20H            LINE#              5678
	C:0D23H            LINE#              5679
	C:0D25H            LINE#              5682
	C:0D27H            LINE#              5683
	C:0D29H            LINE#              5685
	C:0D2AH            LINE#              5686
	C:0D2BH            LINE#              5687
	C:0D2CH            LINE#              5688
	C:0D2DH            LINE#              5689
	C:0D2EH            LINE#              5690
	C:0D2FH            LINE#              5691
	C:0D30H            LINE#              5693
	C:0D31H            LINE#              5694
	C:0D32H            LINE#              5695
	C:0D33H            LINE#              5696
LX51 CODE BANKING LINKER/LOCATOR V06.16.13.326             01/01/16  17:30:09

	C:0D35H            LINE#              5697
	C:0D36H            LINE#              5698
	C:0D37H            LINE#              5699
	C:0D39H            LINE#              5700
	C:0D3BH            LINE#              5703
	C:0D3CH            LINE#              5704
	C:0D3EH            LINE#              5705
	C:0D40H            LINE#              5706
	C:0D42H            LINE#              5707
	C:0D44H            LINE#              5709
	C:0D47H            LINE#              5710
	C:0D49H            LINE#              5712
	C:0D4BH            LINE#              5713
	C:0D4DH            LINE#              5716
	C:0D4FH            LINE#              5718
	C:0D51H            LINE#              5719
	C:0D52H            LINE#              5732
	C:0D54H            LINE#              5733
	C:0D56H            LINE#              5734
	C:0D58H            LINE#              5736
	C:0D5BH            LINE#              5737
	C:0D5DH            LINE#              5738
	C:0D60H            LINE#              5741
	C:0D63H            LINE#              5742
	C:0D66H            LINE#              5743
	C:0D69H            LINE#              5744
	C:0D6BH            LINE#              5745
	C:0D6DH            LINE#              5746
	C:0D70H            LINE#              5749
	C:0D71H            LINE#              5762
	C:0D74H            LINE#              5763
	C:0D77H            LINE#              5764
	C:0D7AH            LINE#              5765
	C:0D7DH            LINE#              5766
	C:0D80H            LINE#              5768
	C:0D83H            LINE#              5769
	C:0D86H            LINE#              5770
	C:0D88H            LINE#              5771
	C:0D8BH            LINE#              5772
	C:0D8DH            LINE#              5773
	C:0D8EH            LINE#              5787
	C:0D90H            LINE#              5788
	C:0D93H            LINE#              5789
	C:0D96H            LINE#              5791
	C:0D98H            LINE#              5793
	C:0D9AH            LINE#              5794
	C:0D9DH            LINE#              5795
	C:0D9EH            LINE#              5796
	C:0D9FH            LINE#              5797
	C:0DA1H            LINE#              5798
	C:0DA2H            LINE#              5799
	C:0DA4H            LINE#              5800
	C:0DA5H            LINE#              5801
	C:0DA7H            LINE#              5802
	C:0DA8H            LINE#              5803
	C:0DAAH            LINE#              5804
	C:0DABH            LINE#              5805
	C:0DADH            LINE#              5806
	C:0DAEH            LINE#              5807
	C:0DB0H            LINE#              5808
	C:0DB1H            LINE#              5809
	C:0DB3H            LINE#              5810
	C:0DB5H            LINE#              5812
	C:0DB8H            LINE#              5814
	C:0DB9H            LINE#              5815
	C:0DBBH            LINE#              5816
	C:0DBDH            LINE#              5817
	C:0DBFH            LINE#              5819
LX51 CODE BANKING LINKER/LOCATOR V06.16.13.326             01/01/16  17:30:09

	C:0DC1H            LINE#              5820
	C:0DC7H            LINE#              5823
	C:0DCAH            LINE#              5824
	C:0DCCH            LINE#              5827
	C:0DCFH            LINE#              5828
	C:0DD2H            LINE#              5829
	C:0DD4H            LINE#              5830
	C:0DD7H            LINE#              5831
	C:0DD8H            LINE#              5847
	C:0DDBH            LINE#              5849
	C:0DDDH            LINE#              5850
	C:0DE0H            LINE#              5851
	C:0DE2H            LINE#              5852
	C:0DE4H            LINE#              5853
	C:0DE6H            LINE#              5854
	C:0DE9H            LINE#              5855
	C:0DECH            LINE#              5858
	C:0DEEH            LINE#              5859
	C:0DF1H            LINE#              5860
	C:0DF3H            LINE#              5861
	C:0DF5H            LINE#              5862
	C:0DF7H            LINE#              5863
	C:0DFAH            LINE#              5864
	C:0DFDH            LINE#              5870
	C:0E00H            LINE#              5873
	C:0E03H            LINE#              5875
	C:0E05H            LINE#              5876
	C:0E08H            LINE#              5877
	C:0E0BH            LINE#              5878
	C:0E0EH            LINE#              5879
	C:0E10H            LINE#              5880
	C:0E12H            LINE#              5881
	C:0E15H            LINE#              5882
	C:0E17H            LINE#              5883
	C:0E19H            LINE#              5885
	C:0E1BH            LINE#              5887
	C:0E1DH            LINE#              5888
	C:0E20H            LINE#              5889
	C:0E23H            LINE#              5893
	C:0E25H            LINE#              5894
	C:0E28H            LINE#              5895
	C:0E2BH            LINE#              5896
	C:0E2EH            LINE#              5897
	C:0E30H            LINE#              5898
	C:0E32H            LINE#              5899
	C:0E35H            LINE#              5900
	C:0E37H            LINE#              5901
	C:0E39H            LINE#              5903
	C:0E3BH            LINE#              5905
	C:0E3DH            LINE#              5906
	C:0E40H            LINE#              5907
	C:0E43H            LINE#              5911
	C:0E46H            LINE#              5913
	C:0E48H            LINE#              5914
	C:0E4BH            LINE#              5915
	C:0E4EH            LINE#              5916
	C:0E50H            LINE#              5917
	C:0E53H            LINE#              5918
	C:0E55H            LINE#              5920
	C:0E57H            LINE#              5921
	C:0E5AH            LINE#              5922
	C:0E5DH            LINE#              5926
	C:0E5FH            LINE#              5927
	C:0E62H            LINE#              5928
	C:0E65H            LINE#              5929
	C:0E67H            LINE#              5930
	C:0E6AH            LINE#              5931
	C:0E6CH            LINE#              5933
LX51 CODE BANKING LINKER/LOCATOR V06.16.13.326             01/01/16  17:30:09

	C:0E6EH            LINE#              5934
	C:0E71H            LINE#              5935
	C:0E74H            LINE#              5941
	C:0E77H            LINE#              5943
	C:0E79H            LINE#              5944
	C:0E7CH            LINE#              5945
	C:0E7EH            LINE#              5946
	C:0E80H            LINE#              5947
	C:0E82H            LINE#              5948
	C:0E85H            LINE#              5949
	C:0E88H            LINE#              5952
	C:0E8AH            LINE#              5953
	C:0E8DH            LINE#              5954
	C:0E8FH            LINE#              5955
	C:0E91H            LINE#              5956
	C:0E93H            LINE#              5957
	C:0E96H            LINE#              5958
	C:0E99H            LINE#              5964
	C:0E9CH            LINE#              5967
	C:0E9FH            LINE#              5969
	C:0EA1H            LINE#              5970
	C:0EA4H            LINE#              5971
	C:0EA7H            LINE#              5972
	C:0EAAH            LINE#              5973
	C:0EACH            LINE#              5974
	C:0EAEH            LINE#              5975
	C:0EB1H            LINE#              5976
	C:0EB3H            LINE#              5977
	C:0EB5H            LINE#              5979
	C:0EB7H            LINE#              5981
	C:0EB9H            LINE#              5982
	C:0EBCH            LINE#              5983
	C:0EBFH            LINE#              5987
	C:0EC1H            LINE#              5988
	C:0EC4H            LINE#              5989
	C:0EC7H            LINE#              5990
	C:0ECAH            LINE#              5991
	C:0ECCH            LINE#              5992
	C:0ECEH            LINE#              5993
	C:0ED1H            LINE#              5994
	C:0ED3H            LINE#              5995
	C:0ED5H            LINE#              5997
	C:0ED7H            LINE#              5999
	C:0ED9H            LINE#              6000
	C:0EDCH            LINE#              6001
	C:0EDFH            LINE#              6005
	C:0EE2H            LINE#              6007
	C:0EE4H            LINE#              6008
	C:0EE7H            LINE#              6009
	C:0EEAH            LINE#              6010
	C:0EECH            LINE#              6011
	C:0EEFH            LINE#              6012
	C:0EF1H            LINE#              6014
	C:0EF3H            LINE#              6015
	C:0EF6H            LINE#              6016
	C:0EF9H            LINE#              6020
	C:0EFBH            LINE#              6021
	C:0EFEH            LINE#              6022
	C:0F01H            LINE#              6023
	C:0F03H            LINE#              6024
	C:0F06H            LINE#              6025
	C:0F08H            LINE#              6026
	C:0F0AH            LINE#              6027
	C:0F0DH            LINE#              6028
	C:0F10H            LINE#              6034
	C:0F13H            LINE#              6036
	C:0F15H            LINE#              6037
	C:0F18H            LINE#              6038
LX51 CODE BANKING LINKER/LOCATOR V06.16.13.326             01/01/16  17:30:09

	C:0F1AH            LINE#              6039
	C:0F1CH            LINE#              6040
	C:0F1EH            LINE#              6041
	C:0F21H            LINE#              6042
	C:0F24H            LINE#              6045
	C:0F26H            LINE#              6046
	C:0F29H            LINE#              6047
	C:0F2BH            LINE#              6048
	C:0F2DH            LINE#              6049
	C:0F2FH            LINE#              6050
	C:0F32H            LINE#              6051
	C:0F35H            LINE#              6057
	C:0F38H            LINE#              6060
	C:0F3BH            LINE#              6062
	C:0F3DH            LINE#              6063
	C:0F40H            LINE#              6064
	C:0F43H            LINE#              6065
	C:0F46H            LINE#              6066
	C:0F48H            LINE#              6067
	C:0F4AH            LINE#              6068
	C:0F4DH            LINE#              6069
	C:0F4FH            LINE#              6070
	C:0F51H            LINE#              6072
	C:0F53H            LINE#              6074
	C:0F55H            LINE#              6075
	C:0F58H            LINE#              6076
	C:0F5BH            LINE#              6080
	C:0F5DH            LINE#              6081
	C:0F60H            LINE#              6082
	C:0F63H            LINE#              6083
	C:0F66H            LINE#              6084
	C:0F68H            LINE#              6085
	C:0F6AH            LINE#              6086
	C:0F6DH            LINE#              6087
	C:0F6FH            LINE#              6088
	C:0F71H            LINE#              6090
	C:0F73H            LINE#              6092
	C:0F75H            LINE#              6093
	C:0F78H            LINE#              6094
	C:0F7AH            LINE#              6098
	C:0F7DH            LINE#              6100
	C:0F7FH            LINE#              6101
	C:0F82H            LINE#              6102
	C:0F85H            LINE#              6103
	C:0F87H            LINE#              6104
	C:0F8AH            LINE#              6105
	C:0F8CH            LINE#              6107
	C:0F8EH            LINE#              6108
	C:0F91H            LINE#              6109
	C:0F93H            LINE#              6113
	C:0F95H            LINE#              6114
	C:0F98H            LINE#              6115
	C:0F9BH            LINE#              6116
	C:0F9DH            LINE#              6117
	C:0FA0H            LINE#              6118
	C:0FA2H            LINE#              6120
	C:0FA4H            LINE#              6121
	C:0FA7H            LINE#              6124
	C:0FA9H            LINE#              6125
	C:0FAAH            LINE#              6138
	C:0FADH            LINE#              6139
	C:0FB0H            LINE#              6140
	C:0FB6H            LINE#              6141
	C:0FBCH            LINE#              6142
	C:0FBEH            LINE#              6143
	C:0FBFH            LINE#              6299
	C:0FC1H            LINE#              6300
	C:0FC3H            LINE#              6301
LX51 CODE BANKING LINKER/LOCATOR V06.16.13.326             01/01/16  17:30:09

	C:0FC4H            LINE#              6302
	C:0FC6H            LINE#              6303
	C:0FC7H            LINE#              6304
	C:0FC9H            LINE#              6305
	C:0FCAH            LINE#              6306
	C:0FCCH            LINE#              6307
	C:0FCDH            LINE#              6308
	C:0FCFH            LINE#              6309
	C:0FD0H            LINE#              6310
	C:0FD2H            LINE#              6311
	C:0FD3H            LINE#              6312
	C:0FD5H            LINE#              6313
	C:0FD6H            LINE#              6314
	C:0FD8H            LINE#              6315
	C:0FD9H            LINE#              6316
	C:0FDBH            LINE#              6317
	C:0FDCH            LINE#              6318
	C:0FDEH            LINE#              6320
	C:0FE0H            LINE#              6321
	C:0FE2H            LINE#              6322
	C:0FE3H            LINE#              6323
	C:0FE5H            LINE#              6324
	C:0FE6H            LINE#              6325
	C:0FE8H            LINE#              6326
	C:0FE9H            LINE#              6327
	C:0FEBH            LINE#              6328
	C:0FECH            LINE#              6329
	C:0FEEH            LINE#              6330
	C:0FEFH            LINE#              6331
	C:0FF1H            LINE#              6332
	C:0FF2H            LINE#              6333
	C:0FF4H            LINE#              6334
	C:0FF5H            LINE#              6335
	C:0FF7H            LINE#              6336
	C:0FF8H            LINE#              6337
	C:0FFAH            LINE#              6338
	C:0FFBH            LINE#              6339
	C:0FFDH            LINE#              6340
	C:0FFEH            LINE#              6341
	C:1000H            LINE#              6342
	C:1001H            LINE#              6343
	C:1003H            LINE#              6344
	C:1004H            LINE#              6345
	C:1006H            LINE#              6346
	C:1007H            LINE#              6347
	C:1009H            LINE#              6348
	C:100AH            LINE#              6349
	C:100CH            LINE#              6350
	C:100DH            LINE#              6351
	C:100FH            LINE#              6352
	C:1010H            LINE#              6353
	C:1012H            LINE#              6354
	C:1013H            LINE#              6355
	C:1015H            LINE#              6356
	C:1016H            LINE#              6357
	C:1018H            LINE#              6358
	C:1019H            LINE#              6359
	C:101BH            LINE#              6360
	C:101CH            LINE#              6361
	C:101EH            LINE#              6362
	C:101FH            LINE#              6363
	C:1021H            LINE#              6364
	C:1022H            LINE#              6365
	C:1024H            LINE#              6366
	C:1025H            LINE#              6367
	C:1027H            LINE#              6369
	C:1028H            LINE#              6383
	C:102AH            LINE#              6384
LX51 CODE BANKING LINKER/LOCATOR V06.16.13.326             01/01/16  17:30:09

	C:102BH            LINE#              6385
	C:102CH            LINE#              6386
	C:102EH            LINE#              6388
	C:1031H            LINE#              6389
	C:1033H            LINE#              6392
	C:1035H            LINE#              6394
	C:1036H            LINE#              6395
	C:1037H            LINE#              6396
	C:1039H            LINE#              6397
	C:103BH            LINE#              6400
	C:103DH            LINE#              6401
	C:103EH            LINE#              6402
	C:1041H            LINE#              6403
	C:1043H            LINE#              6405
	C:1045H            LINE#              6406
	C:1047H            LINE#              6407
	C:1048H            LINE#              6408
	C:104BH            LINE#              6409
	C:104DH            LINE#              6410
	C:104EH            LINE#              6411
	C:104FH            LINE#              6412
	C:1051H            LINE#              6413
	C:1053H            LINE#              6415
	C:1056H            LINE#              6416
	C:1058H            LINE#              6417
	C:105BH            LINE#              6420
	C:105EH            LINE#              6421
	C:1060H            LINE#              6424
	C:1061H            LINE#              6438
	C:1063H            LINE#              6439
	C:1064H            LINE#              6440
	C:1065H            LINE#              6441
	C:1068H            LINE#              6442
	C:1069H            LINE#              6443
	C:106BH            LINE#              6444
	C:106CH            LINE#              6445
	C:106EH            LINE#              6446
	C:106FH            LINE#              6447
	C:1070H            LINE#              6448
	C:1073H            LINE#              6449
	C:1074H            LINE#              6450
	C:1076H            LINE#              6451
	C:1077H            LINE#              6453
	C:1079H            LINE#              6454
	C:107AH            LINE#              6455
	C:107BH            LINE#              6456
	C:107EH            LINE#              6457
	C:107FH            LINE#              6458
	C:1081H            LINE#              6459
	C:1082H            LINE#              6490
	C:1084H            LINE#              6491
	C:1085H            LINE#              6492
	C:1088H            LINE#              6493
	C:108BH            LINE#              6495
	C:108EH            LINE#              6497
	C:1091H            LINE#              6498
	C:1094H            LINE#              6501
	C:1097H            LINE#              6503
	C:109AH            LINE#              6504
	C:109DH            LINE#              6508
	C:109FH            LINE#              6509
	C:10A0H            LINE#              6510
	C:10A1H            LINE#              6511
	C:10A4H            LINE#              6512
	C:10A5H            LINE#              6513
	C:10A7H            LINE#              6514
	C:10AAH            LINE#              6515
	C:10ABH            LINE#              6554
LX51 CODE BANKING LINKER/LOCATOR V06.16.13.326             01/01/16  17:30:09

	C:10ACH            LINE#              6568
	C:10AEH            LINE#              6569
	C:10AFH            LINE#              6570
	C:10B0H            LINE#              6571
	C:10B2H            LINE#              6572
	C:10B3H            LINE#              6573
	C:10B4H            LINE#              6574
	C:10B6H            LINE#              6575
	C:10B7H            LINE#              6576
	C:10BAH            LINE#              6578
	C:10BBH            LINE#              6579
	C:10BCH            LINE#              6580
	C:10BEH            LINE#              6581
	C:10BFH            LINE#              6585
	C:10C2H            LINE#              6587
	C:10C4H            LINE#              6588
	C:10C6H            LINE#              6592
	C:10C7H            LINE#              6593
	C:10C8H            LINE#              6594
	C:10C9H            LINE#              6595
	C:10CAH            LINE#              6597
	C:10CBH            LINE#              6598
	C:10CDH            LINE#              6599
	C:10CFH            LINE#              6601
	C:10D1H            LINE#              6604
	C:10D4H            LINE#              6606
	C:10D6H            LINE#              6607
	C:10D7H            LINE#              6608
	C:10DAH            LINE#              6609
	C:10DBH            LINE#              6610
	C:10DCH            LINE#              6611
	C:10DEH            LINE#              6612
	C:10E0H            LINE#              6613
	C:10E2H            LINE#              6614
	C:10E3H            LINE#              6627
	C:10E5H            LINE#              6628
	C:10E7H            LINE#              6629
	C:10EAH            LINE#              6630
	C:10ECH            LINE#              6631
	C:10EEH            LINE#              6632
	C:10F0H            LINE#              6634
	C:10F3H            LINE#              6635
	C:10F5H            LINE#              6636
	C:10F6H            LINE#              6637
	C:10F7H            LINE#              6638
	C:10F9H            LINE#              6639
	C:10FAH            LINE#              6640
	C:10FBH            LINE#              6641
	C:10FDH            LINE#              6643
	C:10FFH            LINE#              6645
	C:1100H            LINE#              6646
	C:1101H            LINE#              6647
	C:1102H            LINE#              6648
	C:1103H            LINE#              6649
	C:1104H            LINE#              6650
	C:1105H            LINE#              6651
	C:1106H            LINE#              6652
	C:1108H            LINE#              6654
	C:1109H            LINE#              6655
	C:110BH            LINE#              6656
	C:110DH            LINE#              6657
	C:110EH            LINE#              6673
	C:1110H            LINE#              6674
	C:1113H            LINE#              6676
	C:1116H            LINE#              6678
	C:1118H            LINE#              6679
	C:111BH            LINE#              6680
	C:111DH            LINE#              6681
LX51 CODE BANKING LINKER/LOCATOR V06.16.13.326             01/01/16  17:30:09

	C:111EH            LINE#              6682
	C:1120H            LINE#              6684
	C:1123H            LINE#              6685
	C:1124H            LINE#              6686
	C:1126H            LINE#              6689
	C:1127H            LINE#              6690
	C:1128H            LINE#              6691
	C:112AH            LINE#              6694
	C:112DH            LINE#              6702
	C:1130H            LINE#              6709
	C:1133H            LINE#              6711
	C:1136H            LINE#              6712
	C:1139H            LINE#              6714
	C:113CH            LINE#              6720
	C:113FH            LINE#              6725
	C:1141H            LINE#              6726
	C:1143H            LINE#              6727
	C:1146H            LINE#              6729
	C:1148H            LINE#              6731
	C:114AH            LINE#              6735
	C:114DH            LINE#              6737
	C:1150H            LINE#              6739
	C:1153H            LINE#              6746
	C:1156H            LINE#              6748
	C:1159H            LINE#              6749
	C:115CH            LINE#              6750
	C:115FH            LINE#              6751
	C:1162H            LINE#              6752
	C:1165H            LINE#              6753
	C:1168H            LINE#              6754
	C:116BH            LINE#              6755
	C:116EH            LINE#              6759
	C:1171H            LINE#              6768
	C:117AH            LINE#              6770
	C:117BH            LINE#              6771
	C:117CH            LINE#              6773
	C:117DH            LINE#              6774
	C:117FH            LINE#              6776
	C:1182H            LINE#              6778
	C:1185H            LINE#              6780
	C:1188H            LINE#              6782
	C:118AH            LINE#              6783
	C:118CH            LINE#              6785
	C:118FH            LINE#              6787
	C:1191H            LINE#              6788
	C:1194H            LINE#              6789
	C:1197H            LINE#              6790
	C:119AH            LINE#              6791
	C:119DH            LINE#              6792
	C:11A0H            LINE#              6793
	C:11A3H            LINE#              6794
	C:11A6H            LINE#              6810
	C:11A8H            LINE#              6812
	C:11AAH            LINE#              6814
	C:11ACH            LINE#              6816
	C:11AFH            LINE#              6817
	C:11B1H            LINE#              6818
	C:11B3H            LINE#              6820
	C:11B6H            LINE#              6824
	C:11B8H            LINE#              6826
	C:11BAH            LINE#              6828
	C:11BCH            LINE#              6830
	C:11BEH            LINE#              6832
	C:11C0H            LINE#              6833
	C:11C2H            LINE#              6835
	C:11C5H            LINE#              6838
	C:11CEH            LINE#              6841
	C:11D1H            LINE#              6843
LX51 CODE BANKING LINKER/LOCATOR V06.16.13.326             01/01/16  17:30:09

	C:11D4H            LINE#              6845
	C:11D7H            LINE#              6847
	C:11DAH            LINE#              6849
	C:11DDH            LINE#              6851
	C:11E0H            LINE#              6852
	C:11E3H            LINE#              6853
	C:11E6H            LINE#              6855
	C:11E9H            LINE#              6856
	C:11ECH            LINE#              6862
	C:11FBH            LINE#              6863
	C:11FEH            LINE#              6864
	C:1200H            LINE#              6866
	C:1203H            LINE#              6868
	C:1212H            LINE#              6869
	C:1215H            LINE#              6870
	C:1217H            LINE#              6871
	C:1219H            LINE#              6872
	C:121CH            LINE#              6876
	C:121EH            LINE#              6877
	C:1220H            LINE#              6879
	C:1222H            LINE#              6882
	C:1224H            LINE#              6883
	C:1226H            LINE#              6885
	C:1228H            LINE#              6886
	C:122AH            LINE#              6887
	C:122DH            LINE#              6890
	C:1230H            LINE#              6891
	C:1233H            LINE#              6892
	C:1236H            LINE#              6894
	C:1238H            LINE#              6895
	C:123AH            LINE#              6896
	C:123BH            LINE#              6897
	C:123DH            LINE#              6898
	C:123FH            LINE#              6900
	C:1241H            LINE#              6901
	C:1243H            LINE#              6902
	C:1246H            LINE#              6903
	C:1248H            LINE#              6904
	C:124BH            LINE#              6906
	C:124DH            LINE#              6909
	C:124FH            LINE#              6911
	C:125EH            LINE#              6912
	C:1260H            LINE#              6913
	C:1262H            LINE#              6914
	C:1264H            LINE#              6915
	C:1265H            LINE#              6916
	C:1267H            LINE#              6918
	C:1269H            LINE#              6919
	C:126BH            LINE#              6920
	C:126DH            LINE#              6921
	C:126FH            LINE#              6925
	C:1271H            LINE#              6926
	C:1274H            LINE#              6927
	C:1277H            LINE#              6928
	C:127AH            LINE#              6930
	C:127BH            LINE#              6931
	C:127DH            LINE#              6932
	C:127FH            LINE#              6933
	C:1281H            LINE#              6935
	C:1283H            LINE#              6939
	C:1286H            LINE#              6940
	C:1288H            LINE#              6941
	C:128BH            LINE#              6943
	C:128DH            LINE#              6945
	C:128EH            LINE#              6946
	C:1290H            LINE#              6947
	C:1291H            LINE#              6948
	C:1293H            LINE#              6951
LX51 CODE BANKING LINKER/LOCATOR V06.16.13.326             01/01/16  17:30:09

	C:1295H            LINE#              6952
	C:1298H            LINE#              6953
	C:129BH            LINE#              6954
	C:129EH            LINE#              6955
	C:12A0H            LINE#              6956
	C:12A3H            LINE#              6959
	C:12A6H            LINE#              6962
	C:12A8H            LINE#              6963
	C:12A9H            LINE#              6964
	C:12ACH            LINE#              6966
	C:12AEH            LINE#              6969
	C:12B1H            LINE#              6970
	C:12B3H            LINE#              6971
	C:12B4H            LINE#              6972
	C:12B5H            LINE#              6973
	C:12B7H            LINE#              6974
	C:12B9H            LINE#              6976
	C:12BCH            LINE#              6979
	C:12BEH            LINE#              6980
	C:12BFH            LINE#              6981
	C:12C1H            LINE#              6982
	C:12C3H            LINE#              6984
	C:12C6H            LINE#              6987
	C:12C9H            LINE#              6990
	C:12CAH            LINE#              6991
	C:12CCH            LINE#              6992
	C:12CEH            LINE#              6993
	C:12D0H            LINE#              6995
	C:12D3H            LINE#              6998
	C:12D5H            LINE#              6999
	C:12D8H            LINE#              7000
	C:12DAH            LINE#              7001
	C:12DDH            LINE#              7002
	C:12DEH            LINE#              7003
	C:12E0H            LINE#              7004
	C:12E2H            LINE#              7005
	C:12E4H            LINE#              7008
	C:12E6H            LINE#              7009
	C:12E9H            LINE#              7010
	C:12ECH            LINE#              7011
	C:12EFH            LINE#              7012
	C:12F1H            LINE#              7013
	C:12F4H            LINE#              7014
	C:12F5H            LINE#              7015
	C:12F7H            LINE#              7016
	C:12F9H            LINE#              7017
	C:12FBH            LINE#              7019
	C:12FEH            LINE#              7026
	C:1300H            LINE#              7029
	C:1302H            LINE#              7030
	C:1304H            LINE#              7031
	C:1307H            LINE#              7032
	C:1309H            LINE#              7033
	C:130BH            LINE#              7034
	C:130DH            LINE#              7035
	C:130FH            LINE#              7036
	C:1310H            LINE#              7037
	C:1312H            LINE#              7038
	C:1314H            LINE#              7039
	C:1316H            LINE#              7040
	C:1318H            LINE#              7042
	C:131BH            LINE#              7043
	C:131DH            LINE#              7044
	C:1320H            LINE#              7045
	C:1322H            LINE#              7046
	C:1324H            LINE#              7048
	C:1326H            LINE#              7049
	C:1327H            LINE#              7050
LX51 CODE BANKING LINKER/LOCATOR V06.16.13.326             01/01/16  17:30:09

	C:1328H            LINE#              7051
	C:132AH            LINE#              7052
	C:132CH            LINE#              7053
	C:132DH            LINE#              7054
	C:1330H            LINE#              7055
	C:1333H            LINE#              7056
	C:1336H            LINE#              7059
	C:1338H            LINE#              7061
	C:133AH            LINE#              7062
	C:133CH            LINE#              7063
	C:133FH            LINE#              7064
	C:1341H            LINE#              7065
	C:1343H            LINE#              7066
	C:1345H            LINE#              7067
	C:1347H            LINE#              7068
	C:1348H            LINE#              7069
	C:134AH            LINE#              7070
	C:134CH            LINE#              7071
	C:134EH            LINE#              7072
	C:1350H            LINE#              7074
	C:1353H            LINE#              7075
	C:1355H            LINE#              7076
	C:1358H            LINE#              7077
	C:135BH            LINE#              7078
	C:135EH            LINE#              7079
	C:1360H            LINE#              7080
	C:1362H            LINE#              7082
	C:1364H            LINE#              7083
	C:1365H            LINE#              7084
	C:1367H            LINE#              7085
	C:1369H            LINE#              7086
	C:136AH            LINE#              7087
	C:136DH            LINE#              7088
	C:1370H            LINE#              7089
	C:1373H            LINE#              7092
	C:1376H            LINE#              7093
	C:1378H            LINE#              7094
	C:1379H            LINE#              7095
	C:137BH            LINE#              7096
	C:137DH            LINE#              7097
	C:137FH            LINE#              7099
	C:1382H            LINE#              7102
	C:1383H            LINE#              7103
	C:1385H            LINE#              7104
	C:1387H            LINE#              7105
	C:1389H            LINE#              7107
	C:138CH            LINE#              7110
	C:138FH            LINE#              7111
	C:1391H            LINE#              7112
	C:1393H            LINE#              7113
	C:1394H            LINE#              7114
	C:1397H            LINE#              7116
	C:1399H            LINE#              7118
	C:139AH            LINE#              7119
	C:139CH            LINE#              7120
	C:139DH            LINE#              7121
	C:139FH            LINE#              7123
	C:13A1H            LINE#              7127
	C:13A3H            LINE#              7128
	C:13A6H            LINE#              7129
	C:13A9H            LINE#              7130
	C:13ACH            LINE#              7131
	C:13AEH            LINE#              7132
	C:13B1H            LINE#              7135
	C:13B4H            LINE#              7139
	C:13B5H            LINE#              7140
	C:13B7H            LINE#              7141
	C:13B9H            LINE#              7143
LX51 CODE BANKING LINKER/LOCATOR V06.16.13.326             01/01/16  17:30:09

	C:13BBH            LINE#              7144
	C:13BDH            LINE#              7145
	C:13BEH            LINE#              7146
	C:13C0H            LINE#              7148
	C:13C2H            LINE#              7149
	C:13C4H            LINE#              7150
	C:13C5H            LINE#              7151
	C:13C7H            LINE#              7152
	C:13C8H            LINE#              7153
	C:13CAH            LINE#              7155
	C:13CCH            LINE#              7156
	C:13CDH            LINE#              7157
	C:13CFH            LINE#              7159
	C:13D1H            LINE#              7160
	C:13D2H            LINE#              7161
	C:13D4H            LINE#              7163
	C:13D6H            LINE#              7164
	C:13D7H            LINE#              7165
	C:13D9H            LINE#              7167
	C:13DCH            LINE#              7170
	C:13DDH            LINE#              7171
	C:13DFH            LINE#              7172
	C:13E0H            LINE#              7173
	C:13E2H            LINE#              7175
	C:13E4H            LINE#              7176
	C:13E7H            LINE#              7177
	C:13E9H            LINE#              7178
	C:13EBH            LINE#              7179
	C:13EDH            LINE#              7180
	C:13F0H            LINE#              7181
	C:13F2H            LINE#              7182
	C:13F4H            LINE#              7183
	C:13F6H            LINE#              7184
	C:13F9H            LINE#              7187
	C:13FCH            LINE#              7188
	C:13FEH            LINE#              7189
	C:1400H            LINE#              7191
	C:1403H            LINE#              7193
	C:1405H            LINE#              7196
	C:1407H            LINE#              7197
	C:140AH            LINE#              7199
	C:140CH            LINE#              7201
	C:140DH            LINE#              7202
	C:140FH            LINE#              7203
	C:1410H            LINE#              7204
	C:1412H            LINE#              7207
	C:1414H            LINE#              7208
	C:1415H            LINE#              7209
	C:1416H            LINE#              7210
	C:1418H            LINE#              7211
	C:141AH            LINE#              7214
	C:141DH            LINE#              7217
	C:141FH            LINE#              7218
	C:1421H            LINE#              7220
	C:1424H            LINE#              7229
	C:1426H            LINE#              7230
	C:1429H            LINE#              7231
	C:142AH            LINE#              7232
	C:142CH            LINE#              7233
	C:142EH            LINE#              7234
	C:1430H            LINE#              7235
	C:1432H            LINE#              7236
	C:1434H            LINE#              7237
	C:1436H            LINE#              7238
	C:1438H            LINE#              7239
	C:143AH            LINE#              7240
	C:143BH            LINE#              7241
	C:143CH            LINE#              7242
LX51 CODE BANKING LINKER/LOCATOR V06.16.13.326             01/01/16  17:30:09

	C:143DH            LINE#              7243
	C:143FH            LINE#              7244
	C:1440H            LINE#              7245
	C:1442H            LINE#              7246
	C:1444H            LINE#              7247
	C:1446H            LINE#              7248
	C:1448H            LINE#              7249
	C:144AH            LINE#              7250
	C:144CH            LINE#              7251
	C:144EH            LINE#              7252
	C:1450H            LINE#              7253
	C:1452H            LINE#              7257
	C:1455H            LINE#              7258
	C:1458H            LINE#              7259
	C:145BH            LINE#              7260
	C:145EH            LINE#              7262
	C:1460H            LINE#              7263
	C:1463H            LINE#              7264
	C:1467H            LINE#              7265
	C:1468H            LINE#              7266
	C:146AH            LINE#              7268
	C:146BH            LINE#              7270
	C:146DH            LINE#              7271
	C:1470H            LINE#              7272
	C:1473H            LINE#              7273
	C:1476H            LINE#              7275
	C:1478H            LINE#              7276
	C:1479H            LINE#              7277
	C:147AH            LINE#              7278
	C:147CH            LINE#              7279
	C:147EH            LINE#              7280
	C:1480H            LINE#              7281
	C:1481H            LINE#              7282
	C:1482H            LINE#              7284
	C:1484H            LINE#              7285
	C:1487H            LINE#              7286
	C:148AH            LINE#              7287
	C:148DH            LINE#              7288
	C:1490H            LINE#              7289
	C:1493H            LINE#              7290
	C:1495H            LINE#              7291
	C:1498H            LINE#              7292
	C:149BH            LINE#              7293
	C:149EH            LINE#              7294
	C:14A1H            LINE#              7295
	C:14A4H            LINE#              7296
	C:14A7H            LINE#              7299
	C:14B0H            LINE#              7301
	C:14B2H            LINE#              7302
	C:14B3H            LINE#              7303
	C:14B6H            LINE#              7305
	C:14B8H            LINE#              7306
	C:14BBH            LINE#              7307
	C:14BDH            LINE#              7310
	C:14BFH            LINE#              7311
	C:14C1H            LINE#              7312
	C:14C4H            LINE#              7313
	C:14C7H            LINE#              7314
	C:14CAH            LINE#              7315
	C:14CDH            LINE#              7316
	C:14D0H            LINE#              7317
	C:14D3H            LINE#              7318
	C:14D6H            LINE#              7319
	C:14D9H            LINE#              7320
	C:14DCH            LINE#              7321
	C:14DFH            LINE#              7322
	C:14E2H            LINE#              7333
	C:14E4H            LINE#              7334
LX51 CODE BANKING LINKER/LOCATOR V06.16.13.326             01/01/16  17:30:09

	C:14E6H            LINE#              7335
	C:14E8H            LINE#              7336
	C:14EBH            LINE#              7337
	C:14EEH            LINE#              7342
	C:14F1H            LINE#              7343
	C:14F4H            LINE#              7344
	C:14F7H            LINE#              7345
	C:14FAH            LINE#              7346
	C:14FDH            LINE#              7347
	C:1500H            LINE#              7348
	C:1503H            LINE#              7349
	C:1506H            LINE#              7350
	C:1509H            LINE#              7351
	C:150CH            LINE#              7356
	C:150FH            LINE#              7357
	C:1512H            LINE#              7358
	C:1515H            LINE#              7359
	C:1518H            LINE#              7360
	C:151BH            LINE#              7361
	C:151EH            LINE#              7362
	C:1521H            LINE#              7363
	C:1524H            LINE#              7364
	C:1527H            LINE#              7365
	C:152AH            LINE#              7366
	C:152DH            LINE#              7367
	C:1530H            LINE#              7368
	C:1533H            LINE#              7369
	C:1536H            LINE#              7370
	C:1539H            LINE#              7375
	C:153CH            LINE#              7376
	C:153FH            LINE#              7377
	C:1542H            LINE#              7378
	C:1545H            LINE#              7379
	C:1548H            LINE#              7380
	C:154BH            LINE#              7381
	C:154EH            LINE#              7382
	C:1551H            LINE#              7383
	C:1554H            LINE#              7384
	C:1557H            LINE#              7385
	C:155AH            LINE#              7390
	C:155DH            LINE#              7391
	C:1560H            LINE#              7392
	C:1563H            LINE#              7393
	C:1566H            LINE#              7394
	C:1569H            LINE#              7395
	C:156CH            LINE#              7396
	C:156FH            LINE#              7397
	C:1572H            LINE#              7398
	C:1575H            LINE#              7399
	C:1578H            LINE#              7400
	C:157BH            LINE#              7405
	C:157EH            LINE#              7406
	C:1581H            LINE#              7407
	C:1584H            LINE#              7408
	C:1587H            LINE#              7409
	C:158AH            LINE#              7410
	C:158DH            LINE#              7411
	C:1590H            LINE#              7412
	C:1593H            LINE#              7413
	C:1596H            LINE#              7414
	C:1599H            LINE#              7415
	C:159CH            LINE#              7420
	C:159FH            LINE#              7421
	C:15A2H            LINE#              7422
	C:15A5H            LINE#              7423
	C:15A8H            LINE#              7424
	C:15ABH            LINE#              7425
	C:15AEH            LINE#              7426
LX51 CODE BANKING LINKER/LOCATOR V06.16.13.326             01/01/16  17:30:09

	C:15B1H            LINE#              7427
	C:15B4H            LINE#              7428
	C:15B7H            LINE#              7429
	C:15BAH            LINE#              7430
	C:15BDH            LINE#              7433
	C:15C0H            LINE#              7434
	C:15C3H            LINE#              7437
	C:15C6H            LINE#              7438
	C:15C9H            LINE#              7439
	C:15CCH            LINE#              7440
	C:15CFH            LINE#              7442
	C:15D1H            LINE#              7443
	C:15D3H            LINE#              7444
	C:15D4H            LINE#              7445
	C:15D6H            LINE#              7446
	C:15D7H            LINE#              7447
	C:15D9H            LINE#              7449
	C:15DBH            LINE#              7450
	C:15DDH            LINE#              7451
	C:15DFH            LINE#              7456
	C:15E2H            LINE#              7457
	C:15E5H            LINE#              7459
	C:15E8H            LINE#              7462
	C:15E9H            LINE#              7463
	C:15EBH            LINE#              7464
	C:15EDH            LINE#              7465
	C:15EFH            LINE#              7467
	C:15F2H            LINE#              7469
	C:15F5H            LINE#              7474
	C:15F8H            LINE#              7475
	C:15FBH            LINE#              7478
	C:15FDH            LINE#              7479
	C:15FEH            LINE#              7481
	C:1600H            LINE#              7483
	C:1602H            LINE#              7484
	C:1604H            LINE#              7487
	C:1606H            LINE#              7489
	C:1607H            LINE#              7490
	C:1609H            LINE#              7491
	C:160BH            LINE#              7492
	C:160DH            LINE#              7494
	C:1610H            LINE#              7496
	C:1613H            LINE#              7513
	C:1614H            LINE#              7514
	C:1616H            LINE#              7515
	C:1618H            LINE#              7516
	C:1619H            LINE#              7517
	C:161BH            LINE#              7519
	C:161EH            LINE#              7521
	C:1620H            LINE#              7522
	C:1622H            LINE#              7526
	C:1624H            LINE#              7527
	C:1625H            LINE#              7528
	C:1628H            LINE#              7530
	C:162BH            LINE#              7531
	C:162EH            LINE#              7532
	C:1630H            LINE#              7535
	C:1633H            LINE#              7536
	C:1635H            LINE#              7539
	C:1638H            LINE#              7541
	C:163AH            LINE#              7542
	C:163DH            LINE#              7543
	C:163FH            LINE#              7547
	C:1641H            LINE#              7548
	C:1644H            LINE#              7550
	C:1647H            LINE#              7551
	C:1649H            LINE#              7554
	C:164AH            LINE#              7555
LX51 CODE BANKING LINKER/LOCATOR V06.16.13.326             01/01/16  17:30:09

	C:164CH            LINE#              7556
	C:164DH            LINE#              7557
	C:164FH            LINE#              7558
	C:1651H            LINE#              7561
	C:1654H            LINE#              7563
	C:1656H            LINE#              7564
	C:1658H            LINE#              7565
	C:165BH            LINE#              7566
	C:165DH            LINE#              7567
	C:165FH            LINE#              7568
	C:1662H            LINE#              7569
	C:1665H            LINE#              7570
	C:1667H            LINE#              7574
	C:1669H            LINE#              7575
	C:166BH            LINE#              7576
	C:166DH            LINE#              7577
	C:166FH            LINE#              7580
	C:1672H            LINE#              7583
	C:1674H            LINE#              7584
	C:1677H            LINE#              7585
	C:1679H            LINE#              7586
	C:167AH            LINE#              7587
	C:167BH            LINE#              7588
	C:167DH            LINE#              7589
	C:167FH            LINE#              7590
	C:1681H            LINE#              7591
	C:1682H            LINE#              7592
	C:1683H            LINE#              7593
	C:1684H            LINE#              7594
	C:1686H            LINE#              7595
	C:1688H            LINE#              7596
	C:168AH            LINE#              7597
	C:168CH            LINE#              7598
	C:168EH            LINE#              7599
	C:1690H            LINE#              7600
	C:1692H            LINE#              7602
	C:169BH            LINE#              7604
	C:169DH            LINE#              7605
	C:16A0H            LINE#              7606
	C:16A3H            LINE#              7628
	C:16A6H            LINE#              7630
	C:16A7H            LINE#              7631
	C:16A9H            LINE#              7632
	C:16ABH            LINE#              7633
	C:16ADH            LINE#              7634
	C:16AFH            LINE#              7637
	C:16B1H            LINE#              42
	C:16B4H            LINE#              43
	C:16B6H            LINE#              44
	C:16B9H            LINE#              45
	C:16BBH            LINE#              53
	C:16BEH            LINE#              55
	C:16BFH            LINE#              56
	C:16C2H            LINE#              57
	C:16C4H            LINE#              65
	C:16C7H            LINE#              67
	C:16CAH            LINE#              71
	C:16CDH            LINE#              72
	C:16D0H            LINE#              73
	C:16D3H            LINE#              78
	C:16D6H            LINE#              83
	C:16D8H            LINE#              84
	C:16DAH            LINE#              86
	C:16DDH            LINE#              87
	C:16DEH            LINE#              88
	C:16DFH            LINE#              89
	C:16E1H            LINE#              91
	C:16E4H            LINE#              92
LX51 CODE BANKING LINKER/LOCATOR V06.16.13.326             01/01/16  17:30:09

	C:16E6H            LINE#              93
	C:16E8H            LINE#              95
	C:16EBH            LINE#              96
	C:16ECH            LINE#              97
	C:16EDH            LINE#              98
	C:16EFH            LINE#              100
	C:16F2H            LINE#              103
	C:16F3H            LINE#              114
	C:16F5H            LINE#              115
	C:16F8H            LINE#              116
	C:16FBH            LINE#              118
	C:16FEH            LINE#              119
	C:1700H            LINE#              120
	C:1703H            LINE#              122
	C:1704H            LINE#              123
	C:1706H            LINE#              124
	C:1709H            LINE#              126
	C:170AH            LINE#              127
	C:170CH            LINE#              128
	C:170FH            LINE#              132
	C:1712H            LINE#              137
	C:1714H            LINE#              138
	C:1716H            LINE#              140
	C:1719H            LINE#              141
	C:171AH            LINE#              142
	C:171BH            LINE#              143
	C:171DH            LINE#              145
	C:1720H            LINE#              146
	C:1722H            LINE#              147
	C:1724H            LINE#              149
	C:1727H            LINE#              150
	C:1728H            LINE#              151
	C:1729H            LINE#              152
	C:172BH            LINE#              154
	C:172EH            LINE#              155
	C:1731H            LINE#              156
	C:1734H            LINE#              157
	C:1735H            LINE#              170
	C:1736H            LINE#              171
	C:1737H            LINE#              172
	C:1738H            LINE#              173
	C:1739H            LINE#              185
	C:173AH            LINE#              187
	C:173DH            LINE#              188
	C:1740H            LINE#              189
	C:1743H            LINE#              190
	C:1746H            LINE#              191
	C:1749H            LINE#              192
	C:174AH            LINE#              193
	C:174DH            LINE#              194
	C:174EH            LINE#              205
	C:1751H            LINE#              206
	C:1754H            LINE#              207
	C:1757H            LINE#              208
	C:175AH            LINE#              209
	C:175DH            LINE#              210
	C:1760H            LINE#              211
	C:1761H            LINE#              212
	C:1764H            LINE#              213
	C:1765H            LINE#              243
	C:1768H            LINE#              244
	C:176AH            LINE#              245
	C:176CH            LINE#              247
	C:176FH            LINE#              248
	C:1771H            LINE#              249
	C:1773H            LINE#              251
	C:1774H            LINE#              262
	C:1776H            LINE#              263
LX51 CODE BANKING LINKER/LOCATOR V06.16.13.326             01/01/16  17:30:09

	C:1778H            LINE#              264
	C:177AH            LINE#              265
	C:177DH            LINE#              267
	C:177FH            LINE#              268
	C:1781H            LINE#              269
	C:1782H            LINE#              270
	C:1783H            LINE#              271
	C:1784H            LINE#              272
	C:1786H            LINE#              273
	C:1787H            LINE#              284
	C:1789H            LINE#              285
	C:178BH            LINE#              286
	C:178EH            LINE#              288
	C:178FH            LINE#              289
	C:1791H            LINE#              290
	C:1792H            LINE#              291
	C:1793H            LINE#              292
	C:1795H            LINE#              293
	C:1796H            LINE#              304
	C:1798H            LINE#              305
	C:179AH            LINE#              390
	C:179DH            LINE#              391
	C:179FH            LINE#              394
	C:17A2H            LINE#              395
	C:17A4H            LINE#              398
	C:17A7H            LINE#              399
	C:17A9H            LINE#              402
	C:17ACH            LINE#              403
	C:17AEH            LINE#              406
	C:17B1H            LINE#              407
	C:17B3H            LINE#              410
	C:17B6H            LINE#              411
	C:17B8H            LINE#              414
	C:17BBH            LINE#              415
	C:17BDH            LINE#              418
	C:17C0H            LINE#              419
	C:17C2H            LINE#              422
	C:17C5H            LINE#              423
	C:17C7H            LINE#              426
	C:17CAH            LINE#              427
	C:17CCH            LINE#              430
	C:17CFH            LINE#              431
	C:17D1H            LINE#              435
	C:17D2H            LINE#              436
	C:17D3H            LINE#              437
	C:17D4H            LINE#              448
	C:17D6H            LINE#              450
	C:17D9H            LINE#              451
	C:17DBH            LINE#              452
	C:17DCH            LINE#              463
	C:17DEH            LINE#              464
	C:17E1H            LINE#              465
	C:17E4H            LINE#              466
	C:17E7H            LINE#              467
	C:17EAH            LINE#              468
	C:17EDH            LINE#              469
	C:17F0H            LINE#              470
	C:17F3H            LINE#              471
	C:17F6H            LINE#              472
	C:17F9H            LINE#              473
	C:17FCH            LINE#              474
	C:17FFH            LINE#              475
	C:1802H            LINE#              476
	C:1805H            LINE#              477
	C:1808H            LINE#              478
	C:180AH            LINE#              479
	C:180BH            LINE#              490
	C:180DH            LINE#              491
LX51 CODE BANKING LINKER/LOCATOR V06.16.13.326             01/01/16  17:30:09

	C:1810H            LINE#              492
	C:1813H            LINE#              493
	C:1816H            LINE#              494
	C:1819H            LINE#              495
	C:181CH            LINE#              496
	C:181FH            LINE#              497
	C:1822H            LINE#              498
	C:1825H            LINE#              499
	C:1828H            LINE#              500
	C:182BH            LINE#              501
	C:182EH            LINE#              502
	C:1831H            LINE#              503
	C:1834H            LINE#              504
	C:1837H            LINE#              505
	C:1839H            LINE#              506
	C:183AH            LINE#              517
	C:183CH            LINE#              518
	C:183EH            LINE#              519
	C:1840H            LINE#              521
	C:1843H            LINE#              522
	C:1846H            LINE#              523
	C:1849H            LINE#              524
	C:184CH            LINE#              525
	C:184EH            LINE#              527
	C:1851H            LINE#              528
	C:1854H            LINE#              529
	C:1856H            LINE#              530
	C:1858H            LINE#              531
	C:1859H            LINE#              543
	C:185CH            LINE#              544
	C:185FH            LINE#              545
	C:1862H            LINE#              548
	C:1865H            LINE#              550
	C:1868H            LINE#              552
	C:186BH            LINE#              554
	C:186DH            LINE#              555
	C:186FH            LINE#              557
	C:1871H            LINE#              558
	C:1874H            LINE#              559
	C:1875H            LINE#              560
	C:1876H            LINE#              561
	C:1878H            LINE#              562
	C:187AH            LINE#              563
	C:187BH            LINE#              564
	C:187DH            LINE#              565
	C:187FH            LINE#              566
	C:1881H            LINE#              568
	C:1882H            LINE#              569
	C:1884H            LINE#              570
	C:1886H            LINE#              571
	C:1888H            LINE#              573
	C:188BH            LINE#              576
	C:188EH            LINE#              577
	C:1891H            LINE#              578
	C:1894H            LINE#              579
	C:1896H            LINE#              581
	C:1899H            LINE#              585
	C:189CH            LINE#              588
	C:189EH            LINE#              589
	C:18A0H            LINE#              590
	C:18A1H            LINE#              591
	C:18A3H            LINE#              592
	C:18A5H            LINE#              593
	C:18A7H            LINE#              595
	C:18A9H            LINE#              598
	C:18ACH            LINE#              599
	C:18AEH            LINE#              615
	C:18B0H            LINE#              616
LX51 CODE BANKING LINKER/LOCATOR V06.16.13.326             01/01/16  17:30:09

	C:18B1H            LINE#              617
	C:18B4H            LINE#              618
	C:18B5H            LINE#              619
	C:18B6H            LINE#              621
	C:18B7H            LINE#              622
	C:18B8H            LINE#              623
	C:18BAH            LINE#              624
	C:18BBH            LINE#              625
	C:18BDH            LINE#              626
	C:18BFH            LINE#              629
	C:18C2H            LINE#              630
	C:18C5H            LINE#              631
	C:18C7H            LINE#              643
	C:18C8H            LINE#              644
	C:18CAH            LINE#              645
	C:18CCH            LINE#              647
	C:18CEH            LINE#              648
	C:18D0H            LINE#              651
	C:18D3H            LINE#              652
	C:18D6H            LINE#              653
	C:18D8H            LINE#              655
	C:18DBH            LINE#              659
	C:1C00H            LINE#              43
	C:1C02H            LINE#              45
	C:1C04H            LINE#              48
	C:1C07H            LINE#              55
	C:1C0AH            LINE#              58
	C:1C0DH            LINE#              64
	C:1C10H            LINE#              65
	C:1C13H            LINE#              66
	C:1C16H            LINE#              67
	C:1C18H            LINE#              68
	C:1C1BH            LINE#              71
	C:1C1EH            LINE#              76
	C:1C21H            LINE#              77
	C:1C24H            LINE#              78
	C:1C27H            LINE#              79
	C:1C29H            LINE#              81
	C:1C2BH            LINE#              84
	C:1C2DH            LINE#              85
	C:1C2FH            LINE#              86
	C:1C31H            LINE#              87
	C:1C34H            LINE#              88
	C:1C37H            LINE#              89
	C:1C3AH            LINE#              90
	C:1C3CH            LINE#              91
	C:1C3FH            LINE#              92
	C:1C42H            LINE#              95
	C:1C45H            LINE#              96
	C:1C47H            LINE#              99
	C:1C4AH            LINE#              100
	C:1C4CH            LINE#              101
	C:1C4EH            LINE#              102
	C:1C50H            LINE#              104
	C:1C52H            LINE#              106
	C:1C55H            LINE#              107
	C:1C57H            LINE#              108
	C:1C59H            LINE#              109
	C:1C5BH            LINE#              111
	C:1C5DH            LINE#              113
	C:1C5FH            LINE#              114
	C:1C60H            LINE#              115
	C:1C61H            LINE#              116
	C:1C62H            LINE#              117
	C:1C63H            LINE#              118
	C:1C64H            LINE#              119
	C:1C66H            LINE#              120
	C:1C68H            LINE#              121
LX51 CODE BANKING LINKER/LOCATOR V06.16.13.326             01/01/16  17:30:09

	C:1C6AH            LINE#              124
	C:1C6CH            LINE#              126
	C:1C6EH            LINE#              127
	C:1C70H            LINE#              128
	C:1C72H            LINE#              131
	C:1C74H            LINE#              132
	C:1C75H            LINE#              133
	C:1C76H            LINE#              134
	C:1C77H            LINE#              135
	C:1C78H            LINE#              136
	C:1C7AH            LINE#              137
	C:1C7CH            LINE#              144
	C:1C7EH            LINE#              145
	C:1C80H            LINE#              146
	C:1C83H            LINE#              147
	C:1C86H            LINE#              148
	C:1C88H            LINE#              149
	C:1C89H            LINE#              150
	C:1C8AH            LINE#              151
	C:1C8BH            LINE#              152
	C:1C8CH            LINE#              153
	C:1C8DH            LINE#              154
	C:1C8EH            LINE#              155
	C:1C90H            LINE#              156
	C:1C92H            LINE#              158
	C:1C94H            LINE#              159
	C:1C96H            LINE#              160
	C:1C98H            LINE#              161
	C:1C99H            LINE#              162
	C:1C9CH            LINE#              164
	C:1C9EH            LINE#              165
	C:1CA0H            LINE#              167
	C:1CA2H            LINE#              168
	C:1CA4H            LINE#              169
	C:1CA6H            LINE#              170
	C:1CA7H            LINE#              171
	C:1CA8H            LINE#              172
	C:1CAAH            LINE#              173
	C:1CACH            LINE#              174
	C:1CAEH            LINE#              176
	C:1CB1H            LINE#              179
	C:1CB2H            LINE#              180
	C:1CB4H            LINE#              181
	C:1CB7H            LINE#              182
	C:1CBAH            LINE#              183
	C:1CBDH            LINE#              184
	C:1CBFH            LINE#              187
	C:1CC1H            LINE#              188
	C:1CC3H            LINE#              189
	C:1CC4H            LINE#              190
	C:1CC5H            LINE#              191
	C:1CC7H            LINE#              192
	C:1CC9H            LINE#              193
	C:1CCBH            LINE#              195
	C:1CCDH            LINE#              196
	C:1CCEH            LINE#              198
	C:1CD0H            LINE#              200
	C:1CD1H            LINE#              201
	C:1CD3H            LINE#              203
	C:1CD4H            LINE#              204
	C:1CD6H            LINE#              206
	C:1CD7H            LINE#              207
	C:1CD8H            LINE#              208
	C:1CDAH            LINE#              209
	C:1CDCH            LINE#              212
	C:1CDDH            LINE#              213
	C:1CDFH            LINE#              214
	C:1CE1H            LINE#              215
LX51 CODE BANKING LINKER/LOCATOR V06.16.13.326             01/01/16  17:30:09

	C:1CE3H            LINE#              216
	C:1CE4H            LINE#              217
	C:1CE6H            LINE#              218
	C:1CE8H            LINE#              219
	C:1CEAH            LINE#              220
	C:1CECH            LINE#              221
	C:1CEEH            LINE#              222
	C:1CF1H            LINE#              225
	C:1CF4H            LINE#              226
	C:1CF7H            LINE#              227
	C:1CFAH            LINE#              228
	C:1CFDH            LINE#              229
	C:1CFEH            LINE#              230
	C:1D01H            LINE#              233
	C:1D03H            LINE#              234
	C:1D05H            LINE#              235
	C:1D06H            LINE#              236
	C:1D07H            LINE#              237
	C:1D0AH            LINE#              238
	C:1D0DH            LINE#              239
	C:1D0FH            LINE#              240
	C:1D11H            LINE#              241
	C:1D13H            LINE#              245
	C:1D15H            LINE#              247
	C:1D16H            LINE#              248
	C:1D19H            LINE#              249
	C:1D1CH            LINE#              250
	C:1D1DH            LINE#              251
	C:1D1EH            LINE#              252
	C:1D20H            LINE#              254
	C:1D23H            LINE#              255
	C:1D25H            LINE#              258
	C:1D27H            LINE#              259
	C:1D2AH            LINE#              261
	C:1D2BH            LINE#              262
	C:1D2CH            LINE#              263
	C:1D2DH            LINE#              264
	C:1D2EH            LINE#              265
	C:1D30H            LINE#              266
	C:1D32H            LINE#              268
	C:1D34H            LINE#              269
	C:1D36H            LINE#              271
	C:1D38H            LINE#              277
	C:1D3AH            LINE#              278
	C:1D3CH            LINE#              279
	C:1D3EH            LINE#              280
	C:1D3FH            LINE#              281
	C:1D40H            LINE#              282
	C:1D41H            LINE#              283
	C:1D43H            LINE#              284
	C:1D46H            LINE#              285
	C:1D47H            LINE#              286
	C:1D49H            LINE#              287
	C:1D4AH            LINE#              288
	C:1D4CH            LINE#              289
	C:1D4EH            LINE#              290
	C:1D4FH            LINE#              291
	C:1D51H            LINE#              292
	C:1D53H            LINE#              294
	C:1D56H            LINE#              295
	C:1D59H            LINE#              297
	C:1D5CH            LINE#              301
	C:1D5EH            LINE#              302
	C:1D60H            LINE#              303
	C:1D63H            LINE#              304
	C:1D64H            LINE#              305
	C:1D65H            LINE#              306
	C:1D68H            LINE#              307
LX51 CODE BANKING LINKER/LOCATOR V06.16.13.326             01/01/16  17:30:09

	C:1D6AH            LINE#              308
	C:1D6DH            LINE#              309
	C:1D6FH            LINE#              310
	C:1D71H            LINE#              311
	C:1D72H            LINE#              312
	C:1D73H            LINE#              313
	C:1D75H            LINE#              315
	C:1D77H            LINE#              317
	C:1D7AH            LINE#              319
	C:1D7BH            LINE#              323
	C:1D7DH            LINE#              324
	C:1D7EH            LINE#              325
	C:1D7FH            LINE#              326
	C:1D82H            LINE#              327
	C:1D84H            LINE#              329
	C:1D87H            LINE#              330
	C:1D89H            LINE#              332
	C:1D8CH            LINE#              333
	C:1D8EH            LINE#              334
	C:1D90H            LINE#              335
	C:1D91H            LINE#              336
	C:1D92H            LINE#              337
	C:1D93H            LINE#              338
	C:1D94H            LINE#              339
	C:1D95H            LINE#              340
	C:1D96H            LINE#              341
	C:1D97H            LINE#              342
	C:1D99H            LINE#              343
	C:1D9BH            LINE#              344
	C:1D9CH            LINE#              345
	C:1D9DH            LINE#              346
	C:1D9EH            LINE#              347
	C:1DA1H            LINE#              348
	C:1DA3H            LINE#              350
	C:1DA4H            LINE#              351
	C:1DA7H            LINE#              352
	C:1DAAH            LINE#              354
	C:1DABH            LINE#              355
	C:1DADH            LINE#              356
	C:1DAEH            LINE#              357
	C:1DB0H            LINE#              358
	C:1DB2H            LINE#              359
	C:1DB3H            LINE#              360
	C:1DB5H            LINE#              361
	C:1DB7H            LINE#              363
	C:1DBAH            LINE#              364
	C:1DBDH            LINE#              366
	C:1DC0H            LINE#              368
	C:1DC2H            LINE#              369
	C:1DC4H            LINE#              370
	C:1DC6H            LINE#              371
	C:1DC8H            LINE#              372
	C:1DC9H            LINE#              376
	C:1DCBH            LINE#              377
	C:1DCDH            LINE#              378
	C:1DCEH            LINE#              379
	C:1DCFH            LINE#              380
	C:1DD1H            LINE#              381
	C:1DD3H            LINE#              383
	C:1DD5H            LINE#              384
	C:19FDH            LINE#              7651
	-------            ENDMOD             BLHELI

----------------------
SUGGESTED OPTIMIZATION
----------------------
Warning: 17 (11H) data bytes in the range [00H-80H] are available for storage&
.
LX51 CODE BANKING LINKER/LOCATOR V06.16.13.326             01/01/16  17:30:09

         Consider using some of these for 'data' variables in your source fil&
es.


LINK/LOCATE RUN COMPLETE, 1 WARNING  FOUND.

